******************************************************************************
                  TI ARM Linker PC v16.9.8                     
******************************************************************************
>> Linked Wed Nov 21 21:30:52 2018

OUTPUT FILE NAME:   <adc_window_monitor_launchpad_tirtos.out>
ENTRY POINT SYMBOL: "ResetISR"  address: 00003bdd


MEMORY CONFIGURATION

         name            origin    length      used     unused   attr    fill
----------------------  --------  ---------  --------  --------  ----  --------
  FLASH                 00000000   00020000  00004497  0001bb69  R  X
  GPRAM                 11000000   00002000  00000000  00002000  RW X
  SRAM                  20000000   00005000  00001ca9  00003357  RW X


SEGMENT ALLOCATION MAP

run origin  load origin   length   init length attrs members
----------  ----------- ---------- ----------- ----- -------
00000000    00000000    00000620   00000620    r--
  00000000    00000000    0000003c   0000003c    r-- .resetVecs
  0000003c    0000003c    0000037b   0000037b    r-- .const
  000003b8    000003b8    00000268   00000268    r-- .cinit
00001000    00001000    00003e2c   00003e2c    r-x
  00001000    00001000    0000003c   0000003c    r-- .const:ti_sysbios_knl_Task_Object__PARAMS__C
  0000103c    0000103c    00000034   00000034    r-- .const:ti_sysbios_knl_Mailbox_Object__PARAMS__C
  00001070    00001070    00000030   00000030    r-- .const:ti_sysbios_family_arm_m3_Hwi_Object__PARAMS__C
  000010a0    000010a0    0000002c   0000002c    r-- .const:ti_sysbios_hal_Hwi_Object__PARAMS__C
  000010cc    000010cc    00000028   00000028    r-- .const:ti_sysbios_heaps_HeapMem_Module__FXNS__C
  000010f4    000010f4    00000028   00000028    r-- .const:ti_sysbios_knl_Swi_Object__PARAMS__C
  0000111c    0000111c    00000024   00000024    r-- .const:ti_sysbios_gates_GateHwi_Module__FXNS__C
  00001140    00001140    00000024   00000024    r-- .const:ti_sysbios_gates_GateMutex_Module__FXNS__C
  00001164    00001164    00000024   00000024    r-- .const:ti_sysbios_heaps_HeapMem_Object__PARAMS__C
  00001188    00001188    00000024   00000024    r-- .const:ti_sysbios_knl_Clock_Object__PARAMS__C
  000011ac    000011ac    00000024   00000024    r-- .const:ti_sysbios_knl_Semaphore_Object__PARAMS__C
  000011d0    000011d0    00000020   00000020    r-- .const:ti_sysbios_family_arm_m3_Hwi_Object__DESC__C
  000011f0    000011f0    00000020   00000020    r-- .const:ti_sysbios_gates_GateHwi_Object__DESC__C
  00001210    00001210    00000020   00000020    r-- .const:ti_sysbios_gates_GateMutex_Object__DESC__C
  00001230    00001230    00000020   00000020    r-- .const:ti_sysbios_hal_Hwi_Object__DESC__C
  00001250    00001250    00000020   00000020    r-- .const:ti_sysbios_heaps_HeapMem_Object__DESC__C
  00001270    00001270    00000020   00000020    r-- .const:ti_sysbios_knl_Clock_Object__DESC__C
  00001290    00001290    00000020   00000020    r-- .const:ti_sysbios_knl_Mailbox_Object__DESC__C
  000012b0    000012b0    00000020   00000020    r-- .const:ti_sysbios_knl_Queue_Object__DESC__C
  000012d0    000012d0    00000020   00000020    r-- .const:ti_sysbios_knl_Semaphore_Object__DESC__C
  000012f0    000012f0    00000020   00000020    r-- .const:ti_sysbios_knl_Swi_Object__DESC__C
  00001310    00001310    00000020   00000020    r-- .const:ti_sysbios_knl_Task_Object__DESC__C
  00001330    00001330    00000018   00000018    r-- .const:ti_sysbios_gates_GateHwi_Object__PARAMS__C
  00001348    00001348    00000018   00000018    r-- .const:ti_sysbios_gates_GateMutex_Object__PARAMS__C
  00001360    00001360    00000018   00000018    r-- .const:ti_sysbios_knl_Queue_Object__PARAMS__C
  00001378    00001378    00000008   00000008    r-- .const:ti_sysbios_knl_Idle_funcList__C
  00001384    00001384    00000004   00000004    r-- .const:ti_sysbios_family_arm_cc26xx_Timer_startupNeeded__C
  00001388    00001388    00000004   00000004    r-- .const:ti_sysbios_family_arm_m3_Hwi_E_alreadyDefined__C
  0000138c    0000138c    00000004   00000004    r-- .const:ti_sysbios_family_arm_m3_Hwi_E_hwiLimitExceeded__C
  00001390    00001390    00000004   00000004    r-- .const:ti_sysbios_family_arm_m3_Hwi_NUM_INTERRUPTS__C
  00001394    00001394    00000004   00000004    r-- .const:ti_sysbios_family_arm_m3_Hwi_Object__count__C
  00001398    00001398    00000004   00000004    r-- .const:ti_sysbios_family_arm_m3_Hwi_Object__table__C
  0000139c    0000139c    00000004   00000004    r-- .const:ti_sysbios_family_arm_m3_Hwi_ccr__C
  000013a0    000013a0    00000004   00000004    r-- .const:ti_sysbios_family_arm_m3_Hwi_excHandlerFunc__C
  000013a4    000013a4    00000004   00000004    r-- .const:ti_sysbios_family_arm_m3_Hwi_nullIsrFunc__C
  000013a8    000013a8    00000004   00000004    r-- .const:ti_sysbios_family_arm_m3_Hwi_numSparseInterrupts__C
  000013ac    000013ac    00000004   00000004    r-- .const:ti_sysbios_family_arm_m3_Hwi_priGroup__C
  000013b0    000013b0    00000004   00000004    r-- .const:ti_sysbios_family_arm_m3_TaskSupport_stackAlignment__C
  000013b4    000013b4    00000004   00000004    r-- .const:ti_sysbios_heaps_HeapMem_E_memory__C
  000013b8    000013b8    00000004   00000004    r-- .const:ti_sysbios_heaps_HeapMem_Module__gateObj__C
  000013bc    000013bc    00000004   00000004    r-- .const:ti_sysbios_heaps_HeapMem_Object__count__C
  000013c0    000013c0    00000004   00000004    r-- .const:ti_sysbios_heaps_HeapMem_Object__table__C
  000013c4    000013c4    00000004   00000004    r-- .const:ti_sysbios_heaps_HeapMem_reqAlign__C
  000013c8    000013c8    00000004   00000004    r-- .const:ti_sysbios_knl_Clock_serviceMargin__C
  000013cc    000013cc    00000004   00000004    r-- .const:ti_sysbios_knl_Mailbox_Object__count__C
  000013d0    000013d0    00000004   00000004    r-- .const:ti_sysbios_knl_Mailbox_Object__table__C
  000013d4    000013d4    00000004   00000004    r-- .const:ti_sysbios_knl_Mailbox_maxTypeAlign__C
  000013d8    000013d8    00000004   00000004    r-- .const:ti_sysbios_knl_Queue_Object__count__C
  000013dc    000013dc    00000004   00000004    r-- .const:ti_sysbios_knl_Queue_Object__table__C
  000013e0    000013e0    00000004   00000004    r-- .const:ti_sysbios_knl_Swi_Object__count__C
  000013e4    000013e4    00000004   00000004    r-- .const:ti_sysbios_knl_Swi_Object__table__C
  000013e8    000013e8    00000004   00000004    r-- .const:ti_sysbios_knl_Swi_numPriorities__C
  000013ec    000013ec    00000004   00000004    r-- .const:ti_sysbios_knl_Task_Object__count__C
  000013f0    000013f0    00000004   00000004    r-- .const:ti_sysbios_knl_Task_Object__table__C
  000013f4    000013f4    00000004   00000004    r-- .const:ti_sysbios_knl_Task_allBlockedFunc__C
  000013f8    000013f8    00000004   00000004    r-- .const:ti_sysbios_knl_Task_defaultStackHeap__C
  000013fc    000013fc    00000004   00000004    r-- .const:ti_sysbios_knl_Task_defaultStackSize__C
  00001400    00001400    00000004   00000004    r-- .const:ti_sysbios_knl_Task_numConstructedTasks__C
  00001406    00001406    00000002   00000002    r-- .const:ti_sysbios_family_arm_cc26xx_Timer_Module__id__C
  00001408    00001408    00000002   00000002    r-- .const:ti_sysbios_family_arm_cc26xx_TimestampProvider_useClockTimer__C
  0000140a    0000140a    00000002   00000002    r-- .const:ti_sysbios_family_arm_m3_Hwi_Module__id__C
  0000140c    0000140c    00000002   00000002    r-- .const:ti_sysbios_gates_GateHwi_Module__id__C
  0000140e    0000140e    00000002   00000002    r-- .const:ti_sysbios_gates_GateMutex_Module__id__C
  00001410    00001410    00000002   00000002    r-- .const:ti_sysbios_heaps_HeapMem_Module__id__C
  00001412    00001412    00000002   00000002    r-- .const:ti_sysbios_knl_Task_initStackFlag__C
  00001414    00001414    00000001   00000001    r-- .const:ti_sysbios_knl_Clock_tickMode__C
  00001418    00001418    00000008   00000008    r-- .const:xdc_runtime_Startup_firstFxns__C
  00001420    00001420    00000008   00000008    r-- .const:xdc_runtime_Startup_lastFxns__C
  00001428    00001428    00000004   00000004    r-- .const:xdc_runtime_Assert_E_assertFailed__C
  0000142c    0000142c    00000004   00000004    r-- .const:xdc_runtime_Error_E_memory__C
  00001430    00001430    00000004   00000004    r-- .const:xdc_runtime_Error_policyFxn__C
  00001434    00001434    00000004   00000004    r-- .const:xdc_runtime_IGateProvider_Interface__BASE__C
  00001438    00001438    00000004   00000004    r-- .const:xdc_runtime_IHeap_Interface__BASE__C
  0000143c    0000143c    00000004   00000004    r-- .const:xdc_runtime_IModule_Interface__BASE__C
  00001440    00001440    00000004   00000004    r-- .const:xdc_runtime_Main_Module__diagsEnabled__C
  00001444    00001444    00000004   00000004    r-- .const:xdc_runtime_Main_Module__diagsIncluded__C
  00001448    00001448    00000004   00000004    r-- .const:xdc_runtime_Main_Module__diagsMask__C
  0000144c    0000144c    00000004   00000004    r-- .const:xdc_runtime_Memory_defaultHeapInstance__C
  00001450    00001450    00000004   00000004    r-- .const:xdc_runtime_Startup_execImpl__C
  00001454    00001454    00000004   00000004    r-- .const:xdc_runtime_Startup_maxPasses__C
  00001458    00001458    00000004   00000004    r-- .const:xdc_runtime_Startup_sfxnRts__C
  0000145c    0000145c    00000004   00000004    r-- .const:xdc_runtime_Startup_sfxnTab__C
  00001460    00001460    00000004   00000004    r-- .const:xdc_runtime_Startup_startModsFxn__C
  00001464    00001464    00000004   00000004    r-- .const:xdc_runtime_SysCallback_abortFxn__C
  00001468    00001468    00000004   00000004    r-- .const:xdc_runtime_SysCallback_exitFxn__C
  0000146c    0000146c    00000004   00000004    r-- .const:xdc_runtime_System_abortFxn__C
  00001470    00001470    00000004   00000004    r-- .const:xdc_runtime_System_exitFxn__C
  00001474    00001474    00000004   00000004    r-- .const:xdc_runtime_System_maxAtexitHandlers__C
  00001478    00001478    00000004   00000004    r-- .const:xdc_runtime_Text_charTab__C
  0000147c    0000147c    00000004   00000004    r-- .const:xdc_runtime_Text_nameEmpty__C
  00001480    00001480    00000004   00000004    r-- .const:xdc_runtime_Text_nameStatic__C
  00001484    00001484    00000004   00000004    r-- .const:xdc_runtime_Text_nameUnknown__C
  00001488    00001488    00000002   00000002    r-- .const:xdc_runtime_Main_Module__id__C
  0000148a    0000148a    00000002   00000002    r-- .const:xdc_runtime_Memory_Module__id__C
  0000148c    0000148c    00000002   00000002    r-- .const:xdc_runtime_Text_charCnt__C
  0000148e    0000148e    00000002   00000002    r-- .const:xdc_runtime_Text_isLoaded__C
  00001490    00001490    00000001   00000001    r-- .const:xdc_runtime_Error_policy__C
  00001494    00001494    00000004   00000004    r-- .const:ti_sysbios_rom_ROM_AONRTCChannelEnable
  00001498    00001498    00000004   00000004    r-- .const:ti_sysbios_rom_ROM_AONRTCCompareValueSet
  0000149c    0000149c    00000004   00000004    r-- .const:ti_sysbios_rom_ROM_AONRTCCurrentCompareValueGet
  000014a0    000014a0    00000004   00000004    r-- .const:ti_sysbios_rom_ROM_AONRTCEventClear
  000014a4    000014a4    00000004   00000004    r-- .const:ti_sysbios_rom_ROM_ti_sysbios_family_arm_cc26xx_Timer_getCount64__E
  000014a8    000014a8    00000004   00000004    r-- .const:ti_sysbios_rom_ROM_ti_sysbios_family_arm_cc26xx_Timer_getCurrentTick__E
  000014ac    000014ac    00000004   00000004    r-- .const:ti_sysbios_rom_ROM_ti_sysbios_family_arm_cc26xx_Timer_getMaxTicks__E
  000014b0    000014b0    00000004   00000004    r-- .const:ti_sysbios_rom_ROM_ti_sysbios_family_arm_cc26xx_Timer_initDevice__I
  000014b4    000014b4    00000004   00000004    r-- .const:ti_sysbios_rom_ROM_ti_sysbios_family_arm_cc26xx_Timer_setNextTick__E
  000014b8    000014b8    00000004   00000004    r-- .const:ti_sysbios_rom_ROM_ti_sysbios_family_arm_cc26xx_Timer_setThreshold__I
  000014bc    000014bc    00000004   00000004    r-- .const:ti_sysbios_rom_ROM_ti_sysbios_family_arm_cc26xx_Timer_start__E
  000014c0    000014c0    00000004   00000004    r-- .const:ti_sysbios_rom_ROM_ti_sysbios_family_arm_cc26xx_TimestampProvider_get32__E
  000014c4    000014c4    00000004   00000004    r-- .const:ti_sysbios_rom_ROM_xdc_runtime_Startup_getState__I
  000014c8    000014c8    00000004   00000004    r-- .const:ti_sysbios_rom_ROM_xdc_runtime_System_SupportProxy_abort__E
  000014cc    000014cc    00000004   00000004    r-- .const:ti_sysbios_rom_ROM_xdc_runtime_System_SupportProxy_exit__E
  000014d0    000014d0    00000004   00000004    r-- .const:ti_sysbios_gates_GateMutex_Instance_State_sem__O
  000014d4    000014d4    00000004   00000004    r-- .const:ti_sysbios_knl_Clock_Module_State_clockQ__O
  000014d8    000014d8    00000004   00000004    r-- .const:ti_sysbios_knl_Mailbox_Instance_State_dataQue__O
  000014dc    000014dc    00000004   00000004    r-- .const:ti_sysbios_knl_Mailbox_Instance_State_dataSem__O
  000014e0    000014e0    00000004   00000004    r-- .const:ti_sysbios_knl_Mailbox_Instance_State_freeQue__O
  000014e4    000014e4    00000004   00000004    r-- .const:ti_sysbios_knl_Mailbox_Instance_State_freeSem__O
  000014e8    000014e8    00000004   00000004    r-- .const:ti_sysbios_knl_Semaphore_Instance_State_pendQ__O
  000014ec    000014ec    00000004   00000004    r-- .const:ti_sysbios_knl_Task_Module_State_inactiveQ__O
  000014f0    000014f0    0000393c   0000393c    r-x .text
0001ffa8    0001ffa8    00000058   00000058    r--
  0001ffa8    0001ffa8    00000058   00000058    r-- .ccfg
20000100    20000100    000018ec   00000000    rw-
  20000100    20000100    00000044   00000000    rw- .data:ti_sysbios_knl_Task_Module__state__V
  20000144    20000144    00000034   00000000    rw- .data:ti_sysbios_family_arm_m3_Hwi_Module__state__V
  20000178    20000178    0000002c   00000000    rw- .data:ti_sysbios_knl_Clock_Module__state__V
  200001a4    200001a4    00000024   00000000    rw- .data:ti_sysbios_BIOS_Module__state__V
  200001c8    200001c8    0000001c   00000000    rw- .data:ti_sysbios_knl_Swi_Module__state__V
  200001e4    200001e4    00000008   00000000    rw- .data:ti_sysbios_family_arm_cc26xx_Timer_Module__state__V
  200001ec    200001ec    00000004   00000000    rw- .data:ti_sysbios_family_arm_cc26xx_TimestampProvider_Module__state__V
  200001f0    200001f0    00000008   00000000    rw- .data:xdc_runtime_Startup_Module__state__V
  200001f8    200001f8    00000008   00000000    rw- .data:xdc_runtime_System_Module__state__V
  20000200    20000200    00000004   00000000    rw- .data:xdc_runtime_Memory_Module__state__V
  20000208    20000208    00001309   00000000    rw- .bss
  20001518    20001518    000004d4   00000000    rw- .data
20004d00    20004d00    00000300   00000000    rw-
  20004d00    20004d00    00000300   00000000    rw- .stack


SECTION ALLOCATION MAP

 output                                  attributes/
section   page    origin      length       input sections
--------  ----  ----------  ----------   ----------------
.binit     0    00000000    00000000     

.const     0    0000003c    0000037b     
                  0000003c    000001aa     scif.obj (.const:pAuxRamImage)
                  000001e6    0000004c     drivers_cc13x0.aem3 : PowerCC26XX.oem3 (.const:resourceDB)
                  00000232    00000002     rom_pem3.oem3 (.const:xdc_runtime_Error_maxDepth__C)
                  00000234    00000048     rom_pem3.oem3 (.const:.string)
                  0000027c    00000034     CC1350_LAUNCHXL.obj (.const:BoardGpioInitTable)
                  000002b0    00000030     scif.obj (.const:scifDriverSetup)
                  000002e0    00000028     rom_pem3.oem3 (.const:xdc_runtime_Startup_sfxnTab__A)
                  00000308    00000018     CC1350_LAUNCHXL.obj (.const:PowerCC26XX_config)
                  00000320    00000014     CC1350_LAUNCHXL_fxns.obj (.const:$P$T1$2)
                  00000334    00000014     rom_pem3.oem3 (.const:xdc_runtime_Startup_sfxnRts__A)
                  00000348    00000010     scif.obj (.const:.string:pAuxIoIndexToMcuIocfgOffsetLut)
                  00000358    00000010     scif.obj (.const:pScifTaskDataStructInfoLut)
                  00000368    0000000c     rom_pem3.oem3 (.const:xdc_runtime_Startup_firstFxns__A)
                  00000374    00000008     CC1350_LAUNCHXL_fxns.obj (.const:$P$T0$1)
                  0000037c    00000008     CC1350_LAUNCHXL.obj (.const:PINCC26XX_hwAttrs)
                  00000384    00000008     scif.obj (.const:pRtlTaskStructSignatures)
                  0000038c    00000004     rom_pem3.oem3 (.const:ti_sysbios_family_arm_cc26xx_Timer_funcHookCH1__C)
                  00000390    00000004     rom_pem3.oem3 (.const:ti_sysbios_family_arm_cc26xx_Timer_funcHookCH2__C)
                  00000394    00000004     rom_pem3.oem3 (.const:ti_sysbios_family_arm_m3_Hwi_swiDisable__C)
                  00000398    00000004     rom_pem3.oem3 (.const:ti_sysbios_family_arm_m3_Hwi_swiRestoreHwi__C)
                  0000039c    00000004     rom_pem3.oem3 (.const:ti_sysbios_knl_Clock_tickPeriod__C)
                  000003a0    00000004     rom_pem3.oem3 (.const:ti_sysbios_knl_Clock_triggerClock__C)
                  000003a4    00000004     rom_pem3.oem3 (.const:ti_sysbios_knl_Idle_funcList__A)
                  000003a8    00000004     rom_pem3.oem3 (.const:xdc_runtime_Error_raiseHook__C)
                  000003ac    00000004     rom_pem3.oem3 (.const:xdc_runtime_SysMin_bufSize__C)
                  000003b0    00000004     rom_pem3.oem3 (.const:xdc_runtime_SysMin_outputFunc__C)
                  000003b4    00000002     rom_pem3.oem3 (.const:xdc_runtime_SysMin_flushAtExit__C)
                  000003b6    00000001     rom_pem3.oem3 (.const:xdc_runtime_Text_charTab__A)

.text      0    000014f0    0000393c     
                  000014f0    0000030c     drivers_cc13x0.aem3 : PowerCC26XX_calibrateRCOSC.oem3 (.text:PowerCC26XX_auxISR)
                  000017fc    00000228     driverlib.lib : sys_ctrl.obj (.text:NOROM_SysCtrlSetRechargeBeforePowerDown)
                  00001a24    00000224     drivers_cc13x0.aem3 : PowerCC26XX.oem3 (.text:Power_sleep)
                  00001c48    000001f4     rtsv7M3_T_le_eabi.lib : ull_div_t2.obj (.text)
                  00001e3c    000001b8     drivers_cc13x0.aem3 : PINCC26XX.oem3 (.text:PIN_init)
                  00001ff4    00000190                         : PowerCC26XX_calibrateRCOSC.oem3 (.text:PowerCC26XX_doCalibrate)
                  00002184    00000130     main_tirtos.obj (.text:taskFxn)
                  000022b4    00000124     driverlib.lib : setup_rom.obj (.text:NOROM_SetupAfterColdResetWakeupFromShutDownCfg3)
                  000023d8    00000114     drivers_cc13x0.aem3 : PowerCC26XX.oem3 (.text:Power_init)
                  000024ec    00000100     scif_framework.obj (.text:scifInit)
                  000025ec    000000f0     driverlib.lib : setup_rom.obj (.text:NOROM_SetupAfterColdResetWakeupFromShutDownCfg2)
                  000026dc    000000e4     dpl_cc13x0.aem3 : PowerCC26XX_tirtos.oem3 (.text:PowerCC26XX_standbyPolicy)
                  000027c0    000000e0     scif_framework.obj (.text:scifCtrlTasksNbl)
                  000028a0    000000dc     drivers_cc13x0.aem3 : PINCC26XX.oem3 (.text:PINCC26XX_setIoCfg)
                  0000297c    000000c4     driverlib.lib : setup.obj (.text:TrimAfterColdResetWakeupFromShutDown)
                  00002a40    000000bc     drivers_cc13x0.aem3 : PowerCC26XX.oem3 (.text:Power_releaseDependency)
                  00002afc    000000b4                         : PowerCC26XX.oem3 (.text:Power_setDependency)
                  00002bb0    000000b0     rom_sysbios.aem3 : rom_sysbios.obj (.text:xdc_runtime_Error_policyDefault__E)
                  00002c60    000000a8     driverlib.lib : setup.obj (.text:NOROM_SetupTrimDevice)
                  00002d08    000000a4                   : setup_rom.obj (.text:NOROM_SetupAfterColdResetWakeupFromShutDownCfg1)
                  00002dac    000000a4     drivers_cc13x0.aem3 : PowerCC26XX.oem3 (.text:switchXOSCHFclockFunc)
                  00002e50    000000a0     auto_init.aem3 : auto_init.oem3 (.text)
                  00002ef0    0000009c     rtsv7M3_T_le_eabi.lib : memcpy_t2.obj (.text)
                  00002f8c    00000098     drivers_cc13x0.aem3 : PINCC26XX.oem3 (.text:PIN_open)
                  00003024    00000098     scif_framework.obj (.text:scifInitIo)
                  000030bc    00000098     rom_sysbios.aem3 : rom_sysbios.obj (.text:ti_sysbios_knl_Clock_workFuncDynamic__E)
                  00003154    00000090                      : rom_sysbios.obj (.text:ti_sysbios_family_arm_cc26xx_Timer_start__E)
                  000031e4    00000084     CC1350_LAUNCHXL_fxns.obj (.text:CC1350_LAUNCHXL_sendExtFlashByte)
                  00003268    0000007a     rtsv7M3_T_le_eabi.lib : memset_t2.obj (.text)
                  000032e2    00000002     drivers_cc13x0.aem3 : PowerCC26XX.oem3 (.text:emptyClockFunc)
                  000032e4    00000074     driverlib.lib : setup_rom.obj (.text:NOROM_SetupSetVddrLevel)
                  00003358    0000006c     drivers_cc13x0.aem3 : PowerCC26XX_calibrateRCOSC.oem3 (.text:PowerCC26XX_initiateCalibration)
                  000033c4    00000068     driverlib.lib : setup_rom.obj (.text:NOROM_SetupGetTrimForAmpcompCtrl)
                  0000342c    00000068                   : setup_rom.obj (.text:NOROM_SetupGetTrimForAnabypassValue1)
                  00003494    00000068                   : sys_ctrl.obj (.text:NOROM_SysCtrlAdjustRechargeAfterPowerDown)
                  000034fc    00000068                   : sys_ctrl.obj (.text:NOROM_SysCtrl_DCDC_VoltageConditionalControl)
                  00003564    00000068     rtsv7M3_T_le_eabi.lib : copy_decompress_lzss.obj (.text:decompress:lzss)
                  000035cc    00000068     drivers_cc13x0.aem3 : PowerCC26XX.oem3 (.text:lfClockReadyCallback)
                  00003634    00000068     rtsv7M3_T_le_eabi.lib : trgmsg.obj (.text)
                  0000369c    00000064     driverlib.lib : osc.obj (.text:NOROM_OSCHF_AttemptToSwitchToXosc)
                  00003700    00000064     drivers_cc13x0.aem3 : PowerCC26XX.oem3 (.text:configureXOSCHF)
                  00003764    00000060     driverlib.lib : osc.obj (.text:NOROM_OSCClockSourceSet)
                  000037c4    00000060     drivers_cc13x0.aem3 : PowerCC26XX.oem3 (.text:PowerCC26XX_calibrate)
                  00003824    00000060     main_tirtos.obj (.text:main)
                  00003884    00000060     scif_framework.obj (.text:scifReinitIo)
                  000038e4    0000005c     drivers_cc13x0.aem3 : PowerCC26XX_calibrateRCOSC.oem3 (.text:PowerCC26XX_RCOSC_clockFunc)
                  00003940    0000005c     rom_pem3.oem3 (.text:xdc_runtime_Startup_getState__I)
                  0000399c    00000058     drivers_cc13x0.aem3 : PINCC26XX.oem3 (.text:PIN_remove)
                  000039f4    00000058     rtsv7M3_T_le_eabi.lib : hostwrite.obj (.text)
                  00003a4c    00000058     scif_framework.obj (.text:scifUninitIo)
                  00003aa4    00000050     dpl_cc13x0.aem3 : ClockP_tirtos.oem3 (.text:ClockP_construct)
                  00003af4    00000050     driverlib.lib : setup_rom.obj (.text:NOROM_SetupSetCacheModeAccordingToCcfgSetting)
                  00003b44    0000004c     CC1350_LAUNCHXL_fxns.obj (.text:CC1350_LAUNCHXL_wakeUpExtFlash)
                  00003b90    0000004c     rtsv7M3_T_le_eabi.lib : cpy_tbl.obj (.text)
                  00003bdc    00000044     boot.aem3 : boot.oem3 (.text)
                  00003c20    00000044     scif.obj (.text:scifStartRtcTicks)
                  00003c64    00000044     rom_sysbios.aem3 : rom_sysbios.obj (.text:xdc_runtime_Error_setX__E)
                  00003ca8    00000044                      : rom_sysbios.obj (.text:xdc_runtime_SysMin_flush__E)
                  00003cec    00000040     CC1350_LAUNCHXL_fxns.obj (.text:CC1350_LAUNCHXL_shutDownExtFlash)
                  00003d2c    00000040     drivers_cc13x0.aem3 : PINCC26XX.oem3 (.text:PIN_swi)
                  00003d6c    00000040     scif.obj (.text:scifStartRtcTicksNow)
                  00003dac    00000040     rom_sysbios.aem3 : rom_sysbios.obj (.text:ti_sysbios_family_arm_cc26xx_Timer_setThreshold__I)
                  00003dec    0000003e     dpl_cc13x0.aem3 : HwiP_tirtos.oem3 (.text:HwiP_construct)
                  00003e2a    00000002     main_tirtos.obj (.text:scCtrlReadyCallback)
                  00003e2c    0000003c     driverlib.lib : chipinfo.obj (.text:NOROM_ChipInfo_GetHwRevision)
                  00003e68    0000003c                   : osc.obj (.text:NOROM_OSC_HPOSCRelativeFrequencyOffsetGet)
                  00003ea4    0000003c     dpl_cc13x0.aem3 : SwiP_tirtos.oem3 (.text:SwiP_construct)
                  00003ee0    0000003c     drivers_cc13x0.aem3 : PowerCC26XX.oem3 (.text:disableLfClkQualifiersEnableClkLoss)
                  00003f1c    0000003c     rom_sysbios.aem3 : rom_sysbios.obj (.text:ti_sysbios_family_arm_m3_Hwi_construct2__E)
                  00003f58    00000038     drivers_cc13x0.aem3 : PINCC26XX.oem3 (.text:PIN_setOutputValue)
                  00003f90    00000038     rom_sysbios.aem3 : rom_sysbios.obj (.text:ti_sysbios_family_arm_cc26xx_Timer_getCurrentTick__E)
                  00003fc8    00000038                      : rom_sysbios.obj (.text:xdc_runtime_SysMin_putch__E)
                  00004000    00000034     driverlib.lib : osc.obj (.text:NOROM_OSCHF_SwitchToRcOscTurnOffXosc)
                  00004034    00000034     drivers_cc13x0.aem3 : PINCC26XX.oem3 (.text:PIN_setConfig)
                  00004068    00000034                         : PowerCC26XX.oem3 (.text:Power_releaseConstraint)
                  0000409c    00000034                         : PowerCC26XX.oem3 (.text:notify)
                  000040d0    00000034     scif_framework.obj (.text:scifAckAlertEvents)
                  00004104    00000034     scif_framework.obj (.text:scifOsalInit)
                  00004138    00000034     rom_sysbios.aem3 : rom_sysbios.obj (.text:ti_sysbios_family_arm_cc26xx_Timer_initDevice__I)
                  0000416c    00000032                      : rom_sysbios.obj (.text:ti_sysbios_family_arm_cc26xx_Timer_setNextTick__E)
                  0000419e    00000002                      : rom_sysbios.obj (.text:ti_sysbios_BIOS_linkedWithIncorrectBootLibrary__E)
                  000041a0    00000030     driverlib.lib : chipinfo.obj (.text:NOROM_ChipInfo_GetChipType)
                  000041d0    00000030                   : setup_rom.obj (.text:NOROM_SetupSetAonRtcSubSecInc)
                  00004200    00000030     drivers_cc13x0.aem3 : PowerCC26XX.oem3 (.text:Power_setConstraint)
                  00004230    00000030     scif_framework.obj (.text:osalRegisterCtrlReadyInt)
                  00004260    00000030     scif_framework.obj (.text:osalRegisterTaskAlertInt)
                  00004290    00000030     rom_pem3.oem3 (.text:ti_sysbios_BIOS_atExitFunc__I)
                  000042c0    00000030     rom_pem3.oem3 (.text:ti_sysbios_BIOS_startFunc__I)
                  000042f0    00000030     rom_sysbios.aem3 : rom_sysbios.obj (.text:xdc_runtime_SysMin_abort__E)
                  00004320    0000002c     driverlib.lib : ddi.obj (.text:NOROM_DDI32RegWrite)
                  0000434c    0000002c                   : osc.obj (.text:NOROM_OSCClockSourceGet)
                  00004378    0000002c                   : setup_rom.obj (.text:NOROM_SetupGetTrimForRadcExtCfg)
                  000043a4    0000002c     dpl_cc13x0.aem3 : SemaphoreP_tirtos.oem3 (.text:SemaphoreP_constructBinary)
                  000043d0    0000002c     scif_framework.obj (.text:osalIndicateCtrlReady)
                  000043fc    0000002c     scif_framework.obj (.text:osalLockCtrlTaskNbl)
                  00004428    0000002c     rom_sysbios.aem3 : rom_sysbios.obj (.text:ti_sysbios_knl_Clock_getTicksUntilInterrupt__E)
                  00004454    00000028     driverlib.lib : aon_batmon.obj (.text:NOROM_AONBatMonTemperatureGetDegC)
                  0000447c    00000028                   : adi.obj (.text:SafeHapiVoid)
                  000044a4    00000024     rom_pem3.oem3 (.text:ti_sysbios_BIOS_registerRTSLock__I)
                  000044c8    00000024     rom_pem3.oem3 (.text:ti_sysbios_BIOS_removeRTSLock__I)
                  000044ec    00000024     rom_sysbios.aem3 : rom_sysbios.obj (.text:ti_sysbios_family_arm_cc26xx_Timer_getMaxTicks__E)
                  00004510    00000022     driverlib.lib : aux_adc.obj (.text:NOROM_AUXADCAdjustValueForGainAndOffset)
                  00004532    00000022                   : aux_adc.obj (.text:NOROM_AUXADCUnadjustValueForGainAndOffset)
                  00004554    00000022     rom_pem3.oem3 (.text:xdc_runtime_SysMin_output__I)
                  00004576    00000002     rom_pem3.oem3 (.text:ti_sysbios_BIOS_nullFunc__I)
                  00004578    00000020     driverlib.lib : setup_rom.obj (.text:NOROM_SetupGetTrimForXoscHfCtl)
                  00004598    00000020     dpl_cc13x0.aem3 : PowerCC26XX_tirtos.oem3 (.text:PowerCC26XX_schedulerDisable)
                  000045b8    00000020                     : PowerCC26XX_tirtos.oem3 (.text:PowerCC26XX_schedulerRestore)
                  000045d8    00000020     rom_pem3.oem3 (.text:ti_sysbios_BIOS_rtsLock__I)
                  000045f8    00000020     rom_sysbios.aem3 : rom_sysbios.obj (.text:ti_sysbios_family_arm_cc26xx_Timer_dynamicStub__E)
                  00004618    00000020                      : rom_sysbios.obj (.text:ti_sysbios_knl_Clock_stop__E)
                  00004638    00000020                      : rom_sysbios.obj (.text:xdc_runtime_SysMin_Module_startup__E)
                  00004658    0000001e     drivers_cc13x0.aem3 : PINCC26XX.oem3 (.text:PIN_close)
                  00004676    0000001e                         : PowerCC26XX.oem3 (.text:Power_getTransitionLatency)
                  00004694    0000001c     CC1350_LAUNCHXL.obj (.text:CC1350_LAUNCHXL_initGeneral)
                  000046b0    0000001c     driverlib.lib : aux_adc.obj (.text:NOROM_AUXADCGetAdjustmentGain)
                  000046cc    0000001c                   : chipinfo.obj (.text:NOROM_ChipInfo_GetChipFamily)
                  000046e8    0000001c                   : setup_rom.obj (.text:NOROM_SetupGetTrimForAmpcompTh2)
                  00004704    0000001c                   : setup_rom.obj (.text:NOROM_SetupGetTrimForRcOscLfRtuneCtuneTrim)
                  00004720    0000001c     drivers_cc13x0.aem3 : PINCC26XX.oem3 (.text:PINCC26XX_setIoCfgMux)
                  0000473c    0000001c                         : PINCC26XX.oem3 (.text:PIN_hwi)
                  00004758    0000001c     rom_sysbios.aem3 : rom_sysbios.obj (.text:ti_sysbios_family_arm_m3_Hwi_clearInterrupt__E)
                  00004774    0000001c                      : rom_sysbios.obj (.text:ti_sysbios_knl_Swi_construct2__E)
                  00004790    0000001c                      : rom_sysbios.obj (.text:xdc_runtime_SysMin_exit__E)
                  000047ac    00000018     driverlib.lib : aon_rtc.obj (.text:NOROM_AONRTCCurrentCompareValueGet)
                  000047c4    00000018                   : aux_adc.obj (.text:NOROM_AUXADCGetAdjustmentOffset)
                  000047dc    00000018                   : aux_adc.obj (.text:NOROM_AUXADCMicrovoltsToValue)
                  000047f4    00000018                   : chipinfo.obj (.text:NOROM_ChipInfo_GetPackageType)
                  0000480c    00000018                   : osc.obj (.text:NOROM_OSCHF_TurnOnXosc)
                  00004824    00000018                   : setup_rom.obj (.text:NOROM_SetupGetTrimForAdcShModeEn)
                  0000483c    00000018                   : setup_rom.obj (.text:NOROM_SetupGetTrimForAdcShVbufEn)
                  00004854    00000018                   : setup_rom.obj (.text:NOROM_SetupGetTrimForAmpcompTh1)
                  0000486c    00000018                   : setup_rom.obj (.text:NOROM_SetupGetTrimForDblrLoopFilterResetVoltage)
                  00004884    00000018                   : setup_rom.obj (.text:NOROM_SetupGetTrimForRcOscLfIBiasTrim)
                  0000489c    00000018                   : setup_rom.obj (.text:NOROM_SetupGetTrimForXoscLfRegulatorAndCmirrwrRatio)
                  000048b4    00000018     drivers_cc13x0.aem3 : PowerCC26XX.oem3 (.text:Power_idleFunc)
                  000048cc    00000018     rtsv7M3_T_le_eabi.lib : args_main.obj (.text)
                  000048e4    00000018                           : ll_mul_t2.obj (.text)
                  000048fc    00000018     scif_framework.obj (.text:scifClearAlertIntSource)
                  00004914    00000018     rom_pem3.oem3 (.text:ti_sysbios_BIOS_rtsUnlock__I)
                  0000492c    00000018     rom_sysbios.aem3 : rom_sysbios.obj (.text:ti_sysbios_knl_Swi_or__E)
                  00004944    00000018     rom_pem3.oem3 (.text:ti_sysbios_rom_cortexm_cc13xx_CC13xx_checkRevision__E)
                  0000495c    00000018     rom_sysbios.aem3 : rom_sysbios.obj (.text:xdc_runtime_Error_init__E)
                  00004974    00000016     driverlib.lib : chipinfo.obj (.text:NOROM_ThisLibraryIsFor_CC13x0_HwRev20AndLater_HaltIfViolated)
                  0000498a    00000016     rom_pem3.oem3 (.text:ti_sysbios_BIOS_errorRaiseHook__I)
                  000049a0    00000016     rom_pem3.oem3 (.text:ti_sysbios_BIOS_exitFunc__I)
                  000049b6    00000016     scif_framework.obj (.text:ti_sysbios_family_arm_m3_Hwi_Params_init)
                  000049cc    00000016     main_tirtos.obj (.text:ti_sysbios_knl_Semaphore_Params_init)
                  000049e2    00000016     scif_framework.obj (.text:ti_sysbios_knl_Semaphore_Params_init)
                  000049f8    00000016     main_tirtos.obj (.text:ti_sysbios_knl_Task_Params_init)
                  00004a0e    00000002     rom_sysbios.aem3 : rom_sysbios.obj (.text:ti_sysbios_knl_Clock_triggerFunc__I)
                  00004a10    00000014     driverlib.lib : aon_rtc.obj (.text:NOROM_AONRTCCurrent64BitValueGet)
                  00004a24    00000014                   : aux_adc.obj (.text:NOROM_AUXADCValueToMicrovolts)
                  00004a38    00000014     drivers_cc13x0.aem3 : PowerCC26XX.oem3 (.text:configureRFCoreClocks)
                  00004a4c    00000014     scif_framework.obj (.text:osalIndicateTaskAlert)
                  00004a60    00000014     rtsv7M3_T_le_eabi.lib : _lock.obj (.text)
                  00004a74    00000014     main_tirtos.obj (.text:scTaskAlertCallback)
                  00004a88    00000014     scif_framework.obj (.text:scifOsalRegisterCtrlReadyCallback)
                  00004a9c    00000014     scif_framework.obj (.text:scifOsalRegisterTaskAlertCallback)
                  00004ab0    00000014     rom_pem3.oem3 (.text:ti_sysbios_knl_Clock_doTick__I)
                  00004ac4    00000012     dpl_cc13x0.aem3 : SemaphoreP_tirtos.oem3 (.text:SemaphoreP_pend)
                  00004ad6    00000012     scif_framework.obj (.text:scifStartTasksNbl)
                  00004ae8    00000012     scif.obj (.text:scifTaskResourceInit)
                  00004afa    00000012     rom_pem3.oem3 (.text:xdc_runtime_Startup_exec__I)
                  00004b0c    00000010     dpl_cc13x0.aem3 : HwiP_tirtos.oem3 (.text:HwiP_Params_init)
                  00004b1c    00000010     driverlib.lib : setup_rom.obj (.text:NOROM_SetupGetTrimForXoscHfFastStart)
                  00004b2c    00000010                   : setup_rom.obj (.text:NOROM_SetupGetTrimForXoscHfIbiastherm)
                  00004b3c    00000010     drivers_cc13x0.aem3 : PINCC26XX.oem3 (.text:PINCC26XX_getPinCount)
                  00004b4c    00000010     dpl_cc13x0.aem3 : SwiP_tirtos.oem3 (.text:SwiP_Params_init)
                  00004b5c    0000000e     driverlib.lib : vims.obj (.text:NOROM_VIMSModeGet)
                  00004b6a    0000000e     rtsv7M3_T_le_eabi.lib : copy_decompress_none.obj (.text:decompress:none)
                  00004b78    0000000e     scif_framework.obj (.text:osalCtrlReadyIsr)
                  00004b86    0000000e     scif_framework.obj (.text:osalTaskAlertIsr)
                  00004b94    0000000e     scif.obj (.text:scifTaskResourceUninit)
                  00004ba2    0000000e     rom_sysbios.aem3 : rom_sysbios.obj (.text:ti_sysbios_family_arm_cc26xx_TimestampProvider_get32__E)
                  00004bb0    0000000c     driverlib.lib : cpu.obj (.text:NOROM_CPUcpsid)
                  00004bbc    0000000c                   : cpu.obj (.text:NOROM_CPUcpsie)
                  00004bc8    0000000c                   : osc.obj (.text:NOROM_OSC_HPOSCRelativeFrequencyOffsetToRFCoreFormatConvert)
                  00004bd4    0000000c     drivers_cc13x0.aem3 : PowerCC26XX.oem3 (.text:Power_getConstraintMask)
                  00004be0    0000000c                         : PowerCC26XX.oem3 (.text:Power_getDependencyCount)
                  00004bec    0000000c     rtsv7M3_T_le_eabi.lib : copy_zero_init.obj (.text:decompress:ZI)
                  00004bf8    0000000c     scif_framework.obj (.text:osalUnlockCtrlTaskNbl)
                  00004c04    0000000c     scif_framework.obj (.text:scifOsalLeaveCriticalSection)
                  00004c10    0000000c     main_tirtos.obj (.text:ti_sysbios_knl_Semaphore_handle)
                  00004c1c    0000000c     scif_framework.obj (.text:ti_sysbios_knl_Semaphore_handle)
                  00004c28    0000000c     rom_sysbios.aem3 : rom_sysbios.obj (.text:ti_sysbios_knl_Swi_getTrigger__E)
                  00004c34    0000000c     rom_pem3.oem3 (.text:xdc_runtime_Startup_reset__I)
                  00004c40    0000000c     rom_sysbios.aem3 : rom_sysbios.obj (.text:xdc_runtime_Startup_rtsDone__E)
                  00004c4c    0000000a     dpl_cc13x0.aem3 : ClockP_tirtos.oem3 (.text:ClockP_Params_init)
                  00004c56    0000000a     scif_framework.obj (.text:osalClearCtrlReadyInt)
                  00004c60    0000000a     scif_framework.obj (.text:osalClearTaskAlertInt)
                  00004c6a    0000000a     scif_framework.obj (.text:osalDisableCtrlReadyInt)
                  00004c74    0000000a     scif_framework.obj (.text:osalEnableCtrlReadyInt)
                  00004c7e    0000000a     scif_framework.obj (.text:scifOsalDisableTaskAlertInt)
                  00004c88    0000000a     scif_framework.obj (.text:scifOsalEnableTaskAlertInt)
                  00004c92    00000008     CC1350_LAUNCHXL_fxns.obj (.text:Board_initHook)
                  00004c9a    00000008     scif_framework.obj (.text:scifOsalEnterCriticalSection)
                  00004ca2    00000006     driverlib.lib : cpu.obj (.text:NOROM_CPUdelay)
                  00004ca8    00000004     dpl_cc13x0.aem3 : PowerCC26XX_tirtos.oem3 (.text:CPUwfi)
                  00004cac    00000004                     : ClockP_tirtos.oem3 (.text:ClockP_setTimeout)
                  00004cb0    00000004                     : ClockP_tirtos.oem3 (.text:ClockP_start)
                  00004cb4    00000004                     : ClockP_tirtos.oem3 (.text:ClockP_stop)
                  00004cb8    00000004                     : HwiP_tirtos.oem3 (.text:HwiP_disable)
                  00004cbc    00000004                     : SemaphoreP_tirtos.oem3 (.text:SemaphoreP_post)
                  00004cc0    00000004                     : SwiP_tirtos.oem3 (.text:SwiP_disable)
                  00004cc4    00000004                     : SwiP_tirtos.oem3 (.text:SwiP_getTrigger)
                  00004cc8    00000004                     : SwiP_tirtos.oem3 (.text:SwiP_or)
                  00004ccc    00000004     drivers_cc13x0.aem3 : PowerCC26XX.oem3 (.text:nopResourceHandler)
                  00004cd0    00000004     rom_sysbios.aem3 : rom_sysbios.obj (.text:ti_sysbios_family_arm_cc26xx_Timer_getCount64__E)
                  00004cd4    00000002     rom_pem3.oem3 (.text:ti_sysbios_rom_cortexm_cc13xx_CC13xx_badRomRevision__E)
                  00004cd6    00000002     rom_sysbios.aem3 : rom_sysbios.obj (.text:xdc_runtime_SysCallback_defaultAbort)
                  00004cd8    00000002                      : rom_sysbios.obj (.text:xdc_runtime_SysCallback_defaultExit)
                  00004cda    00000002     --HOLE-- [fill = 0]
                  00004cdc    00000008     (.tramp.ti_sysbios_family_arm_m3_Hwi_enableInterrupt__E.1)
                  00004ce4    00000008     (.tramp.ti_sysbios_family_arm_m3_Hwi_disableInterrupt__E.1)
                  00004cec    00000008     (.tramp.xdc_runtime_Startup_startMods__I.1)
                  00004cf4    00000008     (.tramp.ti_sysbios_knl_Clock_logTick__E.1)
                  00004cfc    00000008     (.tramp.ti_sysbios_knl_Task_Params__init__S.1)
                  00004d04    00000008     (.tramp.ti_sysbios_knl_Swi_post__E.1)
                  00004d0c    00000008     (.tramp.ti_sysbios_BIOS_RtsGateProxy_leave__E.1)
                  00004d14    00000008     (.tramp.ti_sysbios_knl_Swi_construct.1)
                  00004d1c    00000008     (.tramp.ti_sysbios_BIOS_RtsGateProxy_enter__E.1)
                  00004d24    00000008     (.tramp.ti_sysbios_knl_Task_restore__E.1)
                  00004d2c    00000008     (.tramp.ti_sysbios_family_arm_m3_Hwi_disableFxn__E.1)
                  00004d34    00000008     (.tramp.ti_sysbios_knl_Semaphore_post__E.1)
                  00004d3c    00000008     (.tramp.ti_sysbios_knl_Semaphore_Params__init__S.1)
                  00004d44    00000008     (.tramp.ti_sysbios_knl_Task_startup__E.1)
                  00004d4c    00000008     (.tramp.ti_sysbios_knl_Swi_startup__E.1)
                  00004d54    00000008     (.tramp.ti_sysbios_hal_Hwi_startup__E.1)
                  00004d5c    00000008     (.tramp.ti_sysbios_family_arm_cc26xx_Timer_startup__E.1)
                  00004d64    00000008     (.tramp.xdc_runtime_System_atexit__E.1)
                  00004d6c    00000008     (.tramp.ti_sysbios_BIOS_setThreadType__E.1)
                  00004d74    00000008     (.tramp.ti_sysbios_knl_Task_disable__E.1)
                  00004d7c    00000008     (.tramp.ti_sysbios_knl_Swi_disable__E.1)
                  00004d84    00000008     (.tramp.ti_sysbios_family_arm_m3_Hwi_construct.1)
                  00004d8c    00000008     (.tramp.ti_sysbios_knl_Swi_Params__init__S.1)
                  00004d94    00000008     (.tramp.ti_sysbios_family_arm_m3_Hwi_Params__init__S.1)
                  00004d9c    00000008     (.tramp.xdc_runtime_Text_ropeText__E.1)
                  00004da4    00000008     (.tramp.xdc_runtime_System_exit__E.1)
                  00004dac    00000008     (.tramp.ti_sysbios_knl_Clock_construct.1)
                  00004db4    00000008     (.tramp.ti_sysbios_knl_Clock_Params__init__S.1)
                  00004dbc    00000008     (.tramp.ti_sysbios_BIOS_start__E.1)
                  00004dc4    00000008     (.tramp.ti_sysbios_knl_Semaphore_construct.1)
                  00004dcc    00000008     (.tramp.ti_sysbios_knl_Task_construct.1)
                  00004dd4    00000008     (.tramp.ti_sysbios_knl_Clock_scheduleNextTick__E.1)
                  00004ddc    00000008     (.tramp.ti_sysbios_knl_Clock_walkQueueDynamic__E.1)
                  00004de4    00000008     (.tramp.ti_sysbios_knl_Clock_TimerProxy_getCurrentTick__E.1)
                  00004dec    00000008     (.tramp.xdc_runtime_System_abort__E.1)
                  00004df4    00000008     (.tramp.xdc_runtime_Gate_leaveSystem__E.1)
                  00004dfc    00000008     (.tramp.xdc_runtime_Gate_enterSystem__E.1)
                  00004e04    00000008     (.tramp.ti_sysbios_family_arm_m3_Hwi_restoreFxn__E.1)
                  00004e0c    00000008     (.tramp.ti_sysbios_knl_Clock_start__E.1)
                  00004e14    00000008     (.tramp.ti_sysbios_knl_Clock_setTimeout__E.1)
                  00004e1c    00000008     (.tramp.ti_sysbios_knl_Semaphore_pend__E.1)
                  00004e24    00000008     (.tramp.ti_sysbios_knl_Swi_restore__E.1)

.cinit     0    000003b8    00000268     
                  000003b8    0000012f     (.cinit..data.load) [load image, compression = lzss]
                  000004e7    00000028     (.cinit..data:ti_sysbios_family_arm_m3_Hwi_Module__state__V.load) [load image, compression = lzss]
                  0000050f    00000021     (.cinit..data:ti_sysbios_knl_Task_Module__state__V.load) [load image, compression = lzss]
                  00000530    0000001f     (.cinit..data:ti_sysbios_BIOS_Module__state__V.load) [load image, compression = lzss]
                  0000054f    0000001b     (.cinit..data:ti_sysbios_knl_Clock_Module__state__V.load) [load image, compression = lzss]
                  0000056a    00000010     (.cinit..data:ti_sysbios_knl_Swi_Module__state__V.load) [load image, compression = lzss]
                  0000057a    00000002     --HOLE-- [fill = 0]
                  0000057c    0000000c     (__TI_handler_table)
                  00000588    0000000b     (.cinit..data:ti_sysbios_family_arm_cc26xx_Timer_Module__state__V.load) [load image, compression = lzss]
                  00000593    0000000b     (.cinit..data:xdc_runtime_System_Module__state__V.load) [load image, compression = lzss]
                  0000059e    00000002     --HOLE-- [fill = 0]
                  000005a0    00000008     (.cinit..bss.load) [load image, compression = zero_init]
                  000005a8    00000008     (.cinit..data:xdc_runtime_Memory_Module__state__V.load) [load image, compression = lzss]
                  000005b0    00000007     (.cinit..data:ti_sysbios_family_arm_cc26xx_TimestampProvider_Module__state__V.load) [load image, compression = lzss]
                  000005b7    00000007     (.cinit..data:xdc_runtime_Startup_Module__state__V.load) [load image, compression = lzss]
                  000005be    00000002     --HOLE-- [fill = 0]
                  000005c0    00000060     (__TI_cinit_table)

.init_array 
*          0    00000000    00000000     UNINITIALIZED

.ccfg      0    0001ffa8    00000058     
                  0001ffa8    00000058     ccfg.obj (.ccfg:retain)

.bss       0    20000208    00001309     UNINITIALIZED
                  20000208    00000800     (.common:ti_sysbios_heaps_HeapMem_Instance_State_0_buf__A)
                  20000a08    00000400     (.common:myTaskStack)
                  20000e08    00000200     rom_pem3.oem3 (.bss:taskStackSection)
                  20001008    000001f4     (.common:xdc_runtime_SysMin_Module_State_0_outbuf__A)
                  200011fc    00000120     rtsv7M3_T_le_eabi.lib : trgmsg.obj (.bss:_CIOBUF_)
                  2000131c    000000c8     (.common:ti_sysbios_family_arm_m3_Hwi_dispatchTable)
                  200013e4    00000050     (.common:myTask)
                  20001434    00000030     scif_framework.obj (.bss:scifData)
                  20001464    0000001c     scif_framework.obj (.bss:hwiCtrlReady)
                  20001480    0000001c     scif_framework.obj (.bss:hwiTaskAlert)
                  2000149c    0000001c     scif_framework.obj (.bss:semCtrlReady)
                  200014b8    0000001c     main_tirtos.obj (.bss:semScTaskAlert)
                  200014d4    00000014     driverlib.lib : osc.obj (.bss:oscHfGlobals)
                  200014e8    0000000c     (.common:ledPinState)
                  200014f4    00000008     dpl_cc13x0.aem3 : PowerCC26XX_tirtos.oem3 (.bss:$O1$$)
                  200014fc    00000008     driverlib.lib : sys_ctrl.obj (.bss:powerQualGlobals)
                  20001504    00000008     (.common:parmbuf)
                  2000150c    00000004     (.common:ClockP_tickPeriod)
                  20001510    00000001     (.common:driverlib_release_0_52354)

.data      0    20001518    000004d4     UNINITIALIZED
                  20001518    00000114     drivers_cc13x0.aem3 : PINCC26XX.oem3 (.data:$O1$$)
                  2000162c    00000114                         : PowerCC26XX.oem3 (.data:PowerCC26XX_module)
                  20001740    00000080     rom_pem3.oem3 (.data:ti_sysbios_knl_Swi_Module_State_0_readyQ__A)
                  200017c0    0000004c     rom_pem3.oem3 (.data:ti_sysbios_knl_Task_Object__table__V)
                  2000180c    00000004     rtsv7M3_T_le_eabi.lib : stkdepth_vars.obj (.data)
                  20001810    00000048     rom_pem3.oem3 (.data:ti_sysbios_family_arm_cc26xx_Timer_Object__table__V)
                  20001858    00000038     rom_pem3.oem3 (.data:ti_sysbios_gates_GateMutex_Object__table__V)
                  20001890    00000030     rom_pem3.oem3 (.data:ti_sysbios_knl_Swi_Object__table__V)
                  200018c0    00000020     rom_pem3.oem3 (.data:ti_sysbios_knl_Clock_Object__table__V)
                  200018e0    00000020     rom_pem3.oem3 (.data:ti_sysbios_knl_Task_Module_State_0_readyQ__A)
                  20001900    00000020     rom_pem3.oem3 (.data:xdc_runtime_Error_IgnoreBlock)
                  20001920    00000018     rom_pem3.oem3 (.data:ti_sysbios_family_arm_m3_Hwi_Object__table__V)
                  20001938    00000018     rom_pem3.oem3 (.data:ti_sysbios_heaps_HeapMem_Object__table__V)
                  20001950    0000000c     main_tirtos.obj (.data:pLedPinTable)
                  2000195c    0000000c     scif_framework.obj (.data)
                  20001968    0000000c     rom_pem3.oem3 (.data:xdc_runtime_SysMin_Module__state__V)
                  20001974    00000008     rtsv7M3_T_le_eabi.lib : _lock.obj (.data:$O1$$)
                  2000197c    00000008     rom_pem3.oem3 (.data:ti_sysbios_family_arm_m3_Hwi_Module__root__V)
                  20001984    00000008     rom_pem3.oem3 (.data:ti_sysbios_gates_GateHwi_Module__root__V)
                  2000198c    00000008     rom_pem3.oem3 (.data:ti_sysbios_gates_GateMutex_Module__root__V)
                  20001994    00000008     rom_pem3.oem3 (.data:ti_sysbios_hal_Hwi_Module__root__V)
                  2000199c    00000008     rom_pem3.oem3 (.data:ti_sysbios_heaps_HeapMem_Module__root__V)
                  200019a4    00000008     rom_pem3.oem3 (.data:ti_sysbios_knl_Clock_Module__root__V)
                  200019ac    00000008     rom_pem3.oem3 (.data:ti_sysbios_knl_Mailbox_Module__root__V)
                  200019b4    00000008     rom_pem3.oem3 (.data:ti_sysbios_knl_Queue_Module__root__V)
                  200019bc    00000008     rom_pem3.oem3 (.data:ti_sysbios_knl_Semaphore_Module__root__V)
                  200019c4    00000008     rom_pem3.oem3 (.data:ti_sysbios_knl_Swi_Module__root__V)
                  200019cc    00000008     rom_pem3.oem3 (.data:ti_sysbios_knl_Task_Module__root__V)
                  200019d4    00000008     rom_pem3.oem3 (.data:xdc_runtime_System_Module_State_0_atexitHandlers__A)
                  200019dc    00000004     rom_pem3.oem3 (.data:ti_sysbios_family_arm_m3_Hwi_Module_State_0_excContext__A)
                  200019e0    00000004     rom_pem3.oem3 (.data:ti_sysbios_family_arm_m3_Hwi_Module_State_0_excStack__A)
                  200019e4    00000004     rom_pem3.oem3 (.data:ti_sysbios_knl_Task_Module_State_0_idleTask__A)
                  200019e8    00000002     rom_pem3.oem3 (.data:ti_sysbios_family_arm_m3_Hwi_Module_State_0_excActive__A)
                  200019ea    00000002     rom_pem3.oem3 (.data:xdc_runtime_Error_Module__state__V)

.stack     0    20004d00    00000300     UNINITIALIZED
                  20004d00    00000300     --HOLE--

.resetVecs 
*          0    00000000    0000003c     
                  00000000    0000003c     rom_pem3.oem3 (.resetVecs)

.const:ti_sysbios_knl_Task_Object__PARAMS__C 
*          0    00001000    0000003c     
                  00001000    0000003c     rom_pem3.oem3 (.const:ti_sysbios_knl_Task_Object__PARAMS__C)

.const:ti_sysbios_knl_Mailbox_Object__PARAMS__C 
*          0    0000103c    00000034     
                  0000103c    00000034     rom_pem3.oem3 (.const:ti_sysbios_knl_Mailbox_Object__PARAMS__C)

.const:ti_sysbios_family_arm_m3_Hwi_Object__PARAMS__C 
*          0    00001070    00000030     
                  00001070    00000030     rom_pem3.oem3 (.const:ti_sysbios_family_arm_m3_Hwi_Object__PARAMS__C)

.const:ti_sysbios_hal_Hwi_Object__PARAMS__C 
*          0    000010a0    0000002c     
                  000010a0    0000002c     rom_pem3.oem3 (.const:ti_sysbios_hal_Hwi_Object__PARAMS__C)

.const:ti_sysbios_heaps_HeapMem_Module__FXNS__C 
*          0    000010cc    00000028     
                  000010cc    00000028     rom_pem3.oem3 (.const:ti_sysbios_heaps_HeapMem_Module__FXNS__C)

.const:ti_sysbios_knl_Swi_Object__PARAMS__C 
*          0    000010f4    00000028     
                  000010f4    00000028     rom_pem3.oem3 (.const:ti_sysbios_knl_Swi_Object__PARAMS__C)

.const:ti_sysbios_gates_GateHwi_Module__FXNS__C 
*          0    0000111c    00000024     
                  0000111c    00000024     rom_pem3.oem3 (.const:ti_sysbios_gates_GateHwi_Module__FXNS__C)

.const:ti_sysbios_gates_GateMutex_Module__FXNS__C 
*          0    00001140    00000024     
                  00001140    00000024     rom_pem3.oem3 (.const:ti_sysbios_gates_GateMutex_Module__FXNS__C)

.const:ti_sysbios_heaps_HeapMem_Object__PARAMS__C 
*          0    00001164    00000024     
                  00001164    00000024     rom_pem3.oem3 (.const:ti_sysbios_heaps_HeapMem_Object__PARAMS__C)

.const:ti_sysbios_knl_Clock_Object__PARAMS__C 
*          0    00001188    00000024     
                  00001188    00000024     rom_pem3.oem3 (.const:ti_sysbios_knl_Clock_Object__PARAMS__C)

.const:ti_sysbios_knl_Semaphore_Object__PARAMS__C 
*          0    000011ac    00000024     
                  000011ac    00000024     rom_pem3.oem3 (.const:ti_sysbios_knl_Semaphore_Object__PARAMS__C)

.const:ti_sysbios_family_arm_m3_Hwi_Object__DESC__C 
*          0    000011d0    00000020     
                  000011d0    00000020     rom_pem3.oem3 (.const:ti_sysbios_family_arm_m3_Hwi_Object__DESC__C)

.const:ti_sysbios_gates_GateHwi_Object__DESC__C 
*          0    000011f0    00000020     
                  000011f0    00000020     rom_pem3.oem3 (.const:ti_sysbios_gates_GateHwi_Object__DESC__C)

.const:ti_sysbios_gates_GateMutex_Object__DESC__C 
*          0    00001210    00000020     
                  00001210    00000020     rom_pem3.oem3 (.const:ti_sysbios_gates_GateMutex_Object__DESC__C)

.const:ti_sysbios_hal_Hwi_Object__DESC__C 
*          0    00001230    00000020     
                  00001230    00000020     rom_pem3.oem3 (.const:ti_sysbios_hal_Hwi_Object__DESC__C)

.const:ti_sysbios_heaps_HeapMem_Object__DESC__C 
*          0    00001250    00000020     
                  00001250    00000020     rom_pem3.oem3 (.const:ti_sysbios_heaps_HeapMem_Object__DESC__C)

.const:ti_sysbios_knl_Clock_Object__DESC__C 
*          0    00001270    00000020     
                  00001270    00000020     rom_pem3.oem3 (.const:ti_sysbios_knl_Clock_Object__DESC__C)

.const:ti_sysbios_knl_Mailbox_Object__DESC__C 
*          0    00001290    00000020     
                  00001290    00000020     rom_pem3.oem3 (.const:ti_sysbios_knl_Mailbox_Object__DESC__C)

.const:ti_sysbios_knl_Queue_Object__DESC__C 
*          0    000012b0    00000020     
                  000012b0    00000020     rom_pem3.oem3 (.const:ti_sysbios_knl_Queue_Object__DESC__C)

.const:ti_sysbios_knl_Semaphore_Object__DESC__C 
*          0    000012d0    00000020     
                  000012d0    00000020     rom_pem3.oem3 (.const:ti_sysbios_knl_Semaphore_Object__DESC__C)

.const:ti_sysbios_knl_Swi_Object__DESC__C 
*          0    000012f0    00000020     
                  000012f0    00000020     rom_pem3.oem3 (.const:ti_sysbios_knl_Swi_Object__DESC__C)

.const:ti_sysbios_knl_Task_Object__DESC__C 
*          0    00001310    00000020     
                  00001310    00000020     rom_pem3.oem3 (.const:ti_sysbios_knl_Task_Object__DESC__C)

.const:ti_sysbios_gates_GateHwi_Object__PARAMS__C 
*          0    00001330    00000018     
                  00001330    00000018     rom_pem3.oem3 (.const:ti_sysbios_gates_GateHwi_Object__PARAMS__C)

.const:ti_sysbios_gates_GateMutex_Object__PARAMS__C 
*          0    00001348    00000018     
                  00001348    00000018     rom_pem3.oem3 (.const:ti_sysbios_gates_GateMutex_Object__PARAMS__C)

.const:ti_sysbios_knl_Queue_Object__PARAMS__C 
*          0    00001360    00000018     
                  00001360    00000018     rom_pem3.oem3 (.const:ti_sysbios_knl_Queue_Object__PARAMS__C)

.const:ti_sysbios_knl_Idle_funcList__C 
*          0    00001378    00000008     
                  00001378    00000008     rom_pem3.oem3 (.const:ti_sysbios_knl_Idle_funcList__C)

.const:ti_sysbios_family_arm_cc26xx_Timer_startupNeeded__C 
*          0    00001384    00000004     
                  00001384    00000004     rom_pem3.oem3 (.const:ti_sysbios_family_arm_cc26xx_Timer_startupNeeded__C)

.const:ti_sysbios_family_arm_m3_Hwi_E_alreadyDefined__C 
*          0    00001388    00000004     
                  00001388    00000004     rom_pem3.oem3 (.const:ti_sysbios_family_arm_m3_Hwi_E_alreadyDefined__C)

.const:ti_sysbios_family_arm_m3_Hwi_E_hwiLimitExceeded__C 
*          0    0000138c    00000004     
                  0000138c    00000004     rom_pem3.oem3 (.const:ti_sysbios_family_arm_m3_Hwi_E_hwiLimitExceeded__C)

.const:ti_sysbios_family_arm_m3_Hwi_NUM_INTERRUPTS__C 
*          0    00001390    00000004     
                  00001390    00000004     rom_pem3.oem3 (.const:ti_sysbios_family_arm_m3_Hwi_NUM_INTERRUPTS__C)

.const:ti_sysbios_family_arm_m3_Hwi_Object__count__C 
*          0    00001394    00000004     
                  00001394    00000004     rom_pem3.oem3 (.const:ti_sysbios_family_arm_m3_Hwi_Object__count__C)

.const:ti_sysbios_family_arm_m3_Hwi_Object__table__C 
*          0    00001398    00000004     
                  00001398    00000004     rom_pem3.oem3 (.const:ti_sysbios_family_arm_m3_Hwi_Object__table__C)

.const:ti_sysbios_family_arm_m3_Hwi_ccr__C 
*          0    0000139c    00000004     
                  0000139c    00000004     rom_pem3.oem3 (.const:ti_sysbios_family_arm_m3_Hwi_ccr__C)

.const:ti_sysbios_family_arm_m3_Hwi_excHandlerFunc__C 
*          0    000013a0    00000004     
                  000013a0    00000004     rom_pem3.oem3 (.const:ti_sysbios_family_arm_m3_Hwi_excHandlerFunc__C)

.const:ti_sysbios_family_arm_m3_Hwi_nullIsrFunc__C 
*          0    000013a4    00000004     
                  000013a4    00000004     rom_pem3.oem3 (.const:ti_sysbios_family_arm_m3_Hwi_nullIsrFunc__C)

.const:ti_sysbios_family_arm_m3_Hwi_numSparseInterrupts__C 
*          0    000013a8    00000004     
                  000013a8    00000004     rom_pem3.oem3 (.const:ti_sysbios_family_arm_m3_Hwi_numSparseInterrupts__C)

.const:ti_sysbios_family_arm_m3_Hwi_priGroup__C 
*          0    000013ac    00000004     
                  000013ac    00000004     rom_pem3.oem3 (.const:ti_sysbios_family_arm_m3_Hwi_priGroup__C)

.const:ti_sysbios_family_arm_m3_TaskSupport_stackAlignment__C 
*          0    000013b0    00000004     
                  000013b0    00000004     rom_pem3.oem3 (.const:ti_sysbios_family_arm_m3_TaskSupport_stackAlignment__C)

.const:ti_sysbios_heaps_HeapMem_E_memory__C 
*          0    000013b4    00000004     
                  000013b4    00000004     rom_pem3.oem3 (.const:ti_sysbios_heaps_HeapMem_E_memory__C)

.const:ti_sysbios_heaps_HeapMem_Module__gateObj__C 
*          0    000013b8    00000004     
                  000013b8    00000004     rom_pem3.oem3 (.const:ti_sysbios_heaps_HeapMem_Module__gateObj__C)

.const:ti_sysbios_heaps_HeapMem_Object__count__C 
*          0    000013bc    00000004     
                  000013bc    00000004     rom_pem3.oem3 (.const:ti_sysbios_heaps_HeapMem_Object__count__C)

.const:ti_sysbios_heaps_HeapMem_Object__table__C 
*          0    000013c0    00000004     
                  000013c0    00000004     rom_pem3.oem3 (.const:ti_sysbios_heaps_HeapMem_Object__table__C)

.const:ti_sysbios_heaps_HeapMem_reqAlign__C 
*          0    000013c4    00000004     
                  000013c4    00000004     rom_pem3.oem3 (.const:ti_sysbios_heaps_HeapMem_reqAlign__C)

.const:ti_sysbios_knl_Clock_serviceMargin__C 
*          0    000013c8    00000004     
                  000013c8    00000004     rom_pem3.oem3 (.const:ti_sysbios_knl_Clock_serviceMargin__C)

.const:ti_sysbios_knl_Mailbox_Object__count__C 
*          0    000013cc    00000004     
                  000013cc    00000004     rom_pem3.oem3 (.const:ti_sysbios_knl_Mailbox_Object__count__C)

.const:ti_sysbios_knl_Mailbox_Object__table__C 
*          0    000013d0    00000004     
                  000013d0    00000004     rom_pem3.oem3 (.const:ti_sysbios_knl_Mailbox_Object__table__C)

.const:ti_sysbios_knl_Mailbox_maxTypeAlign__C 
*          0    000013d4    00000004     
                  000013d4    00000004     rom_pem3.oem3 (.const:ti_sysbios_knl_Mailbox_maxTypeAlign__C)

.const:ti_sysbios_knl_Queue_Object__count__C 
*          0    000013d8    00000004     
                  000013d8    00000004     rom_pem3.oem3 (.const:ti_sysbios_knl_Queue_Object__count__C)

.const:ti_sysbios_knl_Queue_Object__table__C 
*          0    000013dc    00000004     
                  000013dc    00000004     rom_pem3.oem3 (.const:ti_sysbios_knl_Queue_Object__table__C)

.const:ti_sysbios_knl_Swi_Object__count__C 
*          0    000013e0    00000004     
                  000013e0    00000004     rom_pem3.oem3 (.const:ti_sysbios_knl_Swi_Object__count__C)

.const:ti_sysbios_knl_Swi_Object__table__C 
*          0    000013e4    00000004     
                  000013e4    00000004     rom_pem3.oem3 (.const:ti_sysbios_knl_Swi_Object__table__C)

.const:ti_sysbios_knl_Swi_numPriorities__C 
*          0    000013e8    00000004     
                  000013e8    00000004     rom_pem3.oem3 (.const:ti_sysbios_knl_Swi_numPriorities__C)

.const:ti_sysbios_knl_Task_Object__count__C 
*          0    000013ec    00000004     
                  000013ec    00000004     rom_pem3.oem3 (.const:ti_sysbios_knl_Task_Object__count__C)

.const:ti_sysbios_knl_Task_Object__table__C 
*          0    000013f0    00000004     
                  000013f0    00000004     rom_pem3.oem3 (.const:ti_sysbios_knl_Task_Object__table__C)

.const:ti_sysbios_knl_Task_allBlockedFunc__C 
*          0    000013f4    00000004     
                  000013f4    00000004     rom_pem3.oem3 (.const:ti_sysbios_knl_Task_allBlockedFunc__C)

.const:ti_sysbios_knl_Task_defaultStackHeap__C 
*          0    000013f8    00000004     
                  000013f8    00000004     rom_pem3.oem3 (.const:ti_sysbios_knl_Task_defaultStackHeap__C)

.const:ti_sysbios_knl_Task_defaultStackSize__C 
*          0    000013fc    00000004     
                  000013fc    00000004     rom_pem3.oem3 (.const:ti_sysbios_knl_Task_defaultStackSize__C)

.const:ti_sysbios_knl_Task_numConstructedTasks__C 
*          0    00001400    00000004     
                  00001400    00000004     rom_pem3.oem3 (.const:ti_sysbios_knl_Task_numConstructedTasks__C)

.const:ti_sysbios_family_arm_cc26xx_Timer_Module__id__C 
*          0    00001406    00000002     
                  00001406    00000002     rom_pem3.oem3 (.const:ti_sysbios_family_arm_cc26xx_Timer_Module__id__C)

.const:ti_sysbios_family_arm_cc26xx_TimestampProvider_useClockTimer__C 
*          0    00001408    00000002     
                  00001408    00000002     rom_pem3.oem3 (.const:ti_sysbios_family_arm_cc26xx_TimestampProvider_useClockTimer__C)

.const:ti_sysbios_family_arm_m3_Hwi_Module__id__C 
*          0    0000140a    00000002     
                  0000140a    00000002     rom_pem3.oem3 (.const:ti_sysbios_family_arm_m3_Hwi_Module__id__C)

.const:ti_sysbios_gates_GateHwi_Module__id__C 
*          0    0000140c    00000002     
                  0000140c    00000002     rom_pem3.oem3 (.const:ti_sysbios_gates_GateHwi_Module__id__C)

.const:ti_sysbios_gates_GateMutex_Module__id__C 
*          0    0000140e    00000002     
                  0000140e    00000002     rom_pem3.oem3 (.const:ti_sysbios_gates_GateMutex_Module__id__C)

.const:ti_sysbios_heaps_HeapMem_Module__id__C 
*          0    00001410    00000002     
                  00001410    00000002     rom_pem3.oem3 (.const:ti_sysbios_heaps_HeapMem_Module__id__C)

.const:ti_sysbios_knl_Task_initStackFlag__C 
*          0    00001412    00000002     
                  00001412    00000002     rom_pem3.oem3 (.const:ti_sysbios_knl_Task_initStackFlag__C)

.const:ti_sysbios_knl_Clock_tickMode__C 
*          0    00001414    00000001     
                  00001414    00000001     rom_pem3.oem3 (.const:ti_sysbios_knl_Clock_tickMode__C)

.const:xdc_runtime_Startup_firstFxns__C 
*          0    00001418    00000008     
                  00001418    00000008     rom_pem3.oem3 (.const:xdc_runtime_Startup_firstFxns__C)

.const:xdc_runtime_Startup_lastFxns__C 
*          0    00001420    00000008     
                  00001420    00000008     rom_pem3.oem3 (.const:xdc_runtime_Startup_lastFxns__C)

.const:xdc_runtime_Assert_E_assertFailed__C 
*          0    00001428    00000004     
                  00001428    00000004     rom_pem3.oem3 (.const:xdc_runtime_Assert_E_assertFailed__C)

.const:xdc_runtime_Error_E_memory__C 
*          0    0000142c    00000004     
                  0000142c    00000004     rom_pem3.oem3 (.const:xdc_runtime_Error_E_memory__C)

.const:xdc_runtime_Error_policyFxn__C 
*          0    00001430    00000004     
                  00001430    00000004     rom_pem3.oem3 (.const:xdc_runtime_Error_policyFxn__C)

.const:xdc_runtime_IGateProvider_Interface__BASE__C 
*          0    00001434    00000004     
                  00001434    00000004     rom_pem3.oem3 (.const:xdc_runtime_IGateProvider_Interface__BASE__C)

.const:xdc_runtime_IHeap_Interface__BASE__C 
*          0    00001438    00000004     
                  00001438    00000004     rom_pem3.oem3 (.const:xdc_runtime_IHeap_Interface__BASE__C)

.const:xdc_runtime_IModule_Interface__BASE__C 
*          0    0000143c    00000004     
                  0000143c    00000004     rom_pem3.oem3 (.const:xdc_runtime_IModule_Interface__BASE__C)

.const:xdc_runtime_Main_Module__diagsEnabled__C 
*          0    00001440    00000004     
                  00001440    00000004     rom_pem3.oem3 (.const:xdc_runtime_Main_Module__diagsEnabled__C)

.const:xdc_runtime_Main_Module__diagsIncluded__C 
*          0    00001444    00000004     
                  00001444    00000004     rom_pem3.oem3 (.const:xdc_runtime_Main_Module__diagsIncluded__C)

.const:xdc_runtime_Main_Module__diagsMask__C 
*          0    00001448    00000004     
                  00001448    00000004     rom_pem3.oem3 (.const:xdc_runtime_Main_Module__diagsMask__C)

.const:xdc_runtime_Memory_defaultHeapInstance__C 
*          0    0000144c    00000004     
                  0000144c    00000004     rom_pem3.oem3 (.const:xdc_runtime_Memory_defaultHeapInstance__C)

.const:xdc_runtime_Startup_execImpl__C 
*          0    00001450    00000004     
                  00001450    00000004     rom_pem3.oem3 (.const:xdc_runtime_Startup_execImpl__C)

.const:xdc_runtime_Startup_maxPasses__C 
*          0    00001454    00000004     
                  00001454    00000004     rom_pem3.oem3 (.const:xdc_runtime_Startup_maxPasses__C)

.const:xdc_runtime_Startup_sfxnRts__C 
*          0    00001458    00000004     
                  00001458    00000004     rom_pem3.oem3 (.const:xdc_runtime_Startup_sfxnRts__C)

.const:xdc_runtime_Startup_sfxnTab__C 
*          0    0000145c    00000004     
                  0000145c    00000004     rom_pem3.oem3 (.const:xdc_runtime_Startup_sfxnTab__C)

.const:xdc_runtime_Startup_startModsFxn__C 
*          0    00001460    00000004     
                  00001460    00000004     rom_pem3.oem3 (.const:xdc_runtime_Startup_startModsFxn__C)

.const:xdc_runtime_SysCallback_abortFxn__C 
*          0    00001464    00000004     
                  00001464    00000004     rom_pem3.oem3 (.const:xdc_runtime_SysCallback_abortFxn__C)

.const:xdc_runtime_SysCallback_exitFxn__C 
*          0    00001468    00000004     
                  00001468    00000004     rom_pem3.oem3 (.const:xdc_runtime_SysCallback_exitFxn__C)

.const:xdc_runtime_System_abortFxn__C 
*          0    0000146c    00000004     
                  0000146c    00000004     rom_pem3.oem3 (.const:xdc_runtime_System_abortFxn__C)

.const:xdc_runtime_System_exitFxn__C 
*          0    00001470    00000004     
                  00001470    00000004     rom_pem3.oem3 (.const:xdc_runtime_System_exitFxn__C)

.const:xdc_runtime_System_maxAtexitHandlers__C 
*          0    00001474    00000004     
                  00001474    00000004     rom_pem3.oem3 (.const:xdc_runtime_System_maxAtexitHandlers__C)

.const:xdc_runtime_Text_charTab__C 
*          0    00001478    00000004     
                  00001478    00000004     rom_pem3.oem3 (.const:xdc_runtime_Text_charTab__C)

.const:xdc_runtime_Text_nameEmpty__C 
*          0    0000147c    00000004     
                  0000147c    00000004     rom_pem3.oem3 (.const:xdc_runtime_Text_nameEmpty__C)

.const:xdc_runtime_Text_nameStatic__C 
*          0    00001480    00000004     
                  00001480    00000004     rom_pem3.oem3 (.const:xdc_runtime_Text_nameStatic__C)

.const:xdc_runtime_Text_nameUnknown__C 
*          0    00001484    00000004     
                  00001484    00000004     rom_pem3.oem3 (.const:xdc_runtime_Text_nameUnknown__C)

.const:xdc_runtime_Main_Module__id__C 
*          0    00001488    00000002     
                  00001488    00000002     rom_pem3.oem3 (.const:xdc_runtime_Main_Module__id__C)

.const:xdc_runtime_Memory_Module__id__C 
*          0    0000148a    00000002     
                  0000148a    00000002     rom_pem3.oem3 (.const:xdc_runtime_Memory_Module__id__C)

.const:xdc_runtime_Text_charCnt__C 
*          0    0000148c    00000002     
                  0000148c    00000002     rom_pem3.oem3 (.const:xdc_runtime_Text_charCnt__C)

.const:xdc_runtime_Text_isLoaded__C 
*          0    0000148e    00000002     
                  0000148e    00000002     rom_pem3.oem3 (.const:xdc_runtime_Text_isLoaded__C)

.const:xdc_runtime_Error_policy__C 
*          0    00001490    00000001     
                  00001490    00000001     rom_pem3.oem3 (.const:xdc_runtime_Error_policy__C)

.const:ti_sysbios_rom_ROM_AONRTCChannelEnable 
*          0    00001494    00000004     
                  00001494    00000004     rom_pem3.oem3 (.const:ti_sysbios_rom_ROM_AONRTCChannelEnable)

.const:ti_sysbios_rom_ROM_AONRTCCompareValueSet 
*          0    00001498    00000004     
                  00001498    00000004     rom_pem3.oem3 (.const:ti_sysbios_rom_ROM_AONRTCCompareValueSet)

.const:ti_sysbios_rom_ROM_AONRTCCurrentCompareValueGet 
*          0    0000149c    00000004     
                  0000149c    00000004     rom_pem3.oem3 (.const:ti_sysbios_rom_ROM_AONRTCCurrentCompareValueGet)

.const:ti_sysbios_rom_ROM_AONRTCEventClear 
*          0    000014a0    00000004     
                  000014a0    00000004     rom_pem3.oem3 (.const:ti_sysbios_rom_ROM_AONRTCEventClear)

.const:ti_sysbios_rom_ROM_ti_sysbios_family_arm_cc26xx_Timer_getCount64__E 
*          0    000014a4    00000004     
                  000014a4    00000004     rom_pem3.oem3 (.const:ti_sysbios_rom_ROM_ti_sysbios_family_arm_cc26xx_Timer_getCount64__E)

.const:ti_sysbios_rom_ROM_ti_sysbios_family_arm_cc26xx_Timer_getCurrentTick__E 
*          0    000014a8    00000004     
                  000014a8    00000004     rom_pem3.oem3 (.const:ti_sysbios_rom_ROM_ti_sysbios_family_arm_cc26xx_Timer_getCurrentTick__E)

.const:ti_sysbios_rom_ROM_ti_sysbios_family_arm_cc26xx_Timer_getMaxTicks__E 
*          0    000014ac    00000004     
                  000014ac    00000004     rom_pem3.oem3 (.const:ti_sysbios_rom_ROM_ti_sysbios_family_arm_cc26xx_Timer_getMaxTicks__E)

.const:ti_sysbios_rom_ROM_ti_sysbios_family_arm_cc26xx_Timer_initDevice__I 
*          0    000014b0    00000004     
                  000014b0    00000004     rom_pem3.oem3 (.const:ti_sysbios_rom_ROM_ti_sysbios_family_arm_cc26xx_Timer_initDevice__I)

.const:ti_sysbios_rom_ROM_ti_sysbios_family_arm_cc26xx_Timer_setNextTick__E 
*          0    000014b4    00000004     
                  000014b4    00000004     rom_pem3.oem3 (.const:ti_sysbios_rom_ROM_ti_sysbios_family_arm_cc26xx_Timer_setNextTick__E)

.const:ti_sysbios_rom_ROM_ti_sysbios_family_arm_cc26xx_Timer_setThreshold__I 
*          0    000014b8    00000004     
                  000014b8    00000004     rom_pem3.oem3 (.const:ti_sysbios_rom_ROM_ti_sysbios_family_arm_cc26xx_Timer_setThreshold__I)

.const:ti_sysbios_rom_ROM_ti_sysbios_family_arm_cc26xx_Timer_start__E 
*          0    000014bc    00000004     
                  000014bc    00000004     rom_pem3.oem3 (.const:ti_sysbios_rom_ROM_ti_sysbios_family_arm_cc26xx_Timer_start__E)

.const:ti_sysbios_rom_ROM_ti_sysbios_family_arm_cc26xx_TimestampProvider_get32__E 
*          0    000014c0    00000004     
                  000014c0    00000004     rom_pem3.oem3 (.const:ti_sysbios_rom_ROM_ti_sysbios_family_arm_cc26xx_TimestampProvider_get32__E)

.const:ti_sysbios_rom_ROM_xdc_runtime_Startup_getState__I 
*          0    000014c4    00000004     
                  000014c4    00000004     rom_pem3.oem3 (.const:ti_sysbios_rom_ROM_xdc_runtime_Startup_getState__I)

.const:ti_sysbios_rom_ROM_xdc_runtime_System_SupportProxy_abort__E 
*          0    000014c8    00000004     
                  000014c8    00000004     rom_pem3.oem3 (.const:ti_sysbios_rom_ROM_xdc_runtime_System_SupportProxy_abort__E)

.const:ti_sysbios_rom_ROM_xdc_runtime_System_SupportProxy_exit__E 
*          0    000014cc    00000004     
                  000014cc    00000004     rom_pem3.oem3 (.const:ti_sysbios_rom_ROM_xdc_runtime_System_SupportProxy_exit__E)

.const:ti_sysbios_gates_GateMutex_Instance_State_sem__O 
*          0    000014d0    00000004     
                  000014d0    00000004     rom_pem3.oem3 (.const:ti_sysbios_gates_GateMutex_Instance_State_sem__O)

.const:ti_sysbios_knl_Clock_Module_State_clockQ__O 
*          0    000014d4    00000004     
                  000014d4    00000004     rom_pem3.oem3 (.const:ti_sysbios_knl_Clock_Module_State_clockQ__O)

.const:ti_sysbios_knl_Mailbox_Instance_State_dataQue__O 
*          0    000014d8    00000004     
                  000014d8    00000004     rom_pem3.oem3 (.const:ti_sysbios_knl_Mailbox_Instance_State_dataQue__O)

.const:ti_sysbios_knl_Mailbox_Instance_State_dataSem__O 
*          0    000014dc    00000004     
                  000014dc    00000004     rom_pem3.oem3 (.const:ti_sysbios_knl_Mailbox_Instance_State_dataSem__O)

.const:ti_sysbios_knl_Mailbox_Instance_State_freeQue__O 
*          0    000014e0    00000004     
                  000014e0    00000004     rom_pem3.oem3 (.const:ti_sysbios_knl_Mailbox_Instance_State_freeQue__O)

.const:ti_sysbios_knl_Mailbox_Instance_State_freeSem__O 
*          0    000014e4    00000004     
                  000014e4    00000004     rom_pem3.oem3 (.const:ti_sysbios_knl_Mailbox_Instance_State_freeSem__O)

.const:ti_sysbios_knl_Semaphore_Instance_State_pendQ__O 
*          0    000014e8    00000004     
                  000014e8    00000004     rom_pem3.oem3 (.const:ti_sysbios_knl_Semaphore_Instance_State_pendQ__O)

.const:ti_sysbios_knl_Task_Module_State_inactiveQ__O 
*          0    000014ec    00000004     
                  000014ec    00000004     rom_pem3.oem3 (.const:ti_sysbios_knl_Task_Module_State_inactiveQ__O)

.vecs      0    20000000    000000c8     NOLOAD SECTION
                  20000000    000000c8     rom_pem3.oem3 (.vecs)

.data:ti_sysbios_knl_Task_Module__state__V 
*          0    20000100    00000044     UNINITIALIZED
                  20000100    00000044     rom_pem3.oem3 (.data:ti_sysbios_knl_Task_Module__state__V)

.data:ti_sysbios_family_arm_m3_Hwi_Module__state__V 
*          0    20000144    00000034     UNINITIALIZED
                  20000144    00000034     rom_pem3.oem3 (.data:ti_sysbios_family_arm_m3_Hwi_Module__state__V)

.data:ti_sysbios_knl_Clock_Module__state__V 
*          0    20000178    0000002c     UNINITIALIZED
                  20000178    0000002c     rom_pem3.oem3 (.data:ti_sysbios_knl_Clock_Module__state__V)

.data:ti_sysbios_BIOS_Module__state__V 
*          0    200001a4    00000024     UNINITIALIZED
                  200001a4    00000024     rom_pem3.oem3 (.data:ti_sysbios_BIOS_Module__state__V)

.data:ti_sysbios_knl_Swi_Module__state__V 
*          0    200001c8    0000001c     UNINITIALIZED
                  200001c8    0000001c     rom_pem3.oem3 (.data:ti_sysbios_knl_Swi_Module__state__V)

.data:ti_sysbios_family_arm_cc26xx_Timer_Module__state__V 
*          0    200001e4    00000008     UNINITIALIZED
                  200001e4    00000008     rom_pem3.oem3 (.data:ti_sysbios_family_arm_cc26xx_Timer_Module__state__V)

.data:ti_sysbios_family_arm_cc26xx_TimestampProvider_Module__state__V 
*          0    200001ec    00000004     UNINITIALIZED
                  200001ec    00000004     rom_pem3.oem3 (.data:ti_sysbios_family_arm_cc26xx_TimestampProvider_Module__state__V)

.data:xdc_runtime_Startup_Module__state__V 
*          0    200001f0    00000008     UNINITIALIZED
                  200001f0    00000008     rom_pem3.oem3 (.data:xdc_runtime_Startup_Module__state__V)

.data:xdc_runtime_System_Module__state__V 
*          0    200001f8    00000008     UNINITIALIZED
                  200001f8    00000008     rom_pem3.oem3 (.data:xdc_runtime_System_Module__state__V)

.data:xdc_runtime_Memory_Module__state__V 
*          0    20000200    00000004     UNINITIALIZED
                  20000200    00000004     rom_pem3.oem3 (.data:xdc_runtime_Memory_Module__state__V)

.bootVecs 
*          0    00000000    00000008     DSECT
                  00000000    00000008     boot.aem3 : boot.oem3 (.bootVecs)

xdc.meta   0    00000000    00000101     COPY SECTION
                  00000000    00000101     rom_pem3.oem3 (xdc.meta)

xdc.noload 
*          0    00000000    00000000     COPY SECTION

MODULE SUMMARY

       Module                            code    ro data   rw data
       ------                            ----    -------   -------
    .\
       main_tirtos.obj                   478     0         1156   
       scif_framework.obj                1382    0         144    
       scif.obj                          164     514       0      
    +--+---------------------------------+-------+---------+---------+
       Total:                            2024    514       1300   
                                                                  
    .\sdk_files__do_not_edit\
       CC1350_LAUNCHXL_fxns.obj          280     28        0      
       CC1350_LAUNCHXL.obj               28      84        0      
       ccfg.obj                          0       88        0      
    +--+---------------------------------+-------+---------+---------+
       Total:                            308     200       0      
                                                                  
    C:\Users\Einstein\MyWorkspaceCC1350\adc_window_monitor_launchpad_tirtos\Debug\configPkg\package\cfg\
       rom_pem3.oem3                     472     1501      4368   
    +--+---------------------------------+-------+---------+---------+
       Total:                            472     1501      4368   
                                                                  
    C:/ti/simplelink_cc13x0_sdk_2_30_00_20/kernel/tirtos/packages/ti/dpl/lib/dpl_cc13x0.aem3
       PowerCC26XX_tirtos.oem3           296     0         8      
       ClockP_tirtos.oem3                102     0         4      
       SwiP_tirtos.oem3                  88      0         0      
       HwiP_tirtos.oem3                  82      0         0      
       SemaphoreP_tirtos.oem3            66      0         0      
    +--+---------------------------------+-------+---------+---------+
       Total:                            634     0         12     
                                                                  
    C:/ti/simplelink_cc13x0_sdk_2_30_00_20/source/ti/devices/cc13x0/driverlib/bin/ccs/driverlib.lib
       setup_rom.obj                     1456    0         0      
       sys_ctrl.obj                      760     0         8      
       osc.obj                           388     0         20     
       setup.obj                         364     0         0      
       chipinfo.obj                      182     0         0      
       aux_adc.obj                       164     0         0      
       aon_rtc.obj                       44      0         0      
       ddi.obj                           44      0         0      
       adi.obj                           40      0         0      
       aon_batmon.obj                    40      0         0      
       cpu.obj                           30      0         0      
       vims.obj                          14      0         0      
       driverlib_release.obj             0       0         1      
    +--+---------------------------------+-------+---------+---------+
       Total:                            3526    0         29     
                                                                  
    C:/ti/simplelink_cc13x0_sdk_2_30_00_20/source/ti/drivers/lib/drivers_cc13x0.aem3
       PowerCC26XX.oem3                  1972    76        276    
       PINCC26XX.oem3                    1174    0         276    
       PowerCC26XX_calibrateRCOSC.oem3   1380    0         0      
    +--+---------------------------------+-------+---------+---------+
       Total:                            4526    76        552    
                                                                  
    C:\Users\Einstein\MyWorkspaceCC1350\adc_window_monitor_launchpad_tirtos\src\sysbios\rom_sysbios.aem3
       rom_sysbios.obj                   1352    0         0      
    +--+---------------------------------+-------+---------+---------+
       Total:                            1352    0         0      
                                                                  
    C:\ti\ccsv7\tools\compiler\ti-cgt-arm_16.9.8.LTS\lib\rtsv7M3_T_le_eabi.lib
       ull_div_t2.obj                    500     0         0      
       trgmsg.obj                        104     0         288    
       memcpy_t2.obj                     156     0         0      
       memset_t2.obj                     122     0         0      
       copy_decompress_lzss.obj          104     0         0      
       hostwrite.obj                     88      0         0      
       cpy_tbl.obj                       76      0         0      
       _lock.obj                         20      0         8      
       args_main.obj                     24      0         0      
       ll_mul_t2.obj                     24      0         0      
       copy_decompress_none.obj          14      0         0      
       copy_zero_init.obj                12      0         0      
       hostopen.obj                      0       0         8      
       stkdepth_vars.obj                 0       0         4      
    +--+---------------------------------+-------+---------+---------+
       Total:                            1244    0         308    
                                                                  
    C:\ti\simplelink_cc13x0_sdk_2_30_00_20\kernel\tirtos\packages\ti\targets\arm\rtsarm\lib\auto_init.aem3
       auto_init.oem3                    160     0         0      
    +--+---------------------------------+-------+---------+---------+
       Total:                            160     0         0      
                                                                  
    C:\ti\simplelink_cc13x0_sdk_2_30_00_20\kernel\tirtos\packages\ti\targets\arm\rtsarm\lib\boot.aem3
       boot.oem3                         68      0         0      
    +--+---------------------------------+-------+---------+---------+
       Total:                            68      0         0      
                                                                  
       Stack:                            0       0         768    
       Linker Generated:                 336     610       0      
    +--+---------------------------------+-------+---------+---------+
       Grand Total:                      14650   2901      7337   


LINKER GENERATED COPY TABLES

__TI_cinit_table @ 000005c0 records: 12, size/record: 8, table size: 96
	.data: load addr=000003b8, load size=0000012f bytes, run addr=20001518, run size=000004d4 bytes, compression=lzss
	.data:ti_sysbios_family_arm_m3_Hwi_Module__state__V: load addr=000004e7, load size=00000028 bytes, run addr=20000144, run size=00000034 bytes, compression=lzss
	.data:ti_sysbios_knl_Task_Module__state__V: load addr=0000050f, load size=00000021 bytes, run addr=20000100, run size=00000044 bytes, compression=lzss
	.data:ti_sysbios_BIOS_Module__state__V: load addr=00000530, load size=0000001f bytes, run addr=200001a4, run size=00000024 bytes, compression=lzss
	.data:ti_sysbios_knl_Clock_Module__state__V: load addr=0000054f, load size=0000001b bytes, run addr=20000178, run size=0000002c bytes, compression=lzss
	.data:ti_sysbios_knl_Swi_Module__state__V: load addr=0000056a, load size=00000010 bytes, run addr=200001c8, run size=0000001c bytes, compression=lzss
	.data:ti_sysbios_family_arm_cc26xx_Timer_Module__state__V: load addr=00000588, load size=0000000b bytes, run addr=200001e4, run size=00000008 bytes, compression=lzss
	.data:xdc_runtime_System_Module__state__V: load addr=00000593, load size=0000000b bytes, run addr=200001f8, run size=00000008 bytes, compression=lzss
	.bss: load addr=000005a0, load size=00000008 bytes, run addr=20000208, run size=00001309 bytes, compression=zero_init
	.data:xdc_runtime_Memory_Module__state__V: load addr=000005a8, load size=00000008 bytes, run addr=20000200, run size=00000004 bytes, compression=lzss
	.data:ti_sysbios_family_arm_cc26xx_TimestampProvider_Module__state__V: load addr=000005b0, load size=00000007 bytes, run addr=200001ec, run size=00000004 bytes, compression=lzss
	.data:xdc_runtime_Startup_Module__state__V: load addr=000005b7, load size=00000007 bytes, run addr=200001f0, run size=00000008 bytes, compression=lzss


LINKER GENERATED HANDLER TABLE

__TI_handler_table @ 0000057c records: 3, size/record: 4, table size: 12
	index: 0, handler: __TI_decompress_lzss
	index: 1, handler: __TI_decompress_none
	index: 2, handler: __TI_zero_init


FAR CALL TRAMPOLINES

callee name               trampoline name
   callee addr  tramp addr   call addr  call info
--------------  -----------  ---------  ----------------
ti_sysbios_family_arm_m3_Hwi_enableInterrupt__E  $Tramp$TT$L$PI$$ti_sysbios_family_arm_m3_Hwi_enableInterrupt__E
   1001b295     00004cdc     00004c78   scif_framework.obj (.text:osalEnableCtrlReadyInt)
                             00004c8c   scif_framework.obj (.text:scifOsalEnableTaskAlertInt)
ti_sysbios_family_arm_m3_Hwi_disableInterrupt__E  $Tramp$TT$L$PI$$ti_sysbios_family_arm_m3_Hwi_disableInterrupt__E
   1001b251     00004ce4     00004c6e   scif_framework.obj (.text:osalDisableCtrlReadyInt)
                             00004c82   scif_framework.obj (.text:scifOsalDisableTaskAlertInt)
xdc_runtime_Startup_startMods__I  $Tramp$TT$L$PI$$xdc_runtime_Startup_startMods__I
   1001c309     00004cec     00004b04   rom_pem3.oem3 (.text:xdc_runtime_Startup_exec__I)
ti_sysbios_knl_Clock_logTick__E  $Tramp$TT$L$PI$$ti_sysbios_knl_Clock_logTick__E
   1001be63     00004cf4     00004ab2   rom_pem3.oem3 (.text:ti_sysbios_knl_Clock_doTick__I)
ti_sysbios_knl_Task_Params__init__S  $Tramp$TT$L$PI$$ti_sysbios_knl_Task_Params__init__S
   1001c1d5     00004cfc     00004a08   main_tirtos.obj (.text:ti_sysbios_knl_Task_Params_init)
ti_sysbios_knl_Swi_post__E  $Tramp$TT$L$PI$$ti_sysbios_knl_Swi_post__E
   1001b31d     00004d04     00004940   rom_sysbios.aem3 : rom_sysbios.obj (.text:ti_sysbios_knl_Swi_or__E)
                             00004aba   rom_pem3.oem3 (.text:ti_sysbios_knl_Clock_doTick__I)
ti_sysbios_BIOS_RtsGateProxy_leave__E  $Tramp$TT$L$PI$$ti_sysbios_BIOS_RtsGateProxy_leave__E
   1001c249     00004d0c     00004922   rom_pem3.oem3 (.text:ti_sysbios_BIOS_rtsUnlock__I)
ti_sysbios_knl_Swi_construct  $Tramp$TT$L$PI$$ti_sysbios_knl_Swi_construct
   1001b085     00004d14     0000477a   rom_sysbios.aem3 : rom_sysbios.obj (.text:ti_sysbios_knl_Swi_construct2__E)
ti_sysbios_BIOS_RtsGateProxy_enter__E  $Tramp$TT$L$PI$$ti_sysbios_BIOS_RtsGateProxy_enter__E
   1001c245     00004d1c     000045de   rom_pem3.oem3 (.text:ti_sysbios_BIOS_rtsLock__I)
ti_sysbios_knl_Task_restore__E  $Tramp$TT$L$PI$$ti_sysbios_knl_Task_restore__E
   1001ba45     00004d24     000045ca   dpl_cc13x0.aem3 : PowerCC26XX_tirtos.oem3 (.text:PowerCC26XX_schedulerRestore)
ti_sysbios_family_arm_m3_Hwi_disableFxn__E  $Tramp$TT$L$PI$$ti_sysbios_family_arm_m3_Hwi_disableFxn__E
   1001c145     00004d2c     000043fe   scif_framework.obj (.text:osalLockCtrlTaskNbl)
                             00004c9c   scif_framework.obj (.text:scifOsalEnterCriticalSection)
                             00004cb8   dpl_cc13x0.aem3 : HwiP_tirtos.oem3 (.text:HwiP_disable)
ti_sysbios_knl_Semaphore_post__E  $Tramp$TT$L$PI$$ti_sysbios_knl_Semaphore_post__E
   1001ac41     00004d34     000043de   scif_framework.obj (.text:osalIndicateCtrlReady)
                             00004a7c   main_tirtos.obj (.text:scTaskAlertCallback)
                             00004cbc   dpl_cc13x0.aem3 : SemaphoreP_tirtos.oem3 (.text:SemaphoreP_post)
ti_sysbios_knl_Semaphore_Params__init__S  $Tramp$TT$L$PI$$ti_sysbios_knl_Semaphore_Params__init__S
   1001c1bd     00004d3c     000043b6   dpl_cc13x0.aem3 : SemaphoreP_tirtos.oem3 (.text:SemaphoreP_constructBinary)
                             000049dc   main_tirtos.obj (.text:ti_sysbios_knl_Semaphore_Params_init)
                             000049f2   scif_framework.obj (.text:ti_sysbios_knl_Semaphore_Params_init)
ti_sysbios_knl_Task_startup__E  $Tramp$TT$L$PI$$ti_sysbios_knl_Task_startup__E
   1001c305     00004d44     000042e4   rom_pem3.oem3 (.text:ti_sysbios_BIOS_startFunc__I)
ti_sysbios_knl_Swi_startup__E  $Tramp$TT$L$PI$$ti_sysbios_knl_Swi_startup__E
   1001c239     00004d4c     000042e0   rom_pem3.oem3 (.text:ti_sysbios_BIOS_startFunc__I)
ti_sysbios_hal_Hwi_startup__E  $Tramp$TT$L$PI$$ti_sysbios_hal_Hwi_startup__E
   1001c289     00004d54     000042dc   rom_pem3.oem3 (.text:ti_sysbios_BIOS_startFunc__I)
ti_sysbios_family_arm_cc26xx_Timer_startup__E  $Tramp$TT$L$PI$$ti_sysbios_family_arm_cc26xx_Timer_startup__E
   1001b791     00004d5c     000042d8   rom_pem3.oem3 (.text:ti_sysbios_BIOS_startFunc__I)
xdc_runtime_System_atexit__E  $Tramp$TT$L$PI$$xdc_runtime_System_atexit__E
   1001c67d     00004d64     000042d0   rom_pem3.oem3 (.text:ti_sysbios_BIOS_startFunc__I)
ti_sysbios_BIOS_setThreadType__E  $Tramp$TT$L$PI$$ti_sysbios_BIOS_setThreadType__E
   1001c041     00004d6c     0000429c   rom_pem3.oem3 (.text:ti_sysbios_BIOS_atExitFunc__I)
                             0000499a   rom_pem3.oem3 (.text:ti_sysbios_BIOS_errorRaiseHook__I)
                             000049aa   rom_pem3.oem3 (.text:ti_sysbios_BIOS_exitFunc__I)
ti_sysbios_knl_Task_disable__E  $Tramp$TT$L$PI$$ti_sysbios_knl_Task_disable__E
   1001c0f1     00004d74     00004296   rom_pem3.oem3 (.text:ti_sysbios_BIOS_atExitFunc__I)
                             0000459a   dpl_cc13x0.aem3 : PowerCC26XX_tirtos.oem3 (.text:PowerCC26XX_schedulerDisable)
ti_sysbios_knl_Swi_disable__E  $Tramp$TT$L$PI$$ti_sysbios_knl_Swi_disable__E
   1001c0d1     00004d7c     00004292   rom_pem3.oem3 (.text:ti_sysbios_BIOS_atExitFunc__I)
                             00004cc0   dpl_cc13x0.aem3 : SwiP_tirtos.oem3 (.text:SwiP_disable)
ti_sysbios_family_arm_m3_Hwi_construct  $Tramp$TT$L$PI$$ti_sysbios_family_arm_m3_Hwi_construct
   1001af29     00004d84     00003f36   rom_sysbios.aem3 : rom_sysbios.obj (.text:ti_sysbios_family_arm_m3_Hwi_construct2__E)
                             0000424e   scif_framework.obj (.text:osalRegisterCtrlReadyInt)
                             0000427e   scif_framework.obj (.text:osalRegisterTaskAlertInt)
ti_sysbios_knl_Swi_Params__init__S  $Tramp$TT$L$PI$$ti_sysbios_knl_Swi_Params__init__S
   1001c1c9     00004d8c     00003ebe   dpl_cc13x0.aem3 : SwiP_tirtos.oem3 (.text:SwiP_construct)
ti_sysbios_family_arm_m3_Hwi_Params__init__S  $Tramp$TT$L$PI$$ti_sysbios_family_arm_m3_Hwi_Params__init__S
   1001c139     00004d94     00003e08   dpl_cc13x0.aem3 : HwiP_tirtos.oem3 (.text:HwiP_construct)
                             000049c6   scif_framework.obj (.text:ti_sysbios_family_arm_m3_Hwi_Params_init)
xdc_runtime_Text_ropeText__E  $Tramp$TT$L$PI$$xdc_runtime_Text_ropeText__E
   1001c7e5     00004d9c     00003c8e   rom_sysbios.aem3 : rom_sysbios.obj (.text:xdc_runtime_Error_setX__E)
xdc_runtime_System_exit__E  $Tramp$TT$L$PI$$xdc_runtime_System_exit__E
   1001c7cd     00004da4     00003c08   boot.aem3 : boot.oem3 (.text)
                             000049b0   rom_pem3.oem3 (.text:ti_sysbios_BIOS_exitFunc__I)
ti_sysbios_knl_Clock_construct  $Tramp$TT$L$PI$$ti_sysbios_knl_Clock_construct
   1001b575     00004dac     00003ada   dpl_cc13x0.aem3 : ClockP_tirtos.oem3 (.text:ClockP_construct)
ti_sysbios_knl_Clock_Params__init__S  $Tramp$TT$L$PI$$ti_sysbios_knl_Clock_Params__init__S
   1001c181     00004db4     00003ac0   dpl_cc13x0.aem3 : ClockP_tirtos.oem3 (.text:ClockP_construct)
ti_sysbios_BIOS_start__E  $Tramp$TT$L$PI$$ti_sysbios_BIOS_start__E
   1001c051     00004dbc     00003868   main_tirtos.obj (.text:main)
ti_sysbios_knl_Semaphore_construct  $Tramp$TT$L$PI$$ti_sysbios_knl_Semaphore_construct
   1001b705     00004dc4     00003864   main_tirtos.obj (.text:main)
                             00004128   scif_framework.obj (.text:scifOsalInit)
                             000043c6   dpl_cc13x0.aem3 : SemaphoreP_tirtos.oem3 (.text:SemaphoreP_constructBinary)
ti_sysbios_knl_Task_construct  $Tramp$TT$L$PI$$ti_sysbios_knl_Task_construct
   1001b125     00004dcc     0000384e   main_tirtos.obj (.text:main)
ti_sysbios_knl_Clock_scheduleNextTick__E  $Tramp$TT$L$PI$$ti_sysbios_knl_Clock_scheduleNextTick__E
   1001beb9     00004dd4     0000313a   rom_sysbios.aem3 : rom_sysbios.obj (.text:ti_sysbios_knl_Clock_workFuncDynamic__E)
ti_sysbios_knl_Clock_walkQueueDynamic__E  $Tramp$TT$L$PI$$ti_sysbios_knl_Clock_walkQueueDynamic__E
   1001a809     00004ddc     00003102   rom_sysbios.aem3 : rom_sysbios.obj (.text:ti_sysbios_knl_Clock_workFuncDynamic__E)
                             0000311e                    : rom_sysbios.obj (.text:ti_sysbios_knl_Clock_workFuncDynamic__E)
ti_sysbios_knl_Clock_TimerProxy_getCurrentTick__E  $Tramp$TT$L$PI$$ti_sysbios_knl_Clock_TimerProxy_getCurrentTick__E
   1001c091     00004de4     000030d0   rom_sysbios.aem3 : rom_sysbios.obj (.text:ti_sysbios_knl_Clock_workFuncDynamic__E)
                             0000443a                    : rom_sysbios.obj (.text:ti_sysbios_knl_Clock_getTicksUntilInterrupt__E)
xdc_runtime_System_abort__E  $Tramp$TT$L$PI$$xdc_runtime_System_abort__E
   1001c745     00004dec     00002c0a   rom_sysbios.aem3 : rom_sysbios.obj (.text:xdc_runtime_Error_policyDefault__E)
xdc_runtime_Gate_leaveSystem__E  $Tramp$TT$L$PI$$xdc_runtime_Gate_leaveSystem__E
   1001c875     00004df4     00002bea   rom_sysbios.aem3 : rom_sysbios.obj (.text:xdc_runtime_Error_policyDefault__E)
                             00002c18                    : rom_sysbios.obj (.text:xdc_runtime_Error_policyDefault__E)
                             00003cd8                    : rom_sysbios.obj (.text:xdc_runtime_SysMin_flush__E)
                             00003ff0                    : rom_sysbios.obj (.text:xdc_runtime_SysMin_putch__E)
xdc_runtime_Gate_enterSystem__E  $Tramp$TT$L$PI$$xdc_runtime_Gate_enterSystem__E
   1001c881     00004dfc     00002bde   rom_sysbios.aem3 : rom_sysbios.obj (.text:xdc_runtime_Error_policyDefault__E)
                             00002c0e                    : rom_sysbios.obj (.text:xdc_runtime_Error_policyDefault__E)
                             00003caa                    : rom_sysbios.obj (.text:xdc_runtime_SysMin_flush__E)
                             00003fd2                    : rom_sysbios.obj (.text:xdc_runtime_SysMin_putch__E)
ti_sysbios_family_arm_m3_Hwi_restoreFxn__E  $Tramp$TT$L$PI$$ti_sysbios_family_arm_m3_Hwi_restoreFxn__E
   1001c215     00004e04     00002950   drivers_cc13x0.aem3 : PINCC26XX.oem3 (.text:PINCC26XX_setIoCfg)
                             00002ae2                       : PowerCC26XX.oem3 (.text:Power_releaseDependency)
                             00002b98                       : PowerCC26XX.oem3 (.text:Power_setDependency)
                             00002e32                       : PowerCC26XX.oem3 (.text:switchXOSCHFclockFunc)
                             0000337e                       : PowerCC26XX_calibrateRCOSC.oem3 (.text:PowerCC26XX_initiateCalibration)
                             0000408e                       : PowerCC26XX.oem3 (.text:Power_releaseConstraint)
                             00004224                       : PowerCC26XX.oem3 (.text:Power_setConstraint)
                             0000440c   scif_framework.obj (.text:osalLockCtrlTaskNbl)
                             0000441c   scif_framework.obj (.text:osalLockCtrlTaskNbl)
                             00004c0a   scif_framework.obj (.text:scifOsalLeaveCriticalSection)
ti_sysbios_knl_Clock_start__E  $Tramp$TT$L$PI$$ti_sysbios_knl_Clock_start__E
   1001bfdf     00004e0c     00002734   dpl_cc13x0.aem3 : PowerCC26XX_tirtos.oem3 (.text:PowerCC26XX_standbyPolicy)
                             0000462a   rom_sysbios.aem3 : rom_sysbios.obj (.text:ti_sysbios_knl_Clock_stop__E)
                             00004cb0   dpl_cc13x0.aem3 : ClockP_tirtos.oem3 (.text:ClockP_start)
ti_sysbios_knl_Clock_setTimeout__E  $Tramp$TT$L$PI$$ti_sysbios_knl_Clock_setTimeout__E
   1001c2bd     00004e14     0000272e   dpl_cc13x0.aem3 : PowerCC26XX_tirtos.oem3 (.text:PowerCC26XX_standbyPolicy)
                             00004cac                   : ClockP_tirtos.oem3 (.text:ClockP_setTimeout)
ti_sysbios_knl_Semaphore_pend__E  $Tramp$TT$L$PI$$ti_sysbios_knl_Semaphore_pend__E
   1001a001     00004e1c     0000221a   main_tirtos.obj (.text:taskFxn)
                             00004ac6   dpl_cc13x0.aem3 : SemaphoreP_tirtos.oem3 (.text:SemaphoreP_pend)
ti_sysbios_knl_Swi_restore__E  $Tramp$TT$L$PI$$ti_sysbios_knl_Swi_restore__E
   1001b5dd     00004e24     00001be8   drivers_cc13x0.aem3 : PowerCC26XX.oem3 (.text:Power_sleep)

[42 trampolines]
[82 trampoline calls]


GLOBAL SYMBOLS: SORTED ALPHABETICALLY BY Name 

address   name                                                                      
-------   ----                                                                      
0000027c  BoardGpioInitTable                                                        
00004c93  Board_initHook                                                            
00003663  C$$IO$$                                                                   
00004695  CC1350_LAUNCHXL_initGeneral                                               
000031e5  CC1350_LAUNCHXL_sendExtFlashByte                                          
00003ced  CC1350_LAUNCHXL_shutDownExtFlash                                          
00003b45  CC1350_LAUNCHXL_wakeUpExtFlash                                            
00004c4d  ClockP_Params_init                                                        
00003aa5  ClockP_construct                                                          
1001b6d5  ClockP_getSystemTicks                                                     
00004cad  ClockP_setTimeout                                                         
00004cb1  ClockP_start                                                              
00004cb5  ClockP_stop                                                               
2000150c  ClockP_tickPeriod                                                         
000039f5  HOSTwrite                                                                 
00004b0d  HwiP_Params_init                                                          
00003ded  HwiP_construct                                                            
00004cb9  HwiP_disable                                                              
1001c215  HwiP_restore                                                              
00004455  NOROM_AONBatMonTemperatureGetDegC                                         
00004a11  NOROM_AONRTCCurrent64BitValueGet                                          
000047ad  NOROM_AONRTCCurrentCompareValueGet                                        
00004511  NOROM_AUXADCAdjustValueForGainAndOffset                                   
000046b1  NOROM_AUXADCGetAdjustmentGain                                             
000047c5  NOROM_AUXADCGetAdjustmentOffset                                           
000047dd  NOROM_AUXADCMicrovoltsToValue                                             
00004533  NOROM_AUXADCUnadjustValueForGainAndOffset                                 
00004a25  NOROM_AUXADCValueToMicrovolts                                             
00004bb1  NOROM_CPUcpsid                                                            
00004bbd  NOROM_CPUcpsie                                                            
00004ca3  NOROM_CPUdelay                                                            
000046cd  NOROM_ChipInfo_GetChipFamily                                              
000041a1  NOROM_ChipInfo_GetChipType                                                
00003e2d  NOROM_ChipInfo_GetHwRevision                                              
000047f5  NOROM_ChipInfo_GetPackageType                                             
00004321  NOROM_DDI32RegWrite                                                       
0000434d  NOROM_OSCClockSourceGet                                                   
00003765  NOROM_OSCClockSourceSet                                                   
0000369d  NOROM_OSCHF_AttemptToSwitchToXosc                                         
00004001  NOROM_OSCHF_SwitchToRcOscTurnOffXosc                                      
0000480d  NOROM_OSCHF_TurnOnXosc                                                    
00003e69  NOROM_OSC_HPOSCRelativeFrequencyOffsetGet                                 
00004bc9  NOROM_OSC_HPOSCRelativeFrequencyOffsetToRFCoreFormatConvert               
00002d09  NOROM_SetupAfterColdResetWakeupFromShutDownCfg1                           
000025ed  NOROM_SetupAfterColdResetWakeupFromShutDownCfg2                           
000022b5  NOROM_SetupAfterColdResetWakeupFromShutDownCfg3                           
00004825  NOROM_SetupGetTrimForAdcShModeEn                                          
0000483d  NOROM_SetupGetTrimForAdcShVbufEn                                          
000033c5  NOROM_SetupGetTrimForAmpcompCtrl                                          
00004855  NOROM_SetupGetTrimForAmpcompTh1                                           
000046e9  NOROM_SetupGetTrimForAmpcompTh2                                           
0000342d  NOROM_SetupGetTrimForAnabypassValue1                                      
0000486d  NOROM_SetupGetTrimForDblrLoopFilterResetVoltage                           
00004379  NOROM_SetupGetTrimForRadcExtCfg                                           
00004885  NOROM_SetupGetTrimForRcOscLfIBiasTrim                                     
00004705  NOROM_SetupGetTrimForRcOscLfRtuneCtuneTrim                                
00004579  NOROM_SetupGetTrimForXoscHfCtl                                            
00004b1d  NOROM_SetupGetTrimForXoscHfFastStart                                      
00004b2d  NOROM_SetupGetTrimForXoscHfIbiastherm                                     
0000489d  NOROM_SetupGetTrimForXoscLfRegulatorAndCmirrwrRatio                       
000041d1  NOROM_SetupSetAonRtcSubSecInc                                             
00003af5  NOROM_SetupSetCacheModeAccordingToCcfgSetting                             
000032e5  NOROM_SetupSetVddrLevel                                                   
00002c61  NOROM_SetupTrimDevice                                                     
00003495  NOROM_SysCtrlAdjustRechargeAfterPowerDown                                 
000017fd  NOROM_SysCtrlSetRechargeBeforePowerDown                                   
000034fd  NOROM_SysCtrl_DCDC_VoltageConditionalControl                              
00004975  NOROM_ThisLibraryIsFor_CC13x0_HwRev20AndLater_HaltIfViolated              
00004b5d  NOROM_VIMSModeGet                                                         
00004b3d  PINCC26XX_getPinCount                                                     
0000037c  PINCC26XX_hwAttrs                                                         
00004659  PIN_close                                                                 
00001e3d  PIN_init                                                                  
00002f8d  PIN_open                                                                  
0000399d  PIN_remove                                                                
00004035  PIN_setConfig                                                             
00003f59  PIN_setOutputValue                                                        
000038e5  PowerCC26XX_RCOSC_clockFunc                                               
000014f1  PowerCC26XX_auxISR                                                        
000037c5  PowerCC26XX_calibrate                                                     
00000308  PowerCC26XX_config                                                        
00001ff5  PowerCC26XX_doCalibrate                                                   
00003359  PowerCC26XX_initiateCalibration                                           
2000162c  PowerCC26XX_module                                                        
00004599  PowerCC26XX_schedulerDisable                                              
000045b9  PowerCC26XX_schedulerRestore                                              
000026dd  PowerCC26XX_standbyPolicy                                                 
200014f8  PowerCC26XX_swiKey                                                        
200014f4  PowerCC26XX_taskKey                                                       
00004bd5  Power_getConstraintMask                                                   
00004be1  Power_getDependencyCount                                                  
00004677  Power_getTransitionLatency                                                
000048b5  Power_idleFunc                                                            
000023d9  Power_init                                                                
00004069  Power_releaseConstraint                                                   
00002a41  Power_releaseDependency                                                   
00004201  Power_setConstraint                                                       
00002afd  Power_setDependency                                                       
00001a25  Power_sleep                                                               
00003bdd  ResetISR                                                                  
UNDEFED   SHT$$INIT_ARRAY$$Base                                                     
UNDEFED   SHT$$INIT_ARRAY$$Limit                                                    
0000447d  SafeHapiVoid                                                              
000043a5  SemaphoreP_constructBinary                                                
00004ac5  SemaphoreP_pend                                                           
00004cbd  SemaphoreP_post                                                           
00004b4d  SwiP_Params_init                                                          
00003ea5  SwiP_construct                                                            
00004cc1  SwiP_disable                                                              
00004cc5  SwiP_getTrigger                                                           
00004cc9  SwiP_or                                                                   
1001b5dd  SwiP_restore                                                              
00000000  __ASM__                                                                   
200011fc  __CIOBUF_                                                                 
0000007b  __ISA__                                                                   
0000008d  __PLAT__                                                                  
20005000  __STACK_END                                                               
00000300  __STACK_SIZE                                                              
20005000  __STACK_TOP                                                               
000000b4  __TARG__                                                                  
000005c0  __TI_CINIT_Base                                                           
00000620  __TI_CINIT_Limit                                                          
0000057c  __TI_Handler_Table_Base                                                   
00000588  __TI_Handler_Table_Limit                                                  
00002e51  __TI_auto_init                                                            
00003565  __TI_decompress_lzss                                                      
00004b6b  __TI_decompress_none                                                      
ffffffff  __TI_pprof_out_hndl                                                       
ffffffff  __TI_prof_data_size                                                       
ffffffff  __TI_prof_data_start                                                      
00003667  __TI_readmsg                                                              
00000000  __TI_static_base__                                                        
00003635  __TI_writemsg                                                             
00004bed  __TI_zero_init                                                            
000000d9  __TRDR__                                                                  
000048e5  __aeabi_lmul                                                              
00003269  __aeabi_memclr                                                            
00003269  __aeabi_memclr4                                                           
00003269  __aeabi_memclr8                                                           
00002ef1  __aeabi_memcpy                                                            
00002ef1  __aeabi_memcpy4                                                           
00002ef1  __aeabi_memcpy8                                                           
0000326b  __aeabi_memset                                                            
0000326b  __aeabi_memset4                                                           
0000326b  __aeabi_memset8                                                           
00001c49  __aeabi_uldivmod                                                          
ffffffff  __binit__                                                                 
ffffffff  __c_args__                                                                
0001ffa8  __ccfg                                                                    
20004d00  __stack                                                                   
000048cd  _args_main                                                                
00003bdd  _c_int00                                                                  
20001974  _lock                                                                     
00004a6f  _nop                                                                      
00004a67  _register_lock                                                            
00004a61  _register_unlock                                                          
20001978  _unlock                                                                   
ffffffff  binit                                                                     
00003b91  copy_in                                                                   
20001510  driverlib_release_0_52354                                                 
200014e8  ledPinState                                                               
00003825  main                                                                      
2000180c  main_func_sp                                                              
00002ef1  memcpy                                                                    
00003271  memset                                                                    
200013e4  myTask                                                                    
20000a08  myTaskStack                                                               
20001950  pLedPinTable                                                              
20001504  parmbuf                                                                   
200015b0  pinHandleTable                                                            
2000151c  pinLowerBound                                                             
20001518  pinUpperBound                                                             
000001e6  resourceDB                                                                
00003e2b  scCtrlReadyCallback                                                       
00004a75  scTaskAlertCallback                                                       
000040d1  scifAckAlertEvents                                                        
000048fd  scifClearAlertIntSource                                                   
000002b0  scifDriverSetup                                                           
000024ed  scifInit                                                                  
00003025  scifInitIo                                                                
00004c7f  scifOsalDisableTaskAlertInt                                               
00004c89  scifOsalEnableTaskAlertInt                                                
00004c9b  scifOsalEnterCriticalSection                                              
00004105  scifOsalInit                                                              
00004c05  scifOsalLeaveCriticalSection                                              
00004a89  scifOsalRegisterCtrlReadyCallback                                         
00004a9d  scifOsalRegisterTaskAlertCallback                                         
00003885  scifReinitIo                                                              
00003c21  scifStartRtcTicks                                                         
00003d6d  scifStartRtcTicksNow                                                      
00004ad7  scifStartTasksNbl                                                         
00003a4d  scifUninitIo                                                              
00002185  taskFxn                                                                   
200001a4  ti_sysbios_BIOS_Module__state__V                                          
1001bc25  ti_sysbios_BIOS_RtsGateProxy_Handle__label__S                             
1001bc25  ti_sysbios_BIOS_RtsGateProxy_Handle__label__S__mangled__                  
1001bab5  ti_sysbios_BIOS_RtsGateProxy_Object__delete__S                            
1001c175  ti_sysbios_BIOS_RtsGateProxy_Params__init__S                              
1001c175  ti_sysbios_BIOS_RtsGateProxy_Params__init__S__mangled__                   
1001c245  ti_sysbios_BIOS_RtsGateProxy_enter__E                                     
1001c249  ti_sysbios_BIOS_RtsGateProxy_leave__E                                     
1001c271  ti_sysbios_BIOS_RtsGateProxy_query__E                                     
1001c271  ti_sysbios_BIOS_RtsGateProxy_query__E__mangled__                          
00004291  ti_sysbios_BIOS_atExitFunc__I                                             
0000498b  ti_sysbios_BIOS_errorRaiseHook__I                                         
000049a1  ti_sysbios_BIOS_exitFunc__I                                               
1001c031  ti_sysbios_BIOS_exit__E                                                   
1001bff5  ti_sysbios_BIOS_getCpuFreq__E                                             
0000419f  ti_sysbios_BIOS_linkedWithIncorrectBootLibrary__E                         
00004577  ti_sysbios_BIOS_nullFunc__I                                               
000044a5  ti_sysbios_BIOS_registerRTSLock__I                                        
000044c9  ti_sysbios_BIOS_removeRTSLock__I                                          
000045d9  ti_sysbios_BIOS_rtsLock__I                                                
00004915  ti_sysbios_BIOS_rtsUnlock__I                                              
1001c041  ti_sysbios_BIOS_setThreadType__E                                          
000042c1  ti_sysbios_BIOS_startFunc__I                                              
1001c051  ti_sysbios_BIOS_start__E                                                  
00002c61  ti_sysbios_family_arm_cc26xx_Boot_trimDevice                              
00001406  ti_sysbios_family_arm_cc26xx_Timer_Module__id__C                          
1001bb45  ti_sysbios_family_arm_cc26xx_Timer_Module__startupDone__S                 
200001e4  ti_sysbios_family_arm_cc26xx_Timer_Module__state__V                       
1001ba6d  ti_sysbios_family_arm_cc26xx_Timer_Module_startup__E                      
20001810  ti_sysbios_family_arm_cc26xx_Timer_Object__table__V                       
000045f9  ti_sysbios_family_arm_cc26xx_Timer_dynamicStub__E                         
0000038c  ti_sysbios_family_arm_cc26xx_Timer_funcHookCH1__C                         
00000390  ti_sysbios_family_arm_cc26xx_Timer_funcHookCH2__C                         
00004cd1  ti_sysbios_family_arm_cc26xx_Timer_getCount64__E                          
00003f91  ti_sysbios_family_arm_cc26xx_Timer_getCurrentTick__E                      
1001c24d  ti_sysbios_family_arm_cc26xx_Timer_getExpiredTicks__E                     
000044ed  ti_sysbios_family_arm_cc26xx_Timer_getMaxTicks__E                         
1001c251  ti_sysbios_family_arm_cc26xx_Timer_getPeriod__E                           
00004139  ti_sysbios_family_arm_cc26xx_Timer_initDevice__I                          
1001a465  ti_sysbios_family_arm_cc26xx_Timer_periodicStub__E                        
1001b765  ti_sysbios_family_arm_cc26xx_Timer_postInit__I                            
0000416d  ti_sysbios_family_arm_cc26xx_Timer_setNextTick__E                         
1001c255  ti_sysbios_family_arm_cc26xx_Timer_setPeriod__E                           
00003dad  ti_sysbios_family_arm_cc26xx_Timer_setThreshold__I                        
00003155  ti_sysbios_family_arm_cc26xx_Timer_start__E                               
00001384  ti_sysbios_family_arm_cc26xx_Timer_startupNeeded__C                       
1001b791  ti_sysbios_family_arm_cc26xx_Timer_startup__E                             
200001ec  ti_sysbios_family_arm_cc26xx_TimestampProvider_Module__state__V           
1001bb65  ti_sysbios_family_arm_cc26xx_TimestampProvider_Module_startup__E          
00004ba3  ti_sysbios_family_arm_cc26xx_TimestampProvider_get32__E                   
1001b9cd  ti_sysbios_family_arm_cc26xx_TimestampProvider_get64__E                   
1001c12b  ti_sysbios_family_arm_cc26xx_TimestampProvider_getFreq__E                 
00001408  ti_sysbios_family_arm_cc26xx_TimestampProvider_useClockTimer__C           
00001388  ti_sysbios_family_arm_m3_Hwi_E_alreadyDefined__C                          
0000138c  ti_sysbios_family_arm_m3_Hwi_E_hwiLimitExceeded__C                        
1001aed1  ti_sysbios_family_arm_m3_Hwi_Instance_finalize__E                         
1001a3c5  ti_sysbios_family_arm_m3_Hwi_Instance_init__E                             
200019e8  ti_sysbios_family_arm_m3_Hwi_Module_State_0_excActive__A                  
200019dc  ti_sysbios_family_arm_m3_Hwi_Module_State_0_excContext__A                 
200019e0  ti_sysbios_family_arm_m3_Hwi_Module_State_0_excStack__A                   
0000140a  ti_sysbios_family_arm_m3_Hwi_Module__id__C                                
2000197c  ti_sysbios_family_arm_m3_Hwi_Module__root__V                              
1001bb85  ti_sysbios_family_arm_m3_Hwi_Module__startupDone__S                       
20000144  ti_sysbios_family_arm_m3_Hwi_Module__state__V                             
1001b1c1  ti_sysbios_family_arm_m3_Hwi_Module_startup__E                            
00001390  ti_sysbios_family_arm_m3_Hwi_NUM_INTERRUPTS__C                            
000011d0  ti_sysbios_family_arm_m3_Hwi_Object__DESC__C                              
00001070  ti_sysbios_family_arm_m3_Hwi_Object__PARAMS__C                            
00001394  ti_sysbios_family_arm_m3_Hwi_Object__count__C                             
1001aab1  ti_sysbios_family_arm_m3_Hwi_Object__create__S                            
1001bba5  ti_sysbios_family_arm_m3_Hwi_Object__delete__S                            
1001be65  ti_sysbios_family_arm_m3_Hwi_Object__destruct__S                          
1001b7bd  ti_sysbios_family_arm_m3_Hwi_Object__get__S                               
00001398  ti_sysbios_family_arm_m3_Hwi_Object__table__C                             
20001920  ti_sysbios_family_arm_m3_Hwi_Object__table__V                             
1001c139  ti_sysbios_family_arm_m3_Hwi_Params__init__S                              
0000139c  ti_sysbios_family_arm_m3_Hwi_ccr__C                                       
00004759  ti_sysbios_family_arm_m3_Hwi_clearInterrupt__E                            
1001af29  ti_sysbios_family_arm_m3_Hwi_construct                                    
00003f1d  ti_sysbios_family_arm_m3_Hwi_construct2__E                                
1001ab15  ti_sysbios_family_arm_m3_Hwi_create                                       
1001c259  ti_sysbios_family_arm_m3_Hwi_delete                                       
1001c25d  ti_sysbios_family_arm_m3_Hwi_destruct                                     
1001c145  ti_sysbios_family_arm_m3_Hwi_disableFxn__E                                
1001b251  ti_sysbios_family_arm_m3_Hwi_disableInterrupt__E                          
1001aa49  ti_sysbios_family_arm_m3_Hwi_dispatchC__I                                 
2000131c  ti_sysbios_family_arm_m3_Hwi_dispatchTable                                
1001c899  ti_sysbios_family_arm_m3_Hwi_dispatch__I                                  
1001c1f7  ti_sysbios_family_arm_m3_Hwi_doSwiRestore__I                              
1001c20f  ti_sysbios_family_arm_m3_Hwi_doTaskRestore__I                             
1001c151  ti_sysbios_family_arm_m3_Hwi_enableFxn__E                                 
1001b295  ti_sysbios_family_arm_m3_Hwi_enableInterrupt__E                           
1001c9fd  ti_sysbios_family_arm_m3_Hwi_excHandlerAsm__I                             
000013a0  ti_sysbios_family_arm_m3_Hwi_excHandlerFunc__C                            
1001bbc5  ti_sysbios_family_arm_m3_Hwi_excHandler__I                                
1001b461  ti_sysbios_family_arm_m3_Hwi_getStackInfo__E                              
1001a695  ti_sysbios_family_arm_m3_Hwi_initNVIC__E                                  
1001c9b5  ti_sysbios_family_arm_m3_Hwi_initStacks__E                                
000013a4  ti_sysbios_family_arm_m3_Hwi_nullIsrFunc__C                               
000013a8  ti_sysbios_family_arm_m3_Hwi_numSparseInterrupts__C                       
e000e000  ti_sysbios_family_arm_m3_Hwi_nvic                                         
1001ca3b  ti_sysbios_family_arm_m3_Hwi_pendSV__I                                    
1001c061  ti_sysbios_family_arm_m3_Hwi_plug__E                                      
1001a315  ti_sysbios_family_arm_m3_Hwi_postInit__I                                  
000013ac  ti_sysbios_family_arm_m3_Hwi_priGroup__C                                  
20000000  ti_sysbios_family_arm_m3_Hwi_ramVectors                                   
00000000  ti_sysbios_family_arm_m3_Hwi_resetVectors                                 
1001c215  ti_sysbios_family_arm_m3_Hwi_restoreFxn__E                                
1001ca53  ti_sysbios_family_arm_m3_Hwi_return                                       
1001be81  ti_sysbios_family_arm_m3_Hwi_setPriority__E                               
1001c1ff  ti_sysbios_family_arm_m3_Hwi_startup__E                                   
00000394  ti_sysbios_family_arm_m3_Hwi_swiDisable__C                                
00000398  ti_sysbios_family_arm_m3_Hwi_swiRestoreHwi__C                             
1001c009  ti_sysbios_family_arm_m3_Hwi_switchFromBootStack__E                       
1001c261  ti_sysbios_family_arm_m3_TaskSupport_Module__startupDone__S               
1001c969  ti_sysbios_family_arm_m3_TaskSupport_buildTaskStack                       
1001c15d  ti_sysbios_family_arm_m3_TaskSupport_getStackAlignment__E                 
1001ca55  ti_sysbios_family_arm_m3_TaskSupport_glue                                 
000013b0  ti_sysbios_family_arm_m3_TaskSupport_stackAlignment__C                    
1001b499  ti_sysbios_family_arm_m3_TaskSupport_start__E                             
1001ca65  ti_sysbios_family_arm_m3_TaskSupport_swap__E                              
1001ca1d  ti_sysbios_family_xxx_Hwi_switchAndRunFunc                                
1001bbe5  ti_sysbios_gates_GateHwi_Handle__label__S                                 
1001b45f  ti_sysbios_gates_GateHwi_Instance_init__E                                 
0000111c  ti_sysbios_gates_GateHwi_Module__FXNS__C                                  
0000140c  ti_sysbios_gates_GateHwi_Module__id__C                                    
20001984  ti_sysbios_gates_GateHwi_Module__root__V                                  
000011f0  ti_sysbios_gates_GateHwi_Object__DESC__C                                  
00001330  ti_sysbios_gates_GateHwi_Object__PARAMS__C                                
1001ba91  ti_sysbios_gates_GateHwi_Object__create__S                                
1001bc05  ti_sysbios_gates_GateHwi_Object__delete__S                                
1001c169  ti_sysbios_gates_GateHwi_enter__E                                         
1001c21b  ti_sysbios_gates_GateHwi_leave__E                                         
1001c265  ti_sysbios_gates_GateHwi_query__E                                         
1001bc25  ti_sysbios_gates_GateMutex_Handle__label__S                               
000014d0  ti_sysbios_gates_GateMutex_Instance_State_sem__O                          
1001c071  ti_sysbios_gates_GateMutex_Instance_finalize__E                           
1001be9d  ti_sysbios_gates_GateMutex_Instance_init__E                               
00001140  ti_sysbios_gates_GateMutex_Module__FXNS__C                                
0000140e  ti_sysbios_gates_GateMutex_Module__id__C                                  
2000198c  ti_sysbios_gates_GateMutex_Module__root__V                                
00001210  ti_sysbios_gates_GateMutex_Object__DESC__C                                
00001348  ti_sysbios_gates_GateMutex_Object__PARAMS__C                              
1001b645  ti_sysbios_gates_GateMutex_Object__create__S                              
1001bab5  ti_sysbios_gates_GateMutex_Object__delete__S                              
1001bc45  ti_sysbios_gates_GateMutex_Object__destruct__S                            
20001858  ti_sysbios_gates_GateMutex_Object__table__V                               
1001c175  ti_sysbios_gates_GateMutex_Params__init__S                                
1001b7e9  ti_sysbios_gates_GateMutex_construct                                      
1001b675  ti_sysbios_gates_GateMutex_create                                         
1001c269  ti_sysbios_gates_GateMutex_delete                                         
1001c26d  ti_sysbios_gates_GateMutex_destruct                                       
1001b6a5  ti_sysbios_gates_GateMutex_enter__E                                       
1001bf99  ti_sysbios_gates_GateMutex_leave__E                                       
1001c271  ti_sysbios_gates_GateMutex_query__E                                       
1001c275  ti_sysbios_hal_Hwi_HwiProxy_Module__startupDone__S                        
1001bb85  ti_sysbios_hal_Hwi_HwiProxy_Module__startupDone__S__mangled__             
1001c081  ti_sysbios_hal_Hwi_HwiProxy_Object__create__S                             
1001bba5  ti_sysbios_hal_Hwi_HwiProxy_Object__delete__S                             
1001c139  ti_sysbios_hal_Hwi_HwiProxy_Params__init__S                               
1001c139  ti_sysbios_hal_Hwi_HwiProxy_Params__init__S__mangled__                    
00004759  ti_sysbios_hal_Hwi_HwiProxy_clearInterrupt__E                             
1001be45  ti_sysbios_hal_Hwi_HwiProxy_create                                        
1001c279  ti_sysbios_hal_Hwi_HwiProxy_delete                                        
1001c27d  ti_sysbios_hal_Hwi_HwiProxy_disableInterrupt__E                           
1001b251  ti_sysbios_hal_Hwi_HwiProxy_disableInterrupt__E__mangled__                
1001c281  ti_sysbios_hal_Hwi_HwiProxy_enableInterrupt__E                            
1001b295  ti_sysbios_hal_Hwi_HwiProxy_enableInterrupt__E__mangled__                 
1001c285  ti_sysbios_hal_Hwi_HwiProxy_getStackInfo__E                               
1001b461  ti_sysbios_hal_Hwi_HwiProxy_getStackInfo__E__mangled__                    
1001c289  ti_sysbios_hal_Hwi_HwiProxy_startup__E                                    
1001c1ff  ti_sysbios_hal_Hwi_HwiProxy_startup__E__mangled__                         
1001c28d  ti_sysbios_hal_Hwi_HwiProxy_switchFromBootStack__E                        
1001c009  ti_sysbios_hal_Hwi_HwiProxy_switchFromBootStack__E__mangled__             
1001c1ed  ti_sysbios_hal_Hwi_Instance_finalize__E                                   
1001b9f5  ti_sysbios_hal_Hwi_Instance_init__E                                       
20001994  ti_sysbios_hal_Hwi_Module__root__V                                        
1001c01d  ti_sysbios_hal_Hwi_Module_startup__E                                      
00001230  ti_sysbios_hal_Hwi_Object__DESC__C                                        
000010a0  ti_sysbios_hal_Hwi_Object__PARAMS__C                                      
1001bc65  ti_sysbios_hal_Hwi_Object__delete__S                                      
00004759  ti_sysbios_hal_Hwi_clearInterrupt__E                                      
1001ab79  ti_sysbios_hal_Hwi_create                                                 
1001c291  ti_sysbios_hal_Hwi_delete                                                 
1001c27d  ti_sysbios_hal_Hwi_disableInterrupt__E                                    
1001c27d  ti_sysbios_hal_Hwi_disableInterrupt__E                                    
1001c281  ti_sysbios_hal_Hwi_enableInterrupt__E                                     
1001c281  ti_sysbios_hal_Hwi_enableInterrupt__E                                     
1001c285  ti_sysbios_hal_Hwi_getStackInfo__E                                        
1001c285  ti_sysbios_hal_Hwi_getStackInfo__E                                        
1001b815  ti_sysbios_hal_Hwi_initStack                                              
1001c289  ti_sysbios_hal_Hwi_startup__E                                             
1001c289  ti_sysbios_hal_Hwi_startup__E                                             
1001c295  ti_sysbios_hal_Hwi_switchFromBootStack__E                                 
1001c295  ti_sysbios_hal_Hwi_switchFromBootStack__E                                 
000013b4  ti_sysbios_heaps_HeapMem_E_memory__C                                      
1001bc85  ti_sysbios_heaps_HeapMem_Handle__label__S                                 
20000208  ti_sysbios_heaps_HeapMem_Instance_State_0_buf__A                          
1001b4d1  ti_sysbios_heaps_HeapMem_Instance_init__E                                 
1001bc25  ti_sysbios_heaps_HeapMem_Module_GateProxy_Handle__label__S                
1001bc25  ti_sysbios_heaps_HeapMem_Module_GateProxy_Handle__label__S__mangled__     
1001bab5  ti_sysbios_heaps_HeapMem_Module_GateProxy_Object__delete__S               
1001c175  ti_sysbios_heaps_HeapMem_Module_GateProxy_Params__init__S                 
1001c175  ti_sysbios_heaps_HeapMem_Module_GateProxy_Params__init__S__mangled__      
1001c299  ti_sysbios_heaps_HeapMem_Module_GateProxy_enter__E                        
1001c29d  ti_sysbios_heaps_HeapMem_Module_GateProxy_leave__E                        
1001c271  ti_sysbios_heaps_HeapMem_Module_GateProxy_query__E                        
1001c271  ti_sysbios_heaps_HeapMem_Module_GateProxy_query__E__mangled__             
000010cc  ti_sysbios_heaps_HeapMem_Module__FXNS__C                                  
000013b8  ti_sysbios_heaps_HeapMem_Module__gateObj__C                               
00001410  ti_sysbios_heaps_HeapMem_Module__id__C                                    
2000199c  ti_sysbios_heaps_HeapMem_Module__root__V                                  
00001250  ti_sysbios_heaps_HeapMem_Object__DESC__C                                  
00001164  ti_sysbios_heaps_HeapMem_Object__PARAMS__C                                
000013bc  ti_sysbios_heaps_HeapMem_Object__count__C                                 
1001b841  ti_sysbios_heaps_HeapMem_Object__create__S                                
1001bca5  ti_sysbios_heaps_HeapMem_Object__delete__S                                
1001b86d  ti_sysbios_heaps_HeapMem_Object__get__S                                   
000013c0  ti_sysbios_heaps_HeapMem_Object__table__C                                 
20001938  ti_sysbios_heaps_HeapMem_Object__table__V                                 
1001a195  ti_sysbios_heaps_HeapMem_alloc__E                                         
1001a791  ti_sysbios_heaps_HeapMem_free__E                                          
1001b209  ti_sysbios_heaps_HeapMem_getStats__E                                      
1001b541  ti_sysbios_heaps_HeapMem_init__I                                          
1001c2a1  ti_sysbios_heaps_HeapMem_isBlocking__E                                    
000013c4  ti_sysbios_heaps_HeapMem_reqAlign__C                                      
1001c101  ti_sysbios_heaps_HeapMem_restore__E                                       
1001bfc9  ti_sysbios_knl_Clock_Instance_finalize__E                                 
1001b509  ti_sysbios_knl_Clock_Instance_init__E                                     
000014d4  ti_sysbios_knl_Clock_Module_State_clockQ__O                               
200019a4  ti_sysbios_knl_Clock_Module__root__V                                      
20000178  ti_sysbios_knl_Clock_Module__state__V                                     
1001bcc5  ti_sysbios_knl_Clock_Module_startup__E                                    
00001270  ti_sysbios_knl_Clock_Object__DESC__C                                      
00001188  ti_sysbios_knl_Clock_Object__PARAMS__C                                    
1001bad9  ti_sysbios_knl_Clock_Object__delete__S                                    
1001bce5  ti_sysbios_knl_Clock_Object__destruct__S                                  
200018c0  ti_sysbios_knl_Clock_Object__table__V                                     
1001c181  ti_sysbios_knl_Clock_Params__init__S                                      
1001c2a5  ti_sysbios_knl_Clock_TimerProxy_Module__startupDone__S                    
1001bb45  ti_sysbios_knl_Clock_TimerProxy_Module__startupDone__S__mangled__         
1001c091  ti_sysbios_knl_Clock_TimerProxy_getCurrentTick__E                         
1001c2a9  ti_sysbios_knl_Clock_TimerProxy_getExpiredTicks__E                        
1001c0a1  ti_sysbios_knl_Clock_TimerProxy_getMaxTicks__E                            
1001c2ad  ti_sysbios_knl_Clock_TimerProxy_getPeriod__E                              
1001c0b1  ti_sysbios_knl_Clock_TimerProxy_setNextTick__E                            
1001b791  ti_sysbios_knl_Clock_TimerProxy_startup__E                                
1001b791  ti_sysbios_knl_Clock_TimerProxy_startup__E__mangled__                     
1001ba1d  ti_sysbios_knl_Clock_addI__E                                              
1001b575  ti_sysbios_knl_Clock_construct                                            
1001b3e9  ti_sysbios_knl_Clock_create                                               
1001c2b1  ti_sysbios_knl_Clock_delete                                               
1001c2b5  ti_sysbios_knl_Clock_destruct                                             
00004ab1  ti_sysbios_knl_Clock_doTick__I                                            
00004429  ti_sysbios_knl_Clock_getTicksUntilInterrupt__E                            
1001b6d5  ti_sysbios_knl_Clock_getTicks__E                                          
1001c18d  ti_sysbios_knl_Clock_getTimerHandle__E                                    
1001be63  ti_sysbios_knl_Clock_logTick__E                                           
1001c2b9  ti_sysbios_knl_Clock_removeI__E                                           
1001beb9  ti_sysbios_knl_Clock_scheduleNextTick__E                                  
000013c8  ti_sysbios_knl_Clock_serviceMargin__C                                     
1001c2bd  ti_sysbios_knl_Clock_setTimeout__E                                        
1001a715  ti_sysbios_knl_Clock_startI__E                                            
1001bfdf  ti_sysbios_knl_Clock_start__E                                             
00004619  ti_sysbios_knl_Clock_stop__E                                              
00001414  ti_sysbios_knl_Clock_tickMode__C                                          
0000039c  ti_sysbios_knl_Clock_tickPeriod__C                                        
000003a0  ti_sysbios_knl_Clock_triggerClock__C                                      
00004a0f  ti_sysbios_knl_Clock_triggerFunc__I                                       
1001a809  ti_sysbios_knl_Clock_walkQueueDynamic__E                                  
000030bd  ti_sysbios_knl_Clock_workFuncDynamic__E                                   
1001a881  ti_sysbios_knl_Clock_workFunc__E                                          
000003a4  ti_sysbios_knl_Idle_funcList__A                                           
00001378  ti_sysbios_knl_Idle_funcList__C                                           
1001c207  ti_sysbios_knl_Idle_loop__E                                               
1001bd05  ti_sysbios_knl_Idle_run__E                                                
000014d8  ti_sysbios_knl_Mailbox_Instance_State_dataQue__O                          
000014dc  ti_sysbios_knl_Mailbox_Instance_State_dataSem__O                          
000014e0  ti_sysbios_knl_Mailbox_Instance_State_freeQue__O                          
000014e4  ti_sysbios_knl_Mailbox_Instance_State_freeSem__O                          
1001a8f9  ti_sysbios_knl_Mailbox_Instance_finalize__E                               
1001a0cd  ti_sysbios_knl_Mailbox_Instance_init__E                                   
200019ac  ti_sysbios_knl_Mailbox_Module__root__V                                    
1001b2d9  ti_sysbios_knl_Mailbox_Module_startup__E                                  
00001290  ti_sysbios_knl_Mailbox_Object__DESC__C                                    
0000103c  ti_sysbios_knl_Mailbox_Object__PARAMS__C                                  
000013cc  ti_sysbios_knl_Mailbox_Object__count__C                                   
1001bd25  ti_sysbios_knl_Mailbox_Object__delete__S                                  
1001bed5  ti_sysbios_knl_Mailbox_Object__destruct__S                                
1001b899  ti_sysbios_knl_Mailbox_Object__get__S                                     
000013d0  ti_sysbios_knl_Mailbox_Object__table__C                                   
1001c199  ti_sysbios_knl_Mailbox_Params__init__S                                    
1001af81  ti_sysbios_knl_Mailbox_construct                                          
1001abdd  ti_sysbios_knl_Mailbox_create                                             
1001c2c1  ti_sysbios_knl_Mailbox_delete                                             
1001c2c5  ti_sysbios_knl_Mailbox_destruct                                           
000013d4  ti_sysbios_knl_Mailbox_maxTypeAlign__C                                    
1001a969  ti_sysbios_knl_Mailbox_pend__E                                            
1001b8c5  ti_sysbios_knl_Mailbox_postInit__I                                        
1001a58d  ti_sysbios_knl_Mailbox_post__E                                            
1001c227  ti_sysbios_knl_Queue_Instance_init__E                                     
200019b4  ti_sysbios_knl_Queue_Module__root__V                                      
000012b0  ti_sysbios_knl_Queue_Object__DESC__C                                      
00001360  ti_sysbios_knl_Queue_Object__PARAMS__C                                    
000013d8  ti_sysbios_knl_Queue_Object__count__C                                     
1001bd45  ti_sysbios_knl_Queue_Object__delete__S                                    
1001bef1  ti_sysbios_knl_Queue_Object__destruct__S                                  
1001bd65  ti_sysbios_knl_Queue_Object__get__S                                       
000013dc  ti_sysbios_knl_Queue_Object__table__C                                     
1001b8f1  ti_sysbios_knl_Queue_construct                                            
1001b91d  ti_sysbios_knl_Queue_create                                               
1001c2c9  ti_sysbios_knl_Queue_delete                                               
1001c1a5  ti_sysbios_knl_Queue_dequeue__E                                           
1001c2cd  ti_sysbios_knl_Queue_destruct                                             
1001c22d  ti_sysbios_knl_Queue_elemClear__E                                         
1001c10f  ti_sysbios_knl_Queue_empty__E                                             
1001c1b1  ti_sysbios_knl_Queue_enqueue__E                                           
1001bf0d  ti_sysbios_knl_Queue_get__E                                               
1001c2d1  ti_sysbios_knl_Queue_head__E                                              
1001c2d5  ti_sysbios_knl_Queue_next__E                                              
1001bf29  ti_sysbios_knl_Queue_put__E                                               
1001c11d  ti_sysbios_knl_Queue_remove__E                                            
000014e8  ti_sysbios_knl_Semaphore_Instance_State_pendQ__O                          
1001c0c1  ti_sysbios_knl_Semaphore_Instance_finalize__E                             
1001bafd  ti_sysbios_knl_Semaphore_Instance_init__E                                 
200019bc  ti_sysbios_knl_Semaphore_Module__root__V                                  
000012d0  ti_sysbios_knl_Semaphore_Object__DESC__C                                  
000011ac  ti_sysbios_knl_Semaphore_Object__PARAMS__C                                
1001bb21  ti_sysbios_knl_Semaphore_Object__delete__S                                
1001bd85  ti_sysbios_knl_Semaphore_Object__destruct__S                              
1001c1bd  ti_sysbios_knl_Semaphore_Params__init__S                                  
1001b705  ti_sysbios_knl_Semaphore_construct                                        
1001b5a9  ti_sysbios_knl_Semaphore_create                                           
1001c2d9  ti_sysbios_knl_Semaphore_delete                                           
1001c2dd  ti_sysbios_knl_Semaphore_destruct                                         
1001b949  ti_sysbios_knl_Semaphore_pendTimeout__I                                   
1001a001  ti_sysbios_knl_Semaphore_pend__E                                          
1001ac41  ti_sysbios_knl_Semaphore_post__E                                          
1001bf97  ti_sysbios_knl_Swi_Instance_finalize__E                                   
1001aca5  ti_sysbios_knl_Swi_Instance_init__E                                       
20001740  ti_sysbios_knl_Swi_Module_State_0_readyQ__A                               
200019c4  ti_sysbios_knl_Swi_Module__root__V                                        
200001c8  ti_sysbios_knl_Swi_Module__state__V                                       
1001c233  ti_sysbios_knl_Swi_Module_startup__E                                      
000012f0  ti_sysbios_knl_Swi_Object__DESC__C                                        
000010f4  ti_sysbios_knl_Swi_Object__PARAMS__C                                      
000013e0  ti_sysbios_knl_Swi_Object__count__C                                       
1001bda5  ti_sysbios_knl_Swi_Object__delete__S                                      
1001bf45  ti_sysbios_knl_Swi_Object__destruct__S                                    
1001b975  ti_sysbios_knl_Swi_Object__get__S                                         
000013e4  ti_sysbios_knl_Swi_Object__table__C                                       
20001890  ti_sysbios_knl_Swi_Object__table__V                                       
1001c1c9  ti_sysbios_knl_Swi_Params__init__S                                        
1001b085  ti_sysbios_knl_Swi_construct                                              
00004775  ti_sysbios_knl_Swi_construct2__E                                          
1001ad05  ti_sysbios_knl_Swi_create                                                 
1001c2e1  ti_sysbios_knl_Swi_delete                                                 
1001c2e5  ti_sysbios_knl_Swi_destruct                                               
1001c0d1  ti_sysbios_knl_Swi_disable__E                                             
1001c0e1  ti_sysbios_knl_Swi_enabled__E                                             
00004c29  ti_sysbios_knl_Swi_getTrigger__E                                          
000013e8  ti_sysbios_knl_Swi_numPriorities__C                                       
0000492d  ti_sysbios_knl_Swi_or__E                                                  
1001c2e9  ti_sysbios_knl_Swi_postInit__I                                            
1001b31d  ti_sysbios_knl_Swi_post__E                                                
1001ad61  ti_sysbios_knl_Swi_restoreHwi__E                                          
1001b5dd  ti_sysbios_knl_Swi_restore__E                                             
1001b0d5  ti_sysbios_knl_Swi_runLoop__I                                             
1001afd9  ti_sysbios_knl_Swi_run__I                                                 
1001b031  ti_sysbios_knl_Swi_schedule__I                                            
1001c239  ti_sysbios_knl_Swi_startup__E                                             
20000e08  ti_sysbios_knl_Task_Instance_State_0_stack__A                             
1001a4f9  ti_sysbios_knl_Task_Instance_finalize__E                                  
1001a259  ti_sysbios_knl_Task_Instance_init__E                                      
200019e4  ti_sysbios_knl_Task_Module_State_0_idleTask__A                            
200018e0  ti_sysbios_knl_Task_Module_State_0_readyQ__A                              
000014ec  ti_sysbios_knl_Task_Module_State_inactiveQ__O                             
200019cc  ti_sysbios_knl_Task_Module__root__V                                       
20000100  ti_sysbios_knl_Task_Module__state__V                                      
1001adbd  ti_sysbios_knl_Task_Module_startup__E                                     
00001310  ti_sysbios_knl_Task_Object__DESC__C                                       
00001000  ti_sysbios_knl_Task_Object__PARAMS__C                                     
000013ec  ti_sysbios_knl_Task_Object__count__C                                      
1001bdc5  ti_sysbios_knl_Task_Object__delete__S                                     
1001bf61  ti_sysbios_knl_Task_Object__destruct__S                                   
1001bde5  ti_sysbios_knl_Task_Object__get__S                                        
000013f0  ti_sysbios_knl_Task_Object__table__C                                      
200017c0  ti_sysbios_knl_Task_Object__table__V                                      
1001c1d5  ti_sysbios_knl_Task_Params__init__S                                       
1001c2ed  ti_sysbios_knl_Task_SupportProxy_Module__startupDone__S                   
1001c261  ti_sysbios_knl_Task_SupportProxy_Module__startupDone__S__mangled__        
1001c2f1  ti_sysbios_knl_Task_SupportProxy_getStackAlignment__E                     
1001c15d  ti_sysbios_knl_Task_SupportProxy_getStackAlignment__E__mangled__          
1001c2f5  ti_sysbios_knl_Task_SupportProxy_start__E                                 
1001b499  ti_sysbios_knl_Task_SupportProxy_start__E__mangled__                      
1001c2f9  ti_sysbios_knl_Task_SupportProxy_swap__E                                  
1001ca65  ti_sysbios_knl_Task_SupportProxy_swap__E__mangled__                       
000013f4  ti_sysbios_knl_Task_allBlockedFunc__C                                     
1001b361  ti_sysbios_knl_Task_allBlockedFunction__I                                 
1001b611  ti_sysbios_knl_Task_blockI__E                                             
1001b125  ti_sysbios_knl_Task_construct                                             
1001ae19  ti_sysbios_knl_Task_create                                                
000013f8  ti_sysbios_knl_Task_defaultStackHeap__C                                   
000013fc  ti_sysbios_knl_Task_defaultStackSize__C                                   
1001c2fd  ti_sysbios_knl_Task_delete                                                
1001c301  ti_sysbios_knl_Task_destruct                                              
1001c0f1  ti_sysbios_knl_Task_disable__E                                            
1001c23f  ti_sysbios_knl_Task_enable__E                                             
1001be05  ti_sysbios_knl_Task_enter__I                                              
1001b425  ti_sysbios_knl_Task_exit__E                                               
00001412  ti_sysbios_knl_Task_initStackFlag__C                                      
00001400  ti_sysbios_knl_Task_numConstructedTasks__C                                
1001a611  ti_sysbios_knl_Task_postInit__I                                           
1001b735  ti_sysbios_knl_Task_processVitalTaskFlag__I                               
1001be25  ti_sysbios_knl_Task_restoreHwi__E                                         
1001ba45  ti_sysbios_knl_Task_restore__E                                            
1001b175  ti_sysbios_knl_Task_schedule__I                                           
1001c1e1  ti_sysbios_knl_Task_self__E                                               
1001bf7d  ti_sysbios_knl_Task_sleepTimeout__I                                       
1001a9d9  ti_sysbios_knl_Task_sleep__E                                              
1001ae75  ti_sysbios_knl_Task_startCore__E                                          
1001c305  ti_sysbios_knl_Task_startup__E                                            
1001ca6d  ti_sysbios_knl_Task_swapReturn                                            
1001b9a1  ti_sysbios_knl_Task_unblockI__E                                           
1001bfb1  ti_sysbios_knl_Task_unblock__E                                            
1001b3a5  ti_sysbios_knl_Task_yield__E                                              
00001494  ti_sysbios_rom_ROM_AONRTCChannelEnable                                    
00001498  ti_sysbios_rom_ROM_AONRTCCompareValueSet                                  
0000149c  ti_sysbios_rom_ROM_AONRTCCurrentCompareValueGet                           
000014a0  ti_sysbios_rom_ROM_AONRTCEventClear                                       
000014a4  ti_sysbios_rom_ROM_ti_sysbios_family_arm_cc26xx_Timer_getCount64__E       
000014a8  ti_sysbios_rom_ROM_ti_sysbios_family_arm_cc26xx_Timer_getCurrentTick__E   
000014ac  ti_sysbios_rom_ROM_ti_sysbios_family_arm_cc26xx_Timer_getMaxTicks__E      
000014b0  ti_sysbios_rom_ROM_ti_sysbios_family_arm_cc26xx_Timer_initDevice__I       
000014b4  ti_sysbios_rom_ROM_ti_sysbios_family_arm_cc26xx_Timer_setNextTick__E      
000014b8  ti_sysbios_rom_ROM_ti_sysbios_family_arm_cc26xx_Timer_setThreshold__I     
000014bc  ti_sysbios_rom_ROM_ti_sysbios_family_arm_cc26xx_Timer_start__E            
000014c0  ti_sysbios_rom_ROM_ti_sysbios_family_arm_cc26xx_TimestampProvider_get32__E
000014c4  ti_sysbios_rom_ROM_xdc_runtime_Startup_getState__I                        
000014c8  ti_sysbios_rom_ROM_xdc_runtime_System_SupportProxy_abort__E               
000014cc  ti_sysbios_rom_ROM_xdc_runtime_System_SupportProxy_exit__E                
00004cd5  ti_sysbios_rom_cortexm_cc13xx_CC13xx_badRomRevision__E                    
00004945  ti_sysbios_rom_cortexm_cc13xx_CC13xx_checkRevision__E                     
1001ca97  ti_sysbios_rom_cortexm_cc13xx_CC13xx_getRevision__E                       
00001428  xdc_runtime_Assert_E_assertFailed__C                                      
1001c5a5  xdc_runtime_Assert_raise__I                                               
1001c6e9  xdc_runtime_Core_assignLabel__I                                           
1001c5ed  xdc_runtime_Core_assignParams__I                                          
1001c635  xdc_runtime_Core_constructObject__I                                       
1001c401  xdc_runtime_Core_createObject__I                                          
1001c4f5  xdc_runtime_Core_deleteObject__I                                          
1001c79d  xdc_runtime_Core_destructObject__I                                        
0000142c  xdc_runtime_Error_E_memory__C                                             
20001900  xdc_runtime_Error_IgnoreBlock                                             
200019ea  xdc_runtime_Error_Module__state__V                                        
1001c7b5  xdc_runtime_Error_check__E                                                
0000495d  xdc_runtime_Error_init__E                                                 
00000232  xdc_runtime_Error_maxDepth__C                                             
00002bb1  xdc_runtime_Error_policyDefault__E                                        
00001430  xdc_runtime_Error_policyFxn__C                                            
1001c483  xdc_runtime_Error_policySpin__E                                           
00001490  xdc_runtime_Error_policy__C                                               
000003a8  xdc_runtime_Error_raiseHook__C                                            
1001c765  xdc_runtime_Error_raiseX__E                                               
00003c65  xdc_runtime_Error_setX__E                                                 
1001c881  xdc_runtime_Gate_enterSystem__E                                           
1001c875  xdc_runtime_Gate_leaveSystem__E                                           
00001434  xdc_runtime_IGateProvider_Interface__BASE__C                              
00001438  xdc_runtime_IHeap_Interface__BASE__C                                      
0000143c  xdc_runtime_IModule_Interface__BASE__C                                    
1001bbe5  xdc_runtime_Main_Module_GateProxy_Handle__label__S                        
1001c265  xdc_runtime_Main_Module_GateProxy_query__E                                
00001440  xdc_runtime_Main_Module__diagsEnabled__C                                  
00001444  xdc_runtime_Main_Module__diagsIncluded__C                                 
00001448  xdc_runtime_Main_Module__diagsMask__C                                     
00001488  xdc_runtime_Main_Module__id__C                                            
1001bc85  xdc_runtime_Memory_HeapProxy_Handle__label__S                             
1001bc85  xdc_runtime_Memory_HeapProxy_Handle__label__S__mangled__                  
1001bca5  xdc_runtime_Memory_HeapProxy_Object__delete__S                            
1001c885  xdc_runtime_Memory_HeapProxy_alloc__E                                     
1001c889  xdc_runtime_Memory_HeapProxy_free__E                                      
0000148a  xdc_runtime_Memory_Module__id__C                                          
20000200  xdc_runtime_Memory_Module__state__V                                       
1001c485  xdc_runtime_Memory_alloc__E                                               
1001c849  xdc_runtime_Memory_calloc__E                                              
0000144c  xdc_runtime_Memory_defaultHeapInstance__C                                 
1001c7fd  xdc_runtime_Memory_free__E                                                
1001c855  xdc_runtime_Memory_getMaxDefaultTypeAlign__E                              
1001c781  xdc_runtime_Memory_valloc__E                                              
200001f0  xdc_runtime_Startup_Module__state__V                                      
00000001  xdc_runtime_Startup__EXECFXN__C                                           
00000001  xdc_runtime_Startup__RESETFXN__C                                          
00001450  xdc_runtime_Startup_execImpl__C                                           
1001c555  xdc_runtime_Startup_exec__E                                               
00004afb  xdc_runtime_Startup_exec__I                                               
00000368  xdc_runtime_Startup_firstFxns__A                                          
00001418  xdc_runtime_Startup_firstFxns__C                                          
00003941  xdc_runtime_Startup_getState__I                                           
00001420  xdc_runtime_Startup_lastFxns__C                                           
00001454  xdc_runtime_Startup_maxPasses__C                                          
00004c35  xdc_runtime_Startup_reset__I                                              
00004c41  xdc_runtime_Startup_rtsDone__E                                            
00000334  xdc_runtime_Startup_sfxnRts__A                                            
00001458  xdc_runtime_Startup_sfxnRts__C                                            
000002e0  xdc_runtime_Startup_sfxnTab__A                                            
0000145c  xdc_runtime_Startup_sfxnTab__C                                            
00001460  xdc_runtime_Startup_startModsFxn__C                                       
1001c309  xdc_runtime_Startup_startMods__I                                          
00001464  xdc_runtime_SysCallback_abortFxn__C                                       
1001c80d  xdc_runtime_SysCallback_abort__E                                          
00004cd7  xdc_runtime_SysCallback_defaultAbort                                      
00004cd9  xdc_runtime_SysCallback_defaultExit                                       
00001468  xdc_runtime_SysCallback_exitFxn__C                                        
1001c81d  xdc_runtime_SysCallback_exit__E                                           
20001008  xdc_runtime_SysMin_Module_State_0_outbuf__A                               
20001968  xdc_runtime_SysMin_Module__state__V                                       
00004639  xdc_runtime_SysMin_Module_startup__E                                      
000042f1  xdc_runtime_SysMin_abort__E                                               
000003ac  xdc_runtime_SysMin_bufSize__C                                             
00004791  xdc_runtime_SysMin_exit__E                                                
000003b4  xdc_runtime_SysMin_flushAtExit__C                                         
00003ca9  xdc_runtime_SysMin_flush__E                                               
000003b0  xdc_runtime_SysMin_outputFunc__C                                          
00004555  xdc_runtime_SysMin_output__I                                              
00003fc9  xdc_runtime_SysMin_putch__E                                               
1001bbe5  xdc_runtime_System_Module_GateProxy_Handle__label__S                      
1001bbe5  xdc_runtime_System_Module_GateProxy_Handle__label__S__mangled__           
1001bc05  xdc_runtime_System_Module_GateProxy_Object__delete__S                     
1001c88d  xdc_runtime_System_Module_GateProxy_enter__E                              
1001c891  xdc_runtime_System_Module_GateProxy_leave__E                              
1001c265  xdc_runtime_System_Module_GateProxy_query__E                              
1001c265  xdc_runtime_System_Module_GateProxy_query__E__mangled__                   
200019d4  xdc_runtime_System_Module_State_0_atexitHandlers__A                       
200001f8  xdc_runtime_System_Module__state__V                                       
1001c87b  xdc_runtime_System_Module_startup__E                                      
000042f1  xdc_runtime_System_SupportProxy_abort__E                                  
00004791  xdc_runtime_System_SupportProxy_exit__E                                   
00003ca9  xdc_runtime_System_SupportProxy_flush__E                                  
00003fc9  xdc_runtime_System_SupportProxy_putch__E                                  
0000146c  xdc_runtime_System_abortFxn__C                                            
1001c895  xdc_runtime_System_abortSpin__E                                           
1001c745  xdc_runtime_System_abort__E                                               
1001c67d  xdc_runtime_System_atexit__E                                              
00001470  xdc_runtime_System_exitFxn__C                                             
1001c897  xdc_runtime_System_exitSpin__E                                            
1001c7cd  xdc_runtime_System_exit__E                                                
00003ca9  xdc_runtime_System_flush__E                                               
00001474  xdc_runtime_System_maxAtexitHandlers__C                                   
1001c6b5  xdc_runtime_System_processAtExit__E                                       
0000148c  xdc_runtime_Text_charCnt__C                                               
000003b6  xdc_runtime_Text_charTab__A                                               
00001478  xdc_runtime_Text_charTab__C                                               
1001c719  xdc_runtime_Text_cordText__E                                              
0000148e  xdc_runtime_Text_isLoaded__C                                              
0000147c  xdc_runtime_Text_nameEmpty__C                                             
00001480  xdc_runtime_Text_nameStatic__C                                            
00001484  xdc_runtime_Text_nameUnknown__C                                           
1001c7e5  xdc_runtime_Text_ropeText__E                                              
1001c82d  xdc_runtime_Timestamp_SupportProxy_get32__E                               
00004ba3  xdc_runtime_Timestamp_SupportProxy_get32__E__mangled__                    
1001b9cd  xdc_runtime_Timestamp_SupportProxy_get64__E                               
1001b9cd  xdc_runtime_Timestamp_SupportProxy_get64__E__mangled__                    
1001c12b  xdc_runtime_Timestamp_SupportProxy_getFreq__E                             
1001c12b  xdc_runtime_Timestamp_SupportProxy_getFreq__E__mangled__                  
1001c82d  xdc_runtime_Timestamp_get32__E                                            
1001c82d  xdc_runtime_Timestamp_get32__E                                            
1001b9cd  xdc_runtime_Timestamp_get64__E                                            
1001b9cd  xdc_runtime_Timestamp_get64__E                                            
1001c12b  xdc_runtime_Timestamp_getFreq__E                                          
1001c12b  xdc_runtime_Timestamp_getFreq__E                                          


GLOBAL SYMBOLS: SORTED BY Symbol Address 

address   name                                                                      
-------   ----                                                                      
00000000  __ASM__                                                                   
00000000  __TI_static_base__                                                        
00000000  ti_sysbios_family_arm_m3_Hwi_resetVectors                                 
00000001  xdc_runtime_Startup__EXECFXN__C                                           
00000001  xdc_runtime_Startup__RESETFXN__C                                          
0000007b  __ISA__                                                                   
0000008d  __PLAT__                                                                  
000000b4  __TARG__                                                                  
000000d9  __TRDR__                                                                  
000001e6  resourceDB                                                                
00000232  xdc_runtime_Error_maxDepth__C                                             
0000027c  BoardGpioInitTable                                                        
000002b0  scifDriverSetup                                                           
000002e0  xdc_runtime_Startup_sfxnTab__A                                            
00000300  __STACK_SIZE                                                              
00000308  PowerCC26XX_config                                                        
00000334  xdc_runtime_Startup_sfxnRts__A                                            
00000368  xdc_runtime_Startup_firstFxns__A                                          
0000037c  PINCC26XX_hwAttrs                                                         
0000038c  ti_sysbios_family_arm_cc26xx_Timer_funcHookCH1__C                         
00000390  ti_sysbios_family_arm_cc26xx_Timer_funcHookCH2__C                         
00000394  ti_sysbios_family_arm_m3_Hwi_swiDisable__C                                
00000398  ti_sysbios_family_arm_m3_Hwi_swiRestoreHwi__C                             
0000039c  ti_sysbios_knl_Clock_tickPeriod__C                                        
000003a0  ti_sysbios_knl_Clock_triggerClock__C                                      
000003a4  ti_sysbios_knl_Idle_funcList__A                                           
000003a8  xdc_runtime_Error_raiseHook__C                                            
000003ac  xdc_runtime_SysMin_bufSize__C                                             
000003b0  xdc_runtime_SysMin_outputFunc__C                                          
000003b4  xdc_runtime_SysMin_flushAtExit__C                                         
000003b6  xdc_runtime_Text_charTab__A                                               
0000057c  __TI_Handler_Table_Base                                                   
00000588  __TI_Handler_Table_Limit                                                  
000005c0  __TI_CINIT_Base                                                           
00000620  __TI_CINIT_Limit                                                          
00001000  ti_sysbios_knl_Task_Object__PARAMS__C                                     
0000103c  ti_sysbios_knl_Mailbox_Object__PARAMS__C                                  
00001070  ti_sysbios_family_arm_m3_Hwi_Object__PARAMS__C                            
000010a0  ti_sysbios_hal_Hwi_Object__PARAMS__C                                      
000010cc  ti_sysbios_heaps_HeapMem_Module__FXNS__C                                  
000010f4  ti_sysbios_knl_Swi_Object__PARAMS__C                                      
0000111c  ti_sysbios_gates_GateHwi_Module__FXNS__C                                  
00001140  ti_sysbios_gates_GateMutex_Module__FXNS__C                                
00001164  ti_sysbios_heaps_HeapMem_Object__PARAMS__C                                
00001188  ti_sysbios_knl_Clock_Object__PARAMS__C                                    
000011ac  ti_sysbios_knl_Semaphore_Object__PARAMS__C                                
000011d0  ti_sysbios_family_arm_m3_Hwi_Object__DESC__C                              
000011f0  ti_sysbios_gates_GateHwi_Object__DESC__C                                  
00001210  ti_sysbios_gates_GateMutex_Object__DESC__C                                
00001230  ti_sysbios_hal_Hwi_Object__DESC__C                                        
00001250  ti_sysbios_heaps_HeapMem_Object__DESC__C                                  
00001270  ti_sysbios_knl_Clock_Object__DESC__C                                      
00001290  ti_sysbios_knl_Mailbox_Object__DESC__C                                    
000012b0  ti_sysbios_knl_Queue_Object__DESC__C                                      
000012d0  ti_sysbios_knl_Semaphore_Object__DESC__C                                  
000012f0  ti_sysbios_knl_Swi_Object__DESC__C                                        
00001310  ti_sysbios_knl_Task_Object__DESC__C                                       
00001330  ti_sysbios_gates_GateHwi_Object__PARAMS__C                                
00001348  ti_sysbios_gates_GateMutex_Object__PARAMS__C                              
00001360  ti_sysbios_knl_Queue_Object__PARAMS__C                                    
00001378  ti_sysbios_knl_Idle_funcList__C                                           
00001384  ti_sysbios_family_arm_cc26xx_Timer_startupNeeded__C                       
00001388  ti_sysbios_family_arm_m3_Hwi_E_alreadyDefined__C                          
0000138c  ti_sysbios_family_arm_m3_Hwi_E_hwiLimitExceeded__C                        
00001390  ti_sysbios_family_arm_m3_Hwi_NUM_INTERRUPTS__C                            
00001394  ti_sysbios_family_arm_m3_Hwi_Object__count__C                             
00001398  ti_sysbios_family_arm_m3_Hwi_Object__table__C                             
0000139c  ti_sysbios_family_arm_m3_Hwi_ccr__C                                       
000013a0  ti_sysbios_family_arm_m3_Hwi_excHandlerFunc__C                            
000013a4  ti_sysbios_family_arm_m3_Hwi_nullIsrFunc__C                               
000013a8  ti_sysbios_family_arm_m3_Hwi_numSparseInterrupts__C                       
000013ac  ti_sysbios_family_arm_m3_Hwi_priGroup__C                                  
000013b0  ti_sysbios_family_arm_m3_TaskSupport_stackAlignment__C                    
000013b4  ti_sysbios_heaps_HeapMem_E_memory__C                                      
000013b8  ti_sysbios_heaps_HeapMem_Module__gateObj__C                               
000013bc  ti_sysbios_heaps_HeapMem_Object__count__C                                 
000013c0  ti_sysbios_heaps_HeapMem_Object__table__C                                 
000013c4  ti_sysbios_heaps_HeapMem_reqAlign__C                                      
000013c8  ti_sysbios_knl_Clock_serviceMargin__C                                     
000013cc  ti_sysbios_knl_Mailbox_Object__count__C                                   
000013d0  ti_sysbios_knl_Mailbox_Object__table__C                                   
000013d4  ti_sysbios_knl_Mailbox_maxTypeAlign__C                                    
000013d8  ti_sysbios_knl_Queue_Object__count__C                                     
000013dc  ti_sysbios_knl_Queue_Object__table__C                                     
000013e0  ti_sysbios_knl_Swi_Object__count__C                                       
000013e4  ti_sysbios_knl_Swi_Object__table__C                                       
000013e8  ti_sysbios_knl_Swi_numPriorities__C                                       
000013ec  ti_sysbios_knl_Task_Object__count__C                                      
000013f0  ti_sysbios_knl_Task_Object__table__C                                      
000013f4  ti_sysbios_knl_Task_allBlockedFunc__C                                     
000013f8  ti_sysbios_knl_Task_defaultStackHeap__C                                   
000013fc  ti_sysbios_knl_Task_defaultStackSize__C                                   
00001400  ti_sysbios_knl_Task_numConstructedTasks__C                                
00001406  ti_sysbios_family_arm_cc26xx_Timer_Module__id__C                          
00001408  ti_sysbios_family_arm_cc26xx_TimestampProvider_useClockTimer__C           
0000140a  ti_sysbios_family_arm_m3_Hwi_Module__id__C                                
0000140c  ti_sysbios_gates_GateHwi_Module__id__C                                    
0000140e  ti_sysbios_gates_GateMutex_Module__id__C                                  
00001410  ti_sysbios_heaps_HeapMem_Module__id__C                                    
00001412  ti_sysbios_knl_Task_initStackFlag__C                                      
00001414  ti_sysbios_knl_Clock_tickMode__C                                          
00001418  xdc_runtime_Startup_firstFxns__C                                          
00001420  xdc_runtime_Startup_lastFxns__C                                           
00001428  xdc_runtime_Assert_E_assertFailed__C                                      
0000142c  xdc_runtime_Error_E_memory__C                                             
00001430  xdc_runtime_Error_policyFxn__C                                            
00001434  xdc_runtime_IGateProvider_Interface__BASE__C                              
00001438  xdc_runtime_IHeap_Interface__BASE__C                                      
0000143c  xdc_runtime_IModule_Interface__BASE__C                                    
00001440  xdc_runtime_Main_Module__diagsEnabled__C                                  
00001444  xdc_runtime_Main_Module__diagsIncluded__C                                 
00001448  xdc_runtime_Main_Module__diagsMask__C                                     
0000144c  xdc_runtime_Memory_defaultHeapInstance__C                                 
00001450  xdc_runtime_Startup_execImpl__C                                           
00001454  xdc_runtime_Startup_maxPasses__C                                          
00001458  xdc_runtime_Startup_sfxnRts__C                                            
0000145c  xdc_runtime_Startup_sfxnTab__C                                            
00001460  xdc_runtime_Startup_startModsFxn__C                                       
00001464  xdc_runtime_SysCallback_abortFxn__C                                       
00001468  xdc_runtime_SysCallback_exitFxn__C                                        
0000146c  xdc_runtime_System_abortFxn__C                                            
00001470  xdc_runtime_System_exitFxn__C                                             
00001474  xdc_runtime_System_maxAtexitHandlers__C                                   
00001478  xdc_runtime_Text_charTab__C                                               
0000147c  xdc_runtime_Text_nameEmpty__C                                             
00001480  xdc_runtime_Text_nameStatic__C                                            
00001484  xdc_runtime_Text_nameUnknown__C                                           
00001488  xdc_runtime_Main_Module__id__C                                            
0000148a  xdc_runtime_Memory_Module__id__C                                          
0000148c  xdc_runtime_Text_charCnt__C                                               
0000148e  xdc_runtime_Text_isLoaded__C                                              
00001490  xdc_runtime_Error_policy__C                                               
00001494  ti_sysbios_rom_ROM_AONRTCChannelEnable                                    
00001498  ti_sysbios_rom_ROM_AONRTCCompareValueSet                                  
0000149c  ti_sysbios_rom_ROM_AONRTCCurrentCompareValueGet                           
000014a0  ti_sysbios_rom_ROM_AONRTCEventClear                                       
000014a4  ti_sysbios_rom_ROM_ti_sysbios_family_arm_cc26xx_Timer_getCount64__E       
000014a8  ti_sysbios_rom_ROM_ti_sysbios_family_arm_cc26xx_Timer_getCurrentTick__E   
000014ac  ti_sysbios_rom_ROM_ti_sysbios_family_arm_cc26xx_Timer_getMaxTicks__E      
000014b0  ti_sysbios_rom_ROM_ti_sysbios_family_arm_cc26xx_Timer_initDevice__I       
000014b4  ti_sysbios_rom_ROM_ti_sysbios_family_arm_cc26xx_Timer_setNextTick__E      
000014b8  ti_sysbios_rom_ROM_ti_sysbios_family_arm_cc26xx_Timer_setThreshold__I     
000014bc  ti_sysbios_rom_ROM_ti_sysbios_family_arm_cc26xx_Timer_start__E            
000014c0  ti_sysbios_rom_ROM_ti_sysbios_family_arm_cc26xx_TimestampProvider_get32__E
000014c4  ti_sysbios_rom_ROM_xdc_runtime_Startup_getState__I                        
000014c8  ti_sysbios_rom_ROM_xdc_runtime_System_SupportProxy_abort__E               
000014cc  ti_sysbios_rom_ROM_xdc_runtime_System_SupportProxy_exit__E                
000014d0  ti_sysbios_gates_GateMutex_Instance_State_sem__O                          
000014d4  ti_sysbios_knl_Clock_Module_State_clockQ__O                               
000014d8  ti_sysbios_knl_Mailbox_Instance_State_dataQue__O                          
000014dc  ti_sysbios_knl_Mailbox_Instance_State_dataSem__O                          
000014e0  ti_sysbios_knl_Mailbox_Instance_State_freeQue__O                          
000014e4  ti_sysbios_knl_Mailbox_Instance_State_freeSem__O                          
000014e8  ti_sysbios_knl_Semaphore_Instance_State_pendQ__O                          
000014ec  ti_sysbios_knl_Task_Module_State_inactiveQ__O                             
000014f1  PowerCC26XX_auxISR                                                        
000017fd  NOROM_SysCtrlSetRechargeBeforePowerDown                                   
00001a25  Power_sleep                                                               
00001c49  __aeabi_uldivmod                                                          
00001e3d  PIN_init                                                                  
00001ff5  PowerCC26XX_doCalibrate                                                   
00002185  taskFxn                                                                   
000022b5  NOROM_SetupAfterColdResetWakeupFromShutDownCfg3                           
000023d9  Power_init                                                                
000024ed  scifInit                                                                  
000025ed  NOROM_SetupAfterColdResetWakeupFromShutDownCfg2                           
000026dd  PowerCC26XX_standbyPolicy                                                 
00002a41  Power_releaseDependency                                                   
00002afd  Power_setDependency                                                       
00002bb1  xdc_runtime_Error_policyDefault__E                                        
00002c61  NOROM_SetupTrimDevice                                                     
00002c61  ti_sysbios_family_arm_cc26xx_Boot_trimDevice                              
00002d09  NOROM_SetupAfterColdResetWakeupFromShutDownCfg1                           
00002e51  __TI_auto_init                                                            
00002ef1  __aeabi_memcpy                                                            
00002ef1  __aeabi_memcpy4                                                           
00002ef1  __aeabi_memcpy8                                                           
00002ef1  memcpy                                                                    
00002f8d  PIN_open                                                                  
00003025  scifInitIo                                                                
000030bd  ti_sysbios_knl_Clock_workFuncDynamic__E                                   
00003155  ti_sysbios_family_arm_cc26xx_Timer_start__E                               
000031e5  CC1350_LAUNCHXL_sendExtFlashByte                                          
00003269  __aeabi_memclr                                                            
00003269  __aeabi_memclr4                                                           
00003269  __aeabi_memclr8                                                           
0000326b  __aeabi_memset                                                            
0000326b  __aeabi_memset4                                                           
0000326b  __aeabi_memset8                                                           
00003271  memset                                                                    
000032e5  NOROM_SetupSetVddrLevel                                                   
00003359  PowerCC26XX_initiateCalibration                                           
000033c5  NOROM_SetupGetTrimForAmpcompCtrl                                          
0000342d  NOROM_SetupGetTrimForAnabypassValue1                                      
00003495  NOROM_SysCtrlAdjustRechargeAfterPowerDown                                 
000034fd  NOROM_SysCtrl_DCDC_VoltageConditionalControl                              
00003565  __TI_decompress_lzss                                                      
00003635  __TI_writemsg                                                             
00003663  C$$IO$$                                                                   
00003667  __TI_readmsg                                                              
0000369d  NOROM_OSCHF_AttemptToSwitchToXosc                                         
00003765  NOROM_OSCClockSourceSet                                                   
000037c5  PowerCC26XX_calibrate                                                     
00003825  main                                                                      
00003885  scifReinitIo                                                              
000038e5  PowerCC26XX_RCOSC_clockFunc                                               
00003941  xdc_runtime_Startup_getState__I                                           
0000399d  PIN_remove                                                                
000039f5  HOSTwrite                                                                 
00003a4d  scifUninitIo                                                              
00003aa5  ClockP_construct                                                          
00003af5  NOROM_SetupSetCacheModeAccordingToCcfgSetting                             
00003b45  CC1350_LAUNCHXL_wakeUpExtFlash                                            
00003b91  copy_in                                                                   
00003bdd  ResetISR                                                                  
00003bdd  _c_int00                                                                  
00003c21  scifStartRtcTicks                                                         
00003c65  xdc_runtime_Error_setX__E                                                 
00003ca9  xdc_runtime_SysMin_flush__E                                               
00003ca9  xdc_runtime_System_SupportProxy_flush__E                                  
00003ca9  xdc_runtime_System_flush__E                                               
00003ced  CC1350_LAUNCHXL_shutDownExtFlash                                          
00003d6d  scifStartRtcTicksNow                                                      
00003dad  ti_sysbios_family_arm_cc26xx_Timer_setThreshold__I                        
00003ded  HwiP_construct                                                            
00003e2b  scCtrlReadyCallback                                                       
00003e2d  NOROM_ChipInfo_GetHwRevision                                              
00003e69  NOROM_OSC_HPOSCRelativeFrequencyOffsetGet                                 
00003ea5  SwiP_construct                                                            
00003f1d  ti_sysbios_family_arm_m3_Hwi_construct2__E                                
00003f59  PIN_setOutputValue                                                        
00003f91  ti_sysbios_family_arm_cc26xx_Timer_getCurrentTick__E                      
00003fc9  xdc_runtime_SysMin_putch__E                                               
00003fc9  xdc_runtime_System_SupportProxy_putch__E                                  
00004001  NOROM_OSCHF_SwitchToRcOscTurnOffXosc                                      
00004035  PIN_setConfig                                                             
00004069  Power_releaseConstraint                                                   
000040d1  scifAckAlertEvents                                                        
00004105  scifOsalInit                                                              
00004139  ti_sysbios_family_arm_cc26xx_Timer_initDevice__I                          
0000416d  ti_sysbios_family_arm_cc26xx_Timer_setNextTick__E                         
0000419f  ti_sysbios_BIOS_linkedWithIncorrectBootLibrary__E                         
000041a1  NOROM_ChipInfo_GetChipType                                                
000041d1  NOROM_SetupSetAonRtcSubSecInc                                             
00004201  Power_setConstraint                                                       
00004291  ti_sysbios_BIOS_atExitFunc__I                                             
000042c1  ti_sysbios_BIOS_startFunc__I                                              
000042f1  xdc_runtime_SysMin_abort__E                                               
000042f1  xdc_runtime_System_SupportProxy_abort__E                                  
00004321  NOROM_DDI32RegWrite                                                       
0000434d  NOROM_OSCClockSourceGet                                                   
00004379  NOROM_SetupGetTrimForRadcExtCfg                                           
000043a5  SemaphoreP_constructBinary                                                
00004429  ti_sysbios_knl_Clock_getTicksUntilInterrupt__E                            
00004455  NOROM_AONBatMonTemperatureGetDegC                                         
0000447d  SafeHapiVoid                                                              
000044a5  ti_sysbios_BIOS_registerRTSLock__I                                        
000044c9  ti_sysbios_BIOS_removeRTSLock__I                                          
000044ed  ti_sysbios_family_arm_cc26xx_Timer_getMaxTicks__E                         
00004511  NOROM_AUXADCAdjustValueForGainAndOffset                                   
00004533  NOROM_AUXADCUnadjustValueForGainAndOffset                                 
00004555  xdc_runtime_SysMin_output__I                                              
00004577  ti_sysbios_BIOS_nullFunc__I                                               
00004579  NOROM_SetupGetTrimForXoscHfCtl                                            
00004599  PowerCC26XX_schedulerDisable                                              
000045b9  PowerCC26XX_schedulerRestore                                              
000045d9  ti_sysbios_BIOS_rtsLock__I                                                
000045f9  ti_sysbios_family_arm_cc26xx_Timer_dynamicStub__E                         
00004619  ti_sysbios_knl_Clock_stop__E                                              
00004639  xdc_runtime_SysMin_Module_startup__E                                      
00004659  PIN_close                                                                 
00004677  Power_getTransitionLatency                                                
00004695  CC1350_LAUNCHXL_initGeneral                                               
000046b1  NOROM_AUXADCGetAdjustmentGain                                             
000046cd  NOROM_ChipInfo_GetChipFamily                                              
000046e9  NOROM_SetupGetTrimForAmpcompTh2                                           
00004705  NOROM_SetupGetTrimForRcOscLfRtuneCtuneTrim                                
00004759  ti_sysbios_family_arm_m3_Hwi_clearInterrupt__E                            
00004759  ti_sysbios_hal_Hwi_HwiProxy_clearInterrupt__E                             
00004759  ti_sysbios_hal_Hwi_clearInterrupt__E                                      
00004775  ti_sysbios_knl_Swi_construct2__E                                          
00004791  xdc_runtime_SysMin_exit__E                                                
00004791  xdc_runtime_System_SupportProxy_exit__E                                   
000047ad  NOROM_AONRTCCurrentCompareValueGet                                        
000047c5  NOROM_AUXADCGetAdjustmentOffset                                           
000047dd  NOROM_AUXADCMicrovoltsToValue                                             
000047f5  NOROM_ChipInfo_GetPackageType                                             
0000480d  NOROM_OSCHF_TurnOnXosc                                                    
00004825  NOROM_SetupGetTrimForAdcShModeEn                                          
0000483d  NOROM_SetupGetTrimForAdcShVbufEn                                          
00004855  NOROM_SetupGetTrimForAmpcompTh1                                           
0000486d  NOROM_SetupGetTrimForDblrLoopFilterResetVoltage                           
00004885  NOROM_SetupGetTrimForRcOscLfIBiasTrim                                     
0000489d  NOROM_SetupGetTrimForXoscLfRegulatorAndCmirrwrRatio                       
000048b5  Power_idleFunc                                                            
000048cd  _args_main                                                                
000048e5  __aeabi_lmul                                                              
000048fd  scifClearAlertIntSource                                                   
00004915  ti_sysbios_BIOS_rtsUnlock__I                                              
0000492d  ti_sysbios_knl_Swi_or__E                                                  
00004945  ti_sysbios_rom_cortexm_cc13xx_CC13xx_checkRevision__E                     
0000495d  xdc_runtime_Error_init__E                                                 
00004975  NOROM_ThisLibraryIsFor_CC13x0_HwRev20AndLater_HaltIfViolated              
0000498b  ti_sysbios_BIOS_errorRaiseHook__I                                         
000049a1  ti_sysbios_BIOS_exitFunc__I                                               
00004a0f  ti_sysbios_knl_Clock_triggerFunc__I                                       
00004a11  NOROM_AONRTCCurrent64BitValueGet                                          
00004a25  NOROM_AUXADCValueToMicrovolts                                             
00004a61  _register_unlock                                                          
00004a67  _register_lock                                                            
00004a6f  _nop                                                                      
00004a75  scTaskAlertCallback                                                       
00004a89  scifOsalRegisterCtrlReadyCallback                                         
00004a9d  scifOsalRegisterTaskAlertCallback                                         
00004ab1  ti_sysbios_knl_Clock_doTick__I                                            
00004ac5  SemaphoreP_pend                                                           
00004ad7  scifStartTasksNbl                                                         
00004afb  xdc_runtime_Startup_exec__I                                               
00004b0d  HwiP_Params_init                                                          
00004b1d  NOROM_SetupGetTrimForXoscHfFastStart                                      
00004b2d  NOROM_SetupGetTrimForXoscHfIbiastherm                                     
00004b3d  PINCC26XX_getPinCount                                                     
00004b4d  SwiP_Params_init                                                          
00004b5d  NOROM_VIMSModeGet                                                         
00004b6b  __TI_decompress_none                                                      
00004ba3  ti_sysbios_family_arm_cc26xx_TimestampProvider_get32__E                   
00004ba3  xdc_runtime_Timestamp_SupportProxy_get32__E__mangled__                    
00004bb1  NOROM_CPUcpsid                                                            
00004bbd  NOROM_CPUcpsie                                                            
00004bc9  NOROM_OSC_HPOSCRelativeFrequencyOffsetToRFCoreFormatConvert               
00004bd5  Power_getConstraintMask                                                   
00004be1  Power_getDependencyCount                                                  
00004bed  __TI_zero_init                                                            
00004c05  scifOsalLeaveCriticalSection                                              
00004c29  ti_sysbios_knl_Swi_getTrigger__E                                          
00004c35  xdc_runtime_Startup_reset__I                                              
00004c41  xdc_runtime_Startup_rtsDone__E                                            
00004c4d  ClockP_Params_init                                                        
00004c7f  scifOsalDisableTaskAlertInt                                               
00004c89  scifOsalEnableTaskAlertInt                                                
00004c93  Board_initHook                                                            
00004c9b  scifOsalEnterCriticalSection                                              
00004ca3  NOROM_CPUdelay                                                            
00004cad  ClockP_setTimeout                                                         
00004cb1  ClockP_start                                                              
00004cb5  ClockP_stop                                                               
00004cb9  HwiP_disable                                                              
00004cbd  SemaphoreP_post                                                           
00004cc1  SwiP_disable                                                              
00004cc5  SwiP_getTrigger                                                           
00004cc9  SwiP_or                                                                   
00004cd1  ti_sysbios_family_arm_cc26xx_Timer_getCount64__E                          
00004cd5  ti_sysbios_rom_cortexm_cc13xx_CC13xx_badRomRevision__E                    
00004cd7  xdc_runtime_SysCallback_defaultAbort                                      
00004cd9  xdc_runtime_SysCallback_defaultExit                                       
0001ffa8  __ccfg                                                                    
1001a001  ti_sysbios_knl_Semaphore_pend__E                                          
1001a0cd  ti_sysbios_knl_Mailbox_Instance_init__E                                   
1001a195  ti_sysbios_heaps_HeapMem_alloc__E                                         
1001a259  ti_sysbios_knl_Task_Instance_init__E                                      
1001a315  ti_sysbios_family_arm_m3_Hwi_postInit__I                                  
1001a3c5  ti_sysbios_family_arm_m3_Hwi_Instance_init__E                             
1001a465  ti_sysbios_family_arm_cc26xx_Timer_periodicStub__E                        
1001a4f9  ti_sysbios_knl_Task_Instance_finalize__E                                  
1001a58d  ti_sysbios_knl_Mailbox_post__E                                            
1001a611  ti_sysbios_knl_Task_postInit__I                                           
1001a695  ti_sysbios_family_arm_m3_Hwi_initNVIC__E                                  
1001a715  ti_sysbios_knl_Clock_startI__E                                            
1001a791  ti_sysbios_heaps_HeapMem_free__E                                          
1001a809  ti_sysbios_knl_Clock_walkQueueDynamic__E                                  
1001a881  ti_sysbios_knl_Clock_workFunc__E                                          
1001a8f9  ti_sysbios_knl_Mailbox_Instance_finalize__E                               
1001a969  ti_sysbios_knl_Mailbox_pend__E                                            
1001a9d9  ti_sysbios_knl_Task_sleep__E                                              
1001aa49  ti_sysbios_family_arm_m3_Hwi_dispatchC__I                                 
1001aab1  ti_sysbios_family_arm_m3_Hwi_Object__create__S                            
1001ab15  ti_sysbios_family_arm_m3_Hwi_create                                       
1001ab79  ti_sysbios_hal_Hwi_create                                                 
1001abdd  ti_sysbios_knl_Mailbox_create                                             
1001ac41  ti_sysbios_knl_Semaphore_post__E                                          
1001aca5  ti_sysbios_knl_Swi_Instance_init__E                                       
1001ad05  ti_sysbios_knl_Swi_create                                                 
1001ad61  ti_sysbios_knl_Swi_restoreHwi__E                                          
1001adbd  ti_sysbios_knl_Task_Module_startup__E                                     
1001ae19  ti_sysbios_knl_Task_create                                                
1001ae75  ti_sysbios_knl_Task_startCore__E                                          
1001aed1  ti_sysbios_family_arm_m3_Hwi_Instance_finalize__E                         
1001af29  ti_sysbios_family_arm_m3_Hwi_construct                                    
1001af81  ti_sysbios_knl_Mailbox_construct                                          
1001afd9  ti_sysbios_knl_Swi_run__I                                                 
1001b031  ti_sysbios_knl_Swi_schedule__I                                            
1001b085  ti_sysbios_knl_Swi_construct                                              
1001b0d5  ti_sysbios_knl_Swi_runLoop__I                                             
1001b125  ti_sysbios_knl_Task_construct                                             
1001b175  ti_sysbios_knl_Task_schedule__I                                           
1001b1c1  ti_sysbios_family_arm_m3_Hwi_Module_startup__E                            
1001b209  ti_sysbios_heaps_HeapMem_getStats__E                                      
1001b251  ti_sysbios_family_arm_m3_Hwi_disableInterrupt__E                          
1001b251  ti_sysbios_hal_Hwi_HwiProxy_disableInterrupt__E__mangled__                
1001b295  ti_sysbios_family_arm_m3_Hwi_enableInterrupt__E                           
1001b295  ti_sysbios_hal_Hwi_HwiProxy_enableInterrupt__E__mangled__                 
1001b2d9  ti_sysbios_knl_Mailbox_Module_startup__E                                  
1001b31d  ti_sysbios_knl_Swi_post__E                                                
1001b361  ti_sysbios_knl_Task_allBlockedFunction__I                                 
1001b3a5  ti_sysbios_knl_Task_yield__E                                              
1001b3e9  ti_sysbios_knl_Clock_create                                               
1001b425  ti_sysbios_knl_Task_exit__E                                               
1001b45f  ti_sysbios_gates_GateHwi_Instance_init__E                                 
1001b461  ti_sysbios_family_arm_m3_Hwi_getStackInfo__E                              
1001b461  ti_sysbios_hal_Hwi_HwiProxy_getStackInfo__E__mangled__                    
1001b499  ti_sysbios_family_arm_m3_TaskSupport_start__E                             
1001b499  ti_sysbios_knl_Task_SupportProxy_start__E__mangled__                      
1001b4d1  ti_sysbios_heaps_HeapMem_Instance_init__E                                 
1001b509  ti_sysbios_knl_Clock_Instance_init__E                                     
1001b541  ti_sysbios_heaps_HeapMem_init__I                                          
1001b575  ti_sysbios_knl_Clock_construct                                            
1001b5a9  ti_sysbios_knl_Semaphore_create                                           
1001b5dd  SwiP_restore                                                              
1001b5dd  ti_sysbios_knl_Swi_restore__E                                             
1001b611  ti_sysbios_knl_Task_blockI__E                                             
1001b645  ti_sysbios_gates_GateMutex_Object__create__S                              
1001b675  ti_sysbios_gates_GateMutex_create                                         
1001b6a5  ti_sysbios_gates_GateMutex_enter__E                                       
1001b6d5  ClockP_getSystemTicks                                                     
1001b6d5  ti_sysbios_knl_Clock_getTicks__E                                          
1001b705  ti_sysbios_knl_Semaphore_construct                                        
1001b735  ti_sysbios_knl_Task_processVitalTaskFlag__I                               
1001b765  ti_sysbios_family_arm_cc26xx_Timer_postInit__I                            
1001b791  ti_sysbios_family_arm_cc26xx_Timer_startup__E                             
1001b791  ti_sysbios_knl_Clock_TimerProxy_startup__E                                
1001b791  ti_sysbios_knl_Clock_TimerProxy_startup__E__mangled__                     
1001b7bd  ti_sysbios_family_arm_m3_Hwi_Object__get__S                               
1001b7e9  ti_sysbios_gates_GateMutex_construct                                      
1001b815  ti_sysbios_hal_Hwi_initStack                                              
1001b841  ti_sysbios_heaps_HeapMem_Object__create__S                                
1001b86d  ti_sysbios_heaps_HeapMem_Object__get__S                                   
1001b899  ti_sysbios_knl_Mailbox_Object__get__S                                     
1001b8c5  ti_sysbios_knl_Mailbox_postInit__I                                        
1001b8f1  ti_sysbios_knl_Queue_construct                                            
1001b91d  ti_sysbios_knl_Queue_create                                               
1001b949  ti_sysbios_knl_Semaphore_pendTimeout__I                                   
1001b975  ti_sysbios_knl_Swi_Object__get__S                                         
1001b9a1  ti_sysbios_knl_Task_unblockI__E                                           
1001b9cd  ti_sysbios_family_arm_cc26xx_TimestampProvider_get64__E                   
1001b9cd  xdc_runtime_Timestamp_SupportProxy_get64__E                               
1001b9cd  xdc_runtime_Timestamp_SupportProxy_get64__E__mangled__                    
1001b9cd  xdc_runtime_Timestamp_get64__E                                            
1001b9cd  xdc_runtime_Timestamp_get64__E                                            
1001b9f5  ti_sysbios_hal_Hwi_Instance_init__E                                       
1001ba1d  ti_sysbios_knl_Clock_addI__E                                              
1001ba45  ti_sysbios_knl_Task_restore__E                                            
1001ba6d  ti_sysbios_family_arm_cc26xx_Timer_Module_startup__E                      
1001ba91  ti_sysbios_gates_GateHwi_Object__create__S                                
1001bab5  ti_sysbios_BIOS_RtsGateProxy_Object__delete__S                            
1001bab5  ti_sysbios_gates_GateMutex_Object__delete__S                              
1001bab5  ti_sysbios_heaps_HeapMem_Module_GateProxy_Object__delete__S               
1001bad9  ti_sysbios_knl_Clock_Object__delete__S                                    
1001bafd  ti_sysbios_knl_Semaphore_Instance_init__E                                 
1001bb21  ti_sysbios_knl_Semaphore_Object__delete__S                                
1001bb45  ti_sysbios_family_arm_cc26xx_Timer_Module__startupDone__S                 
1001bb45  ti_sysbios_knl_Clock_TimerProxy_Module__startupDone__S__mangled__         
1001bb65  ti_sysbios_family_arm_cc26xx_TimestampProvider_Module_startup__E          
1001bb85  ti_sysbios_family_arm_m3_Hwi_Module__startupDone__S                       
1001bb85  ti_sysbios_hal_Hwi_HwiProxy_Module__startupDone__S__mangled__             
1001bba5  ti_sysbios_family_arm_m3_Hwi_Object__delete__S                            
1001bba5  ti_sysbios_hal_Hwi_HwiProxy_Object__delete__S                             
1001bbc5  ti_sysbios_family_arm_m3_Hwi_excHandler__I                                
1001bbe5  ti_sysbios_gates_GateHwi_Handle__label__S                                 
1001bbe5  xdc_runtime_Main_Module_GateProxy_Handle__label__S                        
1001bbe5  xdc_runtime_System_Module_GateProxy_Handle__label__S                      
1001bbe5  xdc_runtime_System_Module_GateProxy_Handle__label__S__mangled__           
1001bc05  ti_sysbios_gates_GateHwi_Object__delete__S                                
1001bc05  xdc_runtime_System_Module_GateProxy_Object__delete__S                     
1001bc25  ti_sysbios_BIOS_RtsGateProxy_Handle__label__S                             
1001bc25  ti_sysbios_BIOS_RtsGateProxy_Handle__label__S__mangled__                  
1001bc25  ti_sysbios_gates_GateMutex_Handle__label__S                               
1001bc25  ti_sysbios_heaps_HeapMem_Module_GateProxy_Handle__label__S                
1001bc25  ti_sysbios_heaps_HeapMem_Module_GateProxy_Handle__label__S__mangled__     
1001bc45  ti_sysbios_gates_GateMutex_Object__destruct__S                            
1001bc65  ti_sysbios_hal_Hwi_Object__delete__S                                      
1001bc85  ti_sysbios_heaps_HeapMem_Handle__label__S                                 
1001bc85  xdc_runtime_Memory_HeapProxy_Handle__label__S                             
1001bc85  xdc_runtime_Memory_HeapProxy_Handle__label__S__mangled__                  
1001bca5  ti_sysbios_heaps_HeapMem_Object__delete__S                                
1001bca5  xdc_runtime_Memory_HeapProxy_Object__delete__S                            
1001bcc5  ti_sysbios_knl_Clock_Module_startup__E                                    
1001bce5  ti_sysbios_knl_Clock_Object__destruct__S                                  
1001bd05  ti_sysbios_knl_Idle_run__E                                                
1001bd25  ti_sysbios_knl_Mailbox_Object__delete__S                                  
1001bd45  ti_sysbios_knl_Queue_Object__delete__S                                    
1001bd65  ti_sysbios_knl_Queue_Object__get__S                                       
1001bd85  ti_sysbios_knl_Semaphore_Object__destruct__S                              
1001bda5  ti_sysbios_knl_Swi_Object__delete__S                                      
1001bdc5  ti_sysbios_knl_Task_Object__delete__S                                     
1001bde5  ti_sysbios_knl_Task_Object__get__S                                        
1001be05  ti_sysbios_knl_Task_enter__I                                              
1001be25  ti_sysbios_knl_Task_restoreHwi__E                                         
1001be45  ti_sysbios_hal_Hwi_HwiProxy_create                                        
1001be63  ti_sysbios_knl_Clock_logTick__E                                           
1001be65  ti_sysbios_family_arm_m3_Hwi_Object__destruct__S                          
1001be81  ti_sysbios_family_arm_m3_Hwi_setPriority__E                               
1001be9d  ti_sysbios_gates_GateMutex_Instance_init__E                               
1001beb9  ti_sysbios_knl_Clock_scheduleNextTick__E                                  
1001bed5  ti_sysbios_knl_Mailbox_Object__destruct__S                                
1001bef1  ti_sysbios_knl_Queue_Object__destruct__S                                  
1001bf0d  ti_sysbios_knl_Queue_get__E                                               
1001bf29  ti_sysbios_knl_Queue_put__E                                               
1001bf45  ti_sysbios_knl_Swi_Object__destruct__S                                    
1001bf61  ti_sysbios_knl_Task_Object__destruct__S                                   
1001bf7d  ti_sysbios_knl_Task_sleepTimeout__I                                       
1001bf97  ti_sysbios_knl_Swi_Instance_finalize__E                                   
1001bf99  ti_sysbios_gates_GateMutex_leave__E                                       
1001bfb1  ti_sysbios_knl_Task_unblock__E                                            
1001bfc9  ti_sysbios_knl_Clock_Instance_finalize__E                                 
1001bfdf  ti_sysbios_knl_Clock_start__E                                             
1001bff5  ti_sysbios_BIOS_getCpuFreq__E                                             
1001c009  ti_sysbios_family_arm_m3_Hwi_switchFromBootStack__E                       
1001c009  ti_sysbios_hal_Hwi_HwiProxy_switchFromBootStack__E__mangled__             
1001c01d  ti_sysbios_hal_Hwi_Module_startup__E                                      
1001c031  ti_sysbios_BIOS_exit__E                                                   
1001c041  ti_sysbios_BIOS_setThreadType__E                                          
1001c051  ti_sysbios_BIOS_start__E                                                  
1001c061  ti_sysbios_family_arm_m3_Hwi_plug__E                                      
1001c071  ti_sysbios_gates_GateMutex_Instance_finalize__E                           
1001c081  ti_sysbios_hal_Hwi_HwiProxy_Object__create__S                             
1001c091  ti_sysbios_knl_Clock_TimerProxy_getCurrentTick__E                         
1001c0a1  ti_sysbios_knl_Clock_TimerProxy_getMaxTicks__E                            
1001c0b1  ti_sysbios_knl_Clock_TimerProxy_setNextTick__E                            
1001c0c1  ti_sysbios_knl_Semaphore_Instance_finalize__E                             
1001c0d1  ti_sysbios_knl_Swi_disable__E                                             
1001c0e1  ti_sysbios_knl_Swi_enabled__E                                             
1001c0f1  ti_sysbios_knl_Task_disable__E                                            
1001c101  ti_sysbios_heaps_HeapMem_restore__E                                       
1001c10f  ti_sysbios_knl_Queue_empty__E                                             
1001c11d  ti_sysbios_knl_Queue_remove__E                                            
1001c12b  ti_sysbios_family_arm_cc26xx_TimestampProvider_getFreq__E                 
1001c12b  xdc_runtime_Timestamp_SupportProxy_getFreq__E                             
1001c12b  xdc_runtime_Timestamp_SupportProxy_getFreq__E__mangled__                  
1001c12b  xdc_runtime_Timestamp_getFreq__E                                          
1001c12b  xdc_runtime_Timestamp_getFreq__E                                          
1001c139  ti_sysbios_family_arm_m3_Hwi_Params__init__S                              
1001c139  ti_sysbios_hal_Hwi_HwiProxy_Params__init__S                               
1001c139  ti_sysbios_hal_Hwi_HwiProxy_Params__init__S__mangled__                    
1001c145  ti_sysbios_family_arm_m3_Hwi_disableFxn__E                                
1001c151  ti_sysbios_family_arm_m3_Hwi_enableFxn__E                                 
1001c15d  ti_sysbios_family_arm_m3_TaskSupport_getStackAlignment__E                 
1001c15d  ti_sysbios_knl_Task_SupportProxy_getStackAlignment__E__mangled__          
1001c169  ti_sysbios_gates_GateHwi_enter__E                                         
1001c175  ti_sysbios_BIOS_RtsGateProxy_Params__init__S                              
1001c175  ti_sysbios_BIOS_RtsGateProxy_Params__init__S__mangled__                   
1001c175  ti_sysbios_gates_GateMutex_Params__init__S                                
1001c175  ti_sysbios_heaps_HeapMem_Module_GateProxy_Params__init__S                 
1001c175  ti_sysbios_heaps_HeapMem_Module_GateProxy_Params__init__S__mangled__      
1001c181  ti_sysbios_knl_Clock_Params__init__S                                      
1001c18d  ti_sysbios_knl_Clock_getTimerHandle__E                                    
1001c199  ti_sysbios_knl_Mailbox_Params__init__S                                    
1001c1a5  ti_sysbios_knl_Queue_dequeue__E                                           
1001c1b1  ti_sysbios_knl_Queue_enqueue__E                                           
1001c1bd  ti_sysbios_knl_Semaphore_Params__init__S                                  
1001c1c9  ti_sysbios_knl_Swi_Params__init__S                                        
1001c1d5  ti_sysbios_knl_Task_Params__init__S                                       
1001c1e1  ti_sysbios_knl_Task_self__E                                               
1001c1ed  ti_sysbios_hal_Hwi_Instance_finalize__E                                   
1001c1f7  ti_sysbios_family_arm_m3_Hwi_doSwiRestore__I                              
1001c1ff  ti_sysbios_family_arm_m3_Hwi_startup__E                                   
1001c1ff  ti_sysbios_hal_Hwi_HwiProxy_startup__E__mangled__                         
1001c207  ti_sysbios_knl_Idle_loop__E                                               
1001c20f  ti_sysbios_family_arm_m3_Hwi_doTaskRestore__I                             
1001c215  HwiP_restore                                                              
1001c215  ti_sysbios_family_arm_m3_Hwi_restoreFxn__E                                
1001c21b  ti_sysbios_gates_GateHwi_leave__E                                         
1001c227  ti_sysbios_knl_Queue_Instance_init__E                                     
1001c22d  ti_sysbios_knl_Queue_elemClear__E                                         
1001c233  ti_sysbios_knl_Swi_Module_startup__E                                      
1001c239  ti_sysbios_knl_Swi_startup__E                                             
1001c23f  ti_sysbios_knl_Task_enable__E                                             
1001c245  ti_sysbios_BIOS_RtsGateProxy_enter__E                                     
1001c249  ti_sysbios_BIOS_RtsGateProxy_leave__E                                     
1001c24d  ti_sysbios_family_arm_cc26xx_Timer_getExpiredTicks__E                     
1001c251  ti_sysbios_family_arm_cc26xx_Timer_getPeriod__E                           
1001c255  ti_sysbios_family_arm_cc26xx_Timer_setPeriod__E                           
1001c259  ti_sysbios_family_arm_m3_Hwi_delete                                       
1001c25d  ti_sysbios_family_arm_m3_Hwi_destruct                                     
1001c261  ti_sysbios_family_arm_m3_TaskSupport_Module__startupDone__S               
1001c261  ti_sysbios_knl_Task_SupportProxy_Module__startupDone__S__mangled__        
1001c265  ti_sysbios_gates_GateHwi_query__E                                         
1001c265  xdc_runtime_Main_Module_GateProxy_query__E                                
1001c265  xdc_runtime_System_Module_GateProxy_query__E                              
1001c265  xdc_runtime_System_Module_GateProxy_query__E__mangled__                   
1001c269  ti_sysbios_gates_GateMutex_delete                                         
1001c26d  ti_sysbios_gates_GateMutex_destruct                                       
1001c271  ti_sysbios_BIOS_RtsGateProxy_query__E                                     
1001c271  ti_sysbios_BIOS_RtsGateProxy_query__E__mangled__                          
1001c271  ti_sysbios_gates_GateMutex_query__E                                       
1001c271  ti_sysbios_heaps_HeapMem_Module_GateProxy_query__E                        
1001c271  ti_sysbios_heaps_HeapMem_Module_GateProxy_query__E__mangled__             
1001c275  ti_sysbios_hal_Hwi_HwiProxy_Module__startupDone__S                        
1001c279  ti_sysbios_hal_Hwi_HwiProxy_delete                                        
1001c27d  ti_sysbios_hal_Hwi_HwiProxy_disableInterrupt__E                           
1001c27d  ti_sysbios_hal_Hwi_disableInterrupt__E                                    
1001c27d  ti_sysbios_hal_Hwi_disableInterrupt__E                                    
1001c281  ti_sysbios_hal_Hwi_HwiProxy_enableInterrupt__E                            
1001c281  ti_sysbios_hal_Hwi_enableInterrupt__E                                     
1001c281  ti_sysbios_hal_Hwi_enableInterrupt__E                                     
1001c285  ti_sysbios_hal_Hwi_HwiProxy_getStackInfo__E                               
1001c285  ti_sysbios_hal_Hwi_getStackInfo__E                                        
1001c285  ti_sysbios_hal_Hwi_getStackInfo__E                                        
1001c289  ti_sysbios_hal_Hwi_HwiProxy_startup__E                                    
1001c289  ti_sysbios_hal_Hwi_startup__E                                             
1001c289  ti_sysbios_hal_Hwi_startup__E                                             
1001c28d  ti_sysbios_hal_Hwi_HwiProxy_switchFromBootStack__E                        
1001c291  ti_sysbios_hal_Hwi_delete                                                 
1001c295  ti_sysbios_hal_Hwi_switchFromBootStack__E                                 
1001c295  ti_sysbios_hal_Hwi_switchFromBootStack__E                                 
1001c299  ti_sysbios_heaps_HeapMem_Module_GateProxy_enter__E                        
1001c29d  ti_sysbios_heaps_HeapMem_Module_GateProxy_leave__E                        
1001c2a1  ti_sysbios_heaps_HeapMem_isBlocking__E                                    
1001c2a5  ti_sysbios_knl_Clock_TimerProxy_Module__startupDone__S                    
1001c2a9  ti_sysbios_knl_Clock_TimerProxy_getExpiredTicks__E                        
1001c2ad  ti_sysbios_knl_Clock_TimerProxy_getPeriod__E                              
1001c2b1  ti_sysbios_knl_Clock_delete                                               
1001c2b5  ti_sysbios_knl_Clock_destruct                                             
1001c2b9  ti_sysbios_knl_Clock_removeI__E                                           
1001c2bd  ti_sysbios_knl_Clock_setTimeout__E                                        
1001c2c1  ti_sysbios_knl_Mailbox_delete                                             
1001c2c5  ti_sysbios_knl_Mailbox_destruct                                           
1001c2c9  ti_sysbios_knl_Queue_delete                                               
1001c2cd  ti_sysbios_knl_Queue_destruct                                             
1001c2d1  ti_sysbios_knl_Queue_head__E                                              
1001c2d5  ti_sysbios_knl_Queue_next__E                                              
1001c2d9  ti_sysbios_knl_Semaphore_delete                                           
1001c2dd  ti_sysbios_knl_Semaphore_destruct                                         
1001c2e1  ti_sysbios_knl_Swi_delete                                                 
1001c2e5  ti_sysbios_knl_Swi_destruct                                               
1001c2e9  ti_sysbios_knl_Swi_postInit__I                                            
1001c2ed  ti_sysbios_knl_Task_SupportProxy_Module__startupDone__S                   
1001c2f1  ti_sysbios_knl_Task_SupportProxy_getStackAlignment__E                     
1001c2f5  ti_sysbios_knl_Task_SupportProxy_start__E                                 
1001c2f9  ti_sysbios_knl_Task_SupportProxy_swap__E                                  
1001c2fd  ti_sysbios_knl_Task_delete                                                
1001c301  ti_sysbios_knl_Task_destruct                                              
1001c305  ti_sysbios_knl_Task_startup__E                                            
1001c309  xdc_runtime_Startup_startMods__I                                          
1001c401  xdc_runtime_Core_createObject__I                                          
1001c483  xdc_runtime_Error_policySpin__E                                           
1001c485  xdc_runtime_Memory_alloc__E                                               
1001c4f5  xdc_runtime_Core_deleteObject__I                                          
1001c555  xdc_runtime_Startup_exec__E                                               
1001c5a5  xdc_runtime_Assert_raise__I                                               
1001c5ed  xdc_runtime_Core_assignParams__I                                          
1001c635  xdc_runtime_Core_constructObject__I                                       
1001c67d  xdc_runtime_System_atexit__E                                              
1001c6b5  xdc_runtime_System_processAtExit__E                                       
1001c6e9  xdc_runtime_Core_assignLabel__I                                           
1001c719  xdc_runtime_Text_cordText__E                                              
1001c745  xdc_runtime_System_abort__E                                               
1001c765  xdc_runtime_Error_raiseX__E                                               
1001c781  xdc_runtime_Memory_valloc__E                                              
1001c79d  xdc_runtime_Core_destructObject__I                                        
1001c7b5  xdc_runtime_Error_check__E                                                
1001c7cd  xdc_runtime_System_exit__E                                                
1001c7e5  xdc_runtime_Text_ropeText__E                                              
1001c7fd  xdc_runtime_Memory_free__E                                                
1001c80d  xdc_runtime_SysCallback_abort__E                                          
1001c81d  xdc_runtime_SysCallback_exit__E                                           
1001c82d  xdc_runtime_Timestamp_SupportProxy_get32__E                               
1001c82d  xdc_runtime_Timestamp_get32__E                                            
1001c82d  xdc_runtime_Timestamp_get32__E                                            
1001c849  xdc_runtime_Memory_calloc__E                                              
1001c855  xdc_runtime_Memory_getMaxDefaultTypeAlign__E                              
1001c875  xdc_runtime_Gate_leaveSystem__E                                           
1001c87b  xdc_runtime_System_Module_startup__E                                      
1001c881  xdc_runtime_Gate_enterSystem__E                                           
1001c885  xdc_runtime_Memory_HeapProxy_alloc__E                                     
1001c889  xdc_runtime_Memory_HeapProxy_free__E                                      
1001c88d  xdc_runtime_System_Module_GateProxy_enter__E                              
1001c891  xdc_runtime_System_Module_GateProxy_leave__E                              
1001c895  xdc_runtime_System_abortSpin__E                                           
1001c897  xdc_runtime_System_exitSpin__E                                            
1001c899  ti_sysbios_family_arm_m3_Hwi_dispatch__I                                  
1001c969  ti_sysbios_family_arm_m3_TaskSupport_buildTaskStack                       
1001c9b5  ti_sysbios_family_arm_m3_Hwi_initStacks__E                                
1001c9fd  ti_sysbios_family_arm_m3_Hwi_excHandlerAsm__I                             
1001ca1d  ti_sysbios_family_xxx_Hwi_switchAndRunFunc                                
1001ca3b  ti_sysbios_family_arm_m3_Hwi_pendSV__I                                    
1001ca53  ti_sysbios_family_arm_m3_Hwi_return                                       
1001ca55  ti_sysbios_family_arm_m3_TaskSupport_glue                                 
1001ca65  ti_sysbios_family_arm_m3_TaskSupport_swap__E                              
1001ca65  ti_sysbios_knl_Task_SupportProxy_swap__E__mangled__                       
1001ca6d  ti_sysbios_knl_Task_swapReturn                                            
1001ca97  ti_sysbios_rom_cortexm_cc13xx_CC13xx_getRevision__E                       
20000000  ti_sysbios_family_arm_m3_Hwi_ramVectors                                   
20000100  ti_sysbios_knl_Task_Module__state__V                                      
20000144  ti_sysbios_family_arm_m3_Hwi_Module__state__V                             
20000178  ti_sysbios_knl_Clock_Module__state__V                                     
200001a4  ti_sysbios_BIOS_Module__state__V                                          
200001c8  ti_sysbios_knl_Swi_Module__state__V                                       
200001e4  ti_sysbios_family_arm_cc26xx_Timer_Module__state__V                       
200001ec  ti_sysbios_family_arm_cc26xx_TimestampProvider_Module__state__V           
200001f0  xdc_runtime_Startup_Module__state__V                                      
200001f8  xdc_runtime_System_Module__state__V                                       
20000200  xdc_runtime_Memory_Module__state__V                                       
20000208  ti_sysbios_heaps_HeapMem_Instance_State_0_buf__A                          
20000a08  myTaskStack                                                               
20000e08  ti_sysbios_knl_Task_Instance_State_0_stack__A                             
20001008  xdc_runtime_SysMin_Module_State_0_outbuf__A                               
200011fc  __CIOBUF_                                                                 
2000131c  ti_sysbios_family_arm_m3_Hwi_dispatchTable                                
200013e4  myTask                                                                    
200014e8  ledPinState                                                               
200014f4  PowerCC26XX_taskKey                                                       
200014f8  PowerCC26XX_swiKey                                                        
20001504  parmbuf                                                                   
2000150c  ClockP_tickPeriod                                                         
20001510  driverlib_release_0_52354                                                 
20001518  pinUpperBound                                                             
2000151c  pinLowerBound                                                             
200015b0  pinHandleTable                                                            
2000162c  PowerCC26XX_module                                                        
20001740  ti_sysbios_knl_Swi_Module_State_0_readyQ__A                               
200017c0  ti_sysbios_knl_Task_Object__table__V                                      
2000180c  main_func_sp                                                              
20001810  ti_sysbios_family_arm_cc26xx_Timer_Object__table__V                       
20001858  ti_sysbios_gates_GateMutex_Object__table__V                               
20001890  ti_sysbios_knl_Swi_Object__table__V                                       
200018c0  ti_sysbios_knl_Clock_Object__table__V                                     
200018e0  ti_sysbios_knl_Task_Module_State_0_readyQ__A                              
20001900  xdc_runtime_Error_IgnoreBlock                                             
20001920  ti_sysbios_family_arm_m3_Hwi_Object__table__V                             
20001938  ti_sysbios_heaps_HeapMem_Object__table__V                                 
20001950  pLedPinTable                                                              
20001968  xdc_runtime_SysMin_Module__state__V                                       
20001974  _lock                                                                     
20001978  _unlock                                                                   
2000197c  ti_sysbios_family_arm_m3_Hwi_Module__root__V                              
20001984  ti_sysbios_gates_GateHwi_Module__root__V                                  
2000198c  ti_sysbios_gates_GateMutex_Module__root__V                                
20001994  ti_sysbios_hal_Hwi_Module__root__V                                        
2000199c  ti_sysbios_heaps_HeapMem_Module__root__V                                  
200019a4  ti_sysbios_knl_Clock_Module__root__V                                      
200019ac  ti_sysbios_knl_Mailbox_Module__root__V                                    
200019b4  ti_sysbios_knl_Queue_Module__root__V                                      
200019bc  ti_sysbios_knl_Semaphore_Module__root__V                                  
200019c4  ti_sysbios_knl_Swi_Module__root__V                                        
200019cc  ti_sysbios_knl_Task_Module__root__V                                       
200019d4  xdc_runtime_System_Module_State_0_atexitHandlers__A                       
200019dc  ti_sysbios_family_arm_m3_Hwi_Module_State_0_excContext__A                 
200019e0  ti_sysbios_family_arm_m3_Hwi_Module_State_0_excStack__A                   
200019e4  ti_sysbios_knl_Task_Module_State_0_idleTask__A                            
200019e8  ti_sysbios_family_arm_m3_Hwi_Module_State_0_excActive__A                  
200019ea  xdc_runtime_Error_Module__state__V                                        
20004d00  __stack                                                                   
20005000  __STACK_END                                                               
20005000  __STACK_TOP                                                               
e000e000  ti_sysbios_family_arm_m3_Hwi_nvic                                         
ffffffff  __TI_pprof_out_hndl                                                       
ffffffff  __TI_prof_data_size                                                       
ffffffff  __TI_prof_data_start                                                      
ffffffff  __binit__                                                                 
ffffffff  __c_args__                                                                
ffffffff  binit                                                                     
UNDEFED   SHT$$INIT_ARRAY$$Base                                                     
UNDEFED   SHT$$INIT_ARRAY$$Limit                                                    

[763 symbols]
