TI ARM Assembler PC v16.9.8 Mon Dec 10 17:47:35 2018

Tools Copyright (c) 1996-2017 Texas Instruments Incorporated
C:\Users\Einstein\AppData\Local\Temp\{D8717E8C-C6B2-43EB-B59B-6498A87373A3} PAGE    1

       1                    ;******************************************************************************
       2                    ;* TI ARM C/C++ Codegen                                        PC v16.9.8.LTS *
       3                    ;* Date/Time created: Mon Dec 10 17:47:35 2018                                *
       4                    ;******************************************************************************
       5                            .compiler_opts --abi=eabi --arm_vmrs_si_workaround=off --code_state=16 --diag_wrap=off --embed
       6 00000000                   .thumb
       7                    
       8                    $C$DW$CU        .dwtag  DW_TAG_compile_unit
       9                            .dwattr $C$DW$CU, DW_AT_name("../Application/MAC/OSAL/osal_timers.c")
      10                            .dwattr $C$DW$CU, DW_AT_producer("TI TI ARM C/C++ Codegen PC v16.9.8.LTS Copyright (c) 1996-20
      11                            .dwattr $C$DW$CU, DW_AT_TI_version(0x01)
      12                            .dwattr $C$DW$CU, DW_AT_comp_dir("C:\Users\Einstein\MyWorkspaceCC1350\sensor_cc1350lp\sensor_c
      13                    
      14                    $C$DW$1 .dwtag  DW_TAG_subprogram
      15                            .dwattr $C$DW$1, DW_AT_name("osal_mem_alloc")
      16                            .dwattr $C$DW$1, DW_AT_TI_symbol_name("osal_mem_alloc")
      17                            .dwattr $C$DW$1, DW_AT_type(*$C$DW$T$3)
      18                            .dwattr $C$DW$1, DW_AT_declaration
      19                            .dwattr $C$DW$1, DW_AT_external
      20                            .dwattr $C$DW$1, DW_AT_decl_file("C:\ti\simplelink_cc13x0_sdk_2_30_00_20\source\ti\ti154stack\
      21                            .dwattr $C$DW$1, DW_AT_decl_line(0x67)
      22                            .dwattr $C$DW$1, DW_AT_decl_column(0x09)
      23                    $C$DW$2 .dwtag  DW_TAG_formal_parameter
      24                            .dwattr $C$DW$2, DW_AT_type(*$C$DW$T$20)
      25                    
      26                            .dwendtag $C$DW$1
      27                    
      28                    
      29                    $C$DW$3 .dwtag  DW_TAG_subprogram
      30                            .dwattr $C$DW$3, DW_AT_name("osal_mem_free")
      31                            .dwattr $C$DW$3, DW_AT_TI_symbol_name("osal_mem_free")
      32                            .dwattr $C$DW$3, DW_AT_declaration
      33                            .dwattr $C$DW$3, DW_AT_external
      34                            .dwattr $C$DW$3, DW_AT_decl_file("C:\ti\simplelink_cc13x0_sdk_2_30_00_20\source\ti\ti154stack\
      35                            .dwattr $C$DW$3, DW_AT_decl_line(0x71)
      36                            .dwattr $C$DW$3, DW_AT_decl_column(0x08)
      37                    $C$DW$4 .dwtag  DW_TAG_formal_parameter
      38                            .dwattr $C$DW$4, DW_AT_type(*$C$DW$T$3)
      39                    
      40                            .dwendtag $C$DW$3
      41                    
      42                    
      43                    $C$DW$5 .dwtag  DW_TAG_subprogram
      44                            .dwattr $C$DW$5, DW_AT_name("osal_set_event")
      45                            .dwattr $C$DW$5, DW_AT_TI_symbol_name("osal_set_event")
      46                            .dwattr $C$DW$5, DW_AT_type(*$C$DW$T$21)
      47                            .dwattr $C$DW$5, DW_AT_declaration
      48                            .dwattr $C$DW$5, DW_AT_external
      49                            .dwattr $C$DW$5, DW_AT_decl_file("C:/ti/simplelink_cc13x0_sdk_2_30_00_20/source/ti/ti154stack/
      50                            .dwattr $C$DW$5, DW_AT_decl_line(0xe3)
      51                            .dwattr $C$DW$5, DW_AT_decl_column(0x10)
      52                    $C$DW$6 .dwtag  DW_TAG_formal_parameter
      53                            .dwattr $C$DW$6, DW_AT_type(*$C$DW$T$21)
      54                    
      55                    $C$DW$7 .dwtag  DW_TAG_formal_parameter
TI ARM Assembler PC v16.9.8 Mon Dec 10 17:47:35 2018

Tools Copyright (c) 1996-2017 Texas Instruments Incorporated
C:\Users\Einstein\AppData\Local\Temp\{D8717E8C-C6B2-43EB-B59B-6498A87373A3} PAGE    2

      56                            .dwattr $C$DW$7, DW_AT_type(*$C$DW$T$20)
      57                    
      58                            .dwendtag $C$DW$5
      59                    
      60                    $C$DW$8 .dwtag  DW_TAG_variable
      61                            .dwattr $C$DW$8, DW_AT_name("ICall_enterCriticalSection")
      62                            .dwattr $C$DW$8, DW_AT_TI_symbol_name("ICall_enterCriticalSection")
      63                            .dwattr $C$DW$8, DW_AT_type(*$C$DW$T$151)
      64                            .dwattr $C$DW$8, DW_AT_declaration
      65                            .dwattr $C$DW$8, DW_AT_external
      66                            .dwattr $C$DW$8, DW_AT_decl_file("C:/ti/simplelink_cc13x0_sdk_2_30_00_20/source/ti/ti154stack/
      67                            .dwattr $C$DW$8, DW_AT_decl_line(0x384)
      68                            .dwattr $C$DW$8, DW_AT_decl_column(0x16)
      69                    
      70                    $C$DW$9 .dwtag  DW_TAG_variable
      71                            .dwattr $C$DW$9, DW_AT_name("ICall_leaveCriticalSection")
      72                            .dwattr $C$DW$9, DW_AT_TI_symbol_name("ICall_leaveCriticalSection")
      73                            .dwattr $C$DW$9, DW_AT_type(*$C$DW$T$154)
      74                            .dwattr $C$DW$9, DW_AT_declaration
      75                            .dwattr $C$DW$9, DW_AT_external
      76                            .dwattr $C$DW$9, DW_AT_decl_file("C:/ti/simplelink_cc13x0_sdk_2_30_00_20/source/ti/ti154stack/
      77                            .dwattr $C$DW$9, DW_AT_decl_line(0x387)
      78                            .dwattr $C$DW$9, DW_AT_decl_column(0x16)
      79                    
      80 00000000           ||$O1$$||:      .usect  ".bss:$O1$$",8,4
      81                            .clink ".bss:$O1$$"
      82                    
      83                    ;*********************************************************************
      84                    ;* GROUPED GLOBALS FOR $O1$$                                         *
      85                    ;*********************************************************************
      86          00000000! timerHead:      .set    ||$O1$$||+0
      87                            .global timerHead
      88                    $C$DW$10        .dwtag  DW_TAG_variable
      89                            .dwattr $C$DW$10, DW_AT_name("timerHead")
      90                            .dwattr $C$DW$10, DW_AT_TI_symbol_name("timerHead")
      91                            .dwattr $C$DW$10, DW_AT_location[DW_OP_addr timerHead]
      92                            .dwattr $C$DW$10, DW_AT_type(*$C$DW$T$187)
      93                            .dwattr $C$DW$10, DW_AT_external
      94                            .dwattr $C$DW$10, DW_AT_decl_file("../Application/MAC/OSAL/osal_timers.c")
      95                            .dwattr $C$DW$10, DW_AT_decl_line(0x58)
      96                            .dwattr $C$DW$10, DW_AT_decl_column(0x11)
      97                    
      98          00000004! osal_systemClock:       .set    ||$O1$$||+4
      99                    $C$DW$11        .dwtag  DW_TAG_variable
     100                            .dwattr $C$DW$11, DW_AT_name("osal_systemClock")
     101                            .dwattr $C$DW$11, DW_AT_TI_symbol_name("osal_systemClock")
     102                            .dwattr $C$DW$11, DW_AT_type(*$C$DW$T$22)
     103                            .dwattr $C$DW$11, DW_AT_location[DW_OP_addr osal_systemClock]
     104                            .dwattr $C$DW$11, DW_AT_decl_file("../Application/MAC/OSAL/osal_timers.c")
     105                            .dwattr $C$DW$11, DW_AT_decl_line(0x66)
     106                            .dwattr $C$DW$11, DW_AT_decl_column(0x0f)
     107                    
     108                    ;       C:\ti\ccsv7\tools\compiler\ti-cgt-arm_16.9.8.LTS\bin\armopt.exe C:/Users/Einstein/MyWorkspaceC
     109 00000000                   .sect   ".text:osal_timer_num_active"
     110                            .clink
TI ARM Assembler PC v16.9.8 Mon Dec 10 17:47:35 2018

Tools Copyright (c) 1996-2017 Texas Instruments Incorporated
C:\Users\Einstein\AppData\Local\Temp\{D8717E8C-C6B2-43EB-B59B-6498A87373A3} PAGE    3

     111                            .thumbfunc osal_timer_num_active
     112 00000000                   .thumb
     113                            .global osal_timer_num_active
     114                    
     115                    $C$DW$12        .dwtag  DW_TAG_subprogram
     116                            .dwattr $C$DW$12, DW_AT_name("osal_timer_num_active")
     117                            .dwattr $C$DW$12, DW_AT_low_pc(osal_timer_num_active)
     118                            .dwattr $C$DW$12, DW_AT_high_pc(0x00)
     119                            .dwattr $C$DW$12, DW_AT_TI_symbol_name("osal_timer_num_active")
     120                            .dwattr $C$DW$12, DW_AT_external
     121                            .dwattr $C$DW$12, DW_AT_type(*$C$DW$T$21)
     122                            .dwattr $C$DW$12, DW_AT_TI_begin_file("../Application/MAC/OSAL/osal_timers.c")
     123                            .dwattr $C$DW$12, DW_AT_TI_begin_line(0x184)
     124                            .dwattr $C$DW$12, DW_AT_TI_begin_column(0x07)
     125                            .dwattr $C$DW$12, DW_AT_decl_file("../Application/MAC/OSAL/osal_timers.c")
     126                            .dwattr $C$DW$12, DW_AT_decl_line(0x184)
     127                            .dwattr $C$DW$12, DW_AT_decl_column(0x07)
     128                            .dwattr $C$DW$12, DW_AT_TI_max_frame_size(0x08)
     129                            .dwpsn  file "../Application/MAC/OSAL/osal_timers.c",line 389,column 1,is_stmt,address osal_ti
     130                    
     131                            .dwfde $C$DW$CIE, osal_timer_num_active
     132                    
     133                    ;*****************************************************************************
     134                    ;* FUNCTION NAME: osal_timer_num_active                                      *
     135                    ;*                                                                           *
     136                    ;*   Regs Modified     : A1,A2,A3,A4,V1,V9,SP,LR,SR                          *
     137                    ;*   Regs Used         : A1,A2,A3,A4,V1,V9,SP,LR,SR                          *
     138                    ;*   Local Frame Size  : 0 Args + 0 Auto + 8 Save = 8 byte                   *
     139                    ;*****************************************************************************
     140                    osal_timer_num_active:
     141                    ;* --------------------------------------------------------------------------*
     142                    ;* V1    assigned to num_timers
     143                    $C$DW$13        .dwtag  DW_TAG_variable
     144                            .dwattr $C$DW$13, DW_AT_name("num_timers")
     145                            .dwattr $C$DW$13, DW_AT_TI_symbol_name("num_timers")
     146                            .dwattr $C$DW$13, DW_AT_type(*$C$DW$T$21)
     147                            .dwattr $C$DW$13, DW_AT_location[DW_OP_reg4]
     148                    
     149                    ;* A2    assigned to srchTimer
     150                    $C$DW$14        .dwtag  DW_TAG_variable
     151                            .dwattr $C$DW$14, DW_AT_name("srchTimer")
     152                            .dwattr $C$DW$14, DW_AT_TI_symbol_name("srchTimer")
     153                            .dwattr $C$DW$14, DW_AT_type(*$C$DW$T$187)
     154                            .dwattr $C$DW$14, DW_AT_location[DW_OP_reg1]
     155                    
     156                            .dwcfi  cfa_offset, 0
     157                            .dwpsn  file "../Application/MAC/OSAL/osal_timers.c",line 394,column 3,is_stmt,isa 1
     158 00000000 4808              LDR       A1, $C$CON1           ; [DPU_3_PIPE] |394|  ; [ORIG 16-BIT INS]
     159 00000002 B510              PUSH      {V1, LR}              ; [DPU_3_PIPE]  ; [ORIG 16-BIT INS]
     160                            .dwcfi  cfa_offset, 8
     161                            .dwcfi  save_reg_to_mem, 14, -4
     162                            .dwcfi  save_reg_to_mem, 4, -8
     163 00000004 6800              LDR       A1, [A1, #0]          ; [DPU_3_PIPE] |394|  ; [ORIG 16-BIT INS]
     164                    $C$DW$15        .dwtag  DW_TAG_TI_branch
     165                            .dwattr $C$DW$15, DW_AT_low_pc(0x00)
TI ARM Assembler PC v16.9.8 Mon Dec 10 17:47:35 2018

Tools Copyright (c) 1996-2017 Texas Instruments Incorporated
C:\Users\Einstein\AppData\Local\Temp\{D8717E8C-C6B2-43EB-B59B-6498A87373A3} PAGE    4

     166                            .dwattr $C$DW$15, DW_AT_TI_call
     167                            .dwattr $C$DW$15, DW_AT_TI_indirect
     168                    
     169 00000006 4780              BLX       A1                    ; [DPU_3_PIPE] |394|  ; [ORIG 16-BIT INS]
     170                            ; CALL OCCURS {}                 ; [] |394| 
     171                            .dwpsn  file "../Application/MAC/OSAL/osal_timers.c",line 397,column 3,is_stmt,isa 1
     172 00000008 4907              LDR       A2, $C$CON2           ; [DPU_3_PIPE] |397|  ; [ORIG 16-BIT INS]
     173 0000000a 6809              LDR       A2, [A2, #0]          ; [DPU_3_PIPE] |397|  ; [ORIG 16-BIT INS]
     174                            .dwpsn  file "../Application/MAC/OSAL/osal_timers.c",line 391,column 20,is_stmt,isa 1
     175 0000000c 2400              MOVS      V1, #0                ; [DPU_3_PIPE] |391|  ; [ORIG 16-BIT INS]
     176                            .dwpsn  file "../Application/MAC/OSAL/osal_timers.c",line 400,column 11,is_stmt,isa 1
     177 0000000e E002              B         ||$C$L2||             ; [DPU_3_PIPE] |400|  ; [ORIG 16-BIT INS]
     178                            ; BRANCH OCCURS {||$C$L2||}      ; [] |400| 
     179                    ;* --------------------------------------------------------------------------*
     180 00000010           ||$C$L1||:    
     181                            .dwpsn  file "../Application/MAC/OSAL/osal_timers.c",line 403,column 5,is_stmt,isa 1
     182 00000010 6809              LDR       A2, [A2, #0]          ; [DPU_3_PIPE] |403|  ; [ORIG 16-BIT INS]
     183                            .dwpsn  file "../Application/MAC/OSAL/osal_timers.c",line 402,column 5,is_stmt,isa 1
     184 00000012 1C64              ADDS      V1, V1, #1            ; [DPU_3_PIPE] |402|  ; [ORIG 16-BIT INS]
     185 00000014 B2E4              UXTB      V1, V1                ; [DPU_3_PIPE] |402|  ; [ORIG 16-BIT INS]
     186                    ;* --------------------------------------------------------------------------*
     187                    ;*   BEGIN LOOP ||$C$L2||
     188                    ;* --------------------------------------------------------------------------*
     189 00000016           ||$C$L2||:    
     190                            .dwpsn  file "../Application/MAC/OSAL/osal_timers.c",line 400,column 11,is_stmt,isa 1
     191 00000016 2900              CMP       A2, #0                ; [DPU_3_PIPE] |400|  ; [ORIG 16-BIT INS]
     192 00000018 D1FA              BNE       ||$C$L1||             ; [DPU_3_PIPE] |400|  ; [ORIG 16-BIT INS]
     193                            ; BRANCHCC OCCURS {||$C$L1||}    ; [] |400| 
     194                    ;* --------------------------------------------------------------------------*
     195                            .dwpsn  file "../Application/MAC/OSAL/osal_timers.c",line 406,column 3,is_stmt,isa 1
     196 0000001a 4904              LDR       A2, $C$CON3           ; [DPU_3_PIPE] |406|  ; [ORIG 16-BIT INS]
     197 0000001c 6809              LDR       A2, [A2, #0]          ; [DPU_3_PIPE] |406|  ; [ORIG 16-BIT INS]
     198                    $C$DW$16        .dwtag  DW_TAG_TI_branch
     199                            .dwattr $C$DW$16, DW_AT_low_pc(0x00)
     200                            .dwattr $C$DW$16, DW_AT_TI_call
     201                            .dwattr $C$DW$16, DW_AT_TI_indirect
     202                    
     203 0000001e 4788              BLX       A2                    ; [DPU_3_PIPE] |406|  ; [ORIG 16-BIT INS]
     204                            ; CALL OCCURS {}                 ; [] |406| 
     205                            .dwpsn  file "../Application/MAC/OSAL/osal_timers.c",line 408,column 3,is_stmt,isa 1
     206 00000020 4620              MOV       A1, V1                ; [DPU_3_PIPE] |408|  ; [ORIG 16-BIT INS]
     207                    $C$DW$17        .dwtag  DW_TAG_TI_branch
     208                            .dwattr $C$DW$17, DW_AT_low_pc(0x00)
     209                            .dwattr $C$DW$17, DW_AT_TI_return
     210                    
     211 00000022 BD10              POP       {V1, PC}              ; [DPU_3_PIPE]  ; [ORIG 16-BIT INS]
     212                            .dwcfi  cfa_offset, 0
     213                            .dwcfi  restore_reg, 4
     214                            ; BRANCH OCCURS                  ; [] 
     215                            .dwattr $C$DW$12, DW_AT_TI_end_file("../Application/MAC/OSAL/osal_timers.c")
     216                            .dwattr $C$DW$12, DW_AT_TI_end_line(0x199)
     217                            .dwattr $C$DW$12, DW_AT_TI_end_column(0x01)
     218                            .dwendentry
     219                            .dwendtag $C$DW$12
     220                    
TI ARM Assembler PC v16.9.8 Mon Dec 10 17:47:35 2018

Tools Copyright (c) 1996-2017 Texas Instruments Incorporated
C:\Users\Einstein\AppData\Local\Temp\{D8717E8C-C6B2-43EB-B59B-6498A87373A3} PAGE    5

     221 00000000                   .sect   ".text:osalFindTimer"
     222                            .clink
     223                            .thumbfunc osalFindTimer
     224 00000000                   .thumb
     225                            .global osalFindTimer
     226                    
     227                    $C$DW$18        .dwtag  DW_TAG_subprogram
     228                            .dwattr $C$DW$18, DW_AT_name("osalFindTimer")
     229                            .dwattr $C$DW$18, DW_AT_low_pc(osalFindTimer)
     230                            .dwattr $C$DW$18, DW_AT_high_pc(0x00)
     231                            .dwattr $C$DW$18, DW_AT_TI_symbol_name("osalFindTimer")
     232                            .dwattr $C$DW$18, DW_AT_external
     233                            .dwattr $C$DW$18, DW_AT_type(*$C$DW$T$187)
     234                            .dwattr $C$DW$18, DW_AT_TI_begin_file("../Application/MAC/OSAL/osal_timers.c")
     235                            .dwattr $C$DW$18, DW_AT_TI_begin_line(0xd0)
     236                            .dwattr $C$DW$18, DW_AT_TI_begin_column(0x11)
     237                            .dwattr $C$DW$18, DW_AT_decl_file("../Application/MAC/OSAL/osal_timers.c")
     238                            .dwattr $C$DW$18, DW_AT_decl_line(0xd0)
     239                            .dwattr $C$DW$18, DW_AT_decl_column(0x11)
     240                            .dwattr $C$DW$18, DW_AT_TI_max_frame_size(0x00)
     241                            .dwpsn  file "../Application/MAC/OSAL/osal_timers.c",line 209,column 1,is_stmt,address osalFin
     242                    
     243                            .dwfde $C$DW$CIE, osalFindTimer
     244                    $C$DW$19        .dwtag  DW_TAG_formal_parameter
     245                            .dwattr $C$DW$19, DW_AT_name("task_id")
     246                            .dwattr $C$DW$19, DW_AT_TI_symbol_name("task_id")
     247                            .dwattr $C$DW$19, DW_AT_type(*$C$DW$T$10)
     248                            .dwattr $C$DW$19, DW_AT_location[DW_OP_reg0]
     249                    
     250                    $C$DW$20        .dwtag  DW_TAG_formal_parameter
     251                            .dwattr $C$DW$20, DW_AT_name("event_flag")
     252                            .dwattr $C$DW$20, DW_AT_TI_symbol_name("event_flag")
     253                            .dwattr $C$DW$20, DW_AT_type(*$C$DW$T$10)
     254                            .dwattr $C$DW$20, DW_AT_location[DW_OP_reg1]
     255                    
     256                    
     257                    ;*****************************************************************************
     258                    ;* FUNCTION NAME: osalFindTimer                                              *
     259                    ;*                                                                           *
     260                    ;*   Regs Modified     : A1,A3,A4,SR                                         *
     261                    ;*   Regs Used         : A1,A2,A3,A4,LR,SR                                   *
     262                    ;*   Local Frame Size  : 0 Args + 0 Auto + 0 Save = 0 byte                   *
     263                    ;*****************************************************************************
     264                    osalFindTimer:
     265                    ;* --------------------------------------------------------------------------*
     266                    ;* A3    assigned to task_id
     267                    $C$DW$21        .dwtag  DW_TAG_variable
     268                            .dwattr $C$DW$21, DW_AT_name("task_id")
     269                            .dwattr $C$DW$21, DW_AT_TI_symbol_name("task_id")
     270                            .dwattr $C$DW$21, DW_AT_type(*$C$DW$T$239)
     271                            .dwattr $C$DW$21, DW_AT_location[DW_OP_reg2]
     272                    
     273                    ;* A2    assigned to event_flag
     274                    $C$DW$22        .dwtag  DW_TAG_variable
     275                            .dwattr $C$DW$22, DW_AT_name("event_flag")
TI ARM Assembler PC v16.9.8 Mon Dec 10 17:47:35 2018

Tools Copyright (c) 1996-2017 Texas Instruments Incorporated
C:\Users\Einstein\AppData\Local\Temp\{D8717E8C-C6B2-43EB-B59B-6498A87373A3} PAGE    6

     276                            .dwattr $C$DW$22, DW_AT_TI_symbol_name("event_flag")
     277                            .dwattr $C$DW$22, DW_AT_type(*$C$DW$T$248)
     278                            .dwattr $C$DW$22, DW_AT_location[DW_OP_reg1]
     279                    
     280                    ;* A1    assigned to srchTimer
     281                    $C$DW$23        .dwtag  DW_TAG_variable
     282                            .dwattr $C$DW$23, DW_AT_name("srchTimer")
     283                            .dwattr $C$DW$23, DW_AT_TI_symbol_name("srchTimer")
     284                            .dwattr $C$DW$23, DW_AT_type(*$C$DW$T$187)
     285                            .dwattr $C$DW$23, DW_AT_location[DW_OP_reg0]
     286                    
     287                            .dwcfi  cfa_offset, 0
     288 00000000 4602              MOV       A3, A1                ; [DPU_3_PIPE] |209|  ; [ORIG 16-BIT INS]
     289                            .dwpsn  file "../Application/MAC/OSAL/osal_timers.c",line 213,column 3,is_stmt,isa 1
     290 00000002 4806              LDR       A1, $C$CON5           ; [DPU_3_PIPE] |213|  ; [ORIG 16-BIT INS]
     291 00000004 6800              LDR       A1, [A1, #0]          ; [DPU_3_PIPE] |213|  ; [ORIG 16-BIT INS]
     292                            .dwpsn  file "../Application/MAC/OSAL/osal_timers.c",line 216,column 3,is_stmt,isa 1
     293 00000006 E000              B         ||$C$L4||             ; [DPU_3_PIPE] |216|  ; [ORIG 16-BIT INS]
     294                            ; BRANCH OCCURS {||$C$L4||}      ; [] |216| 
     295                    ;* --------------------------------------------------------------------------*
     296 00000008           ||$C$L3||:    
     297                            .dwpsn  file "../Application/MAC/OSAL/osal_timers.c",line 225,column 5,is_stmt,isa 1
     298 00000008 6800              LDR       A1, [A1, #0]          ; [DPU_3_PIPE] |225|  ; [ORIG 16-BIT INS]
     299                    ;* --------------------------------------------------------------------------*
     300                    ;*   BEGIN LOOP ||$C$L4||
     301                    ;* --------------------------------------------------------------------------*
     302 0000000a           ||$C$L4||:    
     303 0000000a B128              CBZ       A1, ||$C$L5||         ; []  ; [ORIG 16-BIT INS]
     304                            .dwpsn  file "../Application/MAC/OSAL/osal_timers.c",line 216,column 3,is_stmt,isa 1
     305                            ; BRANCHCC OCCURS {||$C$L5||}    ; [] |216| 
     306                    ;* --------------------------------------------------------------------------*
     307                            .dwpsn  file "../Application/MAC/OSAL/osal_timers.c",line 221,column 7,is_stmt,isa 1
     308 0000000c 8903              LDRH      A4, [A1, #8]          ; [DPU_3_PIPE] |221|  ; [ORIG 16-BIT INS]
     309 0000000e 4299              CMP       A2, A4                ; [DPU_3_PIPE] |221|  ; [ORIG 16-BIT INS]
     310 00000010 D1FA              BNE       ||$C$L3||             ; [DPU_3_PIPE] |221|  ; [ORIG 16-BIT INS]
     311                            ; BRANCHCC OCCURS {||$C$L3||}    ; [] |221| 
     312                    ;* --------------------------------------------------------------------------*
     313 00000012 7A83              LDRB      A4, [A1, #10]         ; [DPU_3_PIPE] |221|  ; [ORIG 16-BIT INS]
     314 00000014 429A              CMP       A3, A4                ; [DPU_3_PIPE] |221|  ; [ORIG 16-BIT INS]
     315 00000016 D1F7              BNE       ||$C$L3||             ; [DPU_3_PIPE] |221|  ; [ORIG 16-BIT INS]
     316                            ; BRANCHCC OCCURS {||$C$L3||}    ; [] |221| 
     317                    ;* --------------------------------------------------------------------------*
     318                    ||$C$L5||:    
     319                    $C$DW$24        .dwtag  DW_TAG_TI_branch
     320                            .dwattr $C$DW$24, DW_AT_low_pc(0x00)
     321                            .dwattr $C$DW$24, DW_AT_TI_return
     322                    
     323 00000018 4770              BX        LR                    ; [DPU_3_PIPE]  ; [ORIG 16-BIT INS]
     324                            ; BRANCH OCCURS                  ; [] 
     325                            .dwattr $C$DW$18, DW_AT_TI_end_file("../Application/MAC/OSAL/osal_timers.c")
     326                            .dwattr $C$DW$18, DW_AT_TI_end_line(0xe5)
     327                            .dwattr $C$DW$18, DW_AT_TI_end_column(0x01)
     328                            .dwendentry
     329                            .dwendtag $C$DW$18
     330                    
TI ARM Assembler PC v16.9.8 Mon Dec 10 17:47:35 2018

Tools Copyright (c) 1996-2017 Texas Instruments Incorporated
C:\Users\Einstein\AppData\Local\Temp\{D8717E8C-C6B2-43EB-B59B-6498A87373A3} PAGE    7

     331 00000000                   .sect   ".text:osalDeleteTimer"
     332                            .clink
     333                            .thumbfunc osalDeleteTimer
     334 00000000                   .thumb
     335                            .global osalDeleteTimer
     336                    
     337                    $C$DW$25        .dwtag  DW_TAG_subprogram
     338                            .dwattr $C$DW$25, DW_AT_name("osalDeleteTimer")
     339                            .dwattr $C$DW$25, DW_AT_low_pc(osalDeleteTimer)
     340                            .dwattr $C$DW$25, DW_AT_high_pc(0x00)
     341                            .dwattr $C$DW$25, DW_AT_TI_symbol_name("osalDeleteTimer")
     342                            .dwattr $C$DW$25, DW_AT_external
     343                            .dwattr $C$DW$25, DW_AT_TI_begin_file("../Application/MAC/OSAL/osal_timers.c")
     344                            .dwattr $C$DW$25, DW_AT_TI_begin_line(0xf1)
     345                            .dwattr $C$DW$25, DW_AT_TI_begin_column(0x06)
     346                            .dwattr $C$DW$25, DW_AT_decl_file("../Application/MAC/OSAL/osal_timers.c")
     347                            .dwattr $C$DW$25, DW_AT_decl_line(0xf1)
     348                            .dwattr $C$DW$25, DW_AT_decl_column(0x06)
     349                            .dwattr $C$DW$25, DW_AT_TI_max_frame_size(0x00)
     350                            .dwpsn  file "../Application/MAC/OSAL/osal_timers.c",line 242,column 1,is_stmt,address osalDel
     351                    
     352                            .dwfde $C$DW$CIE, osalDeleteTimer
     353                    $C$DW$26        .dwtag  DW_TAG_formal_parameter
     354                            .dwattr $C$DW$26, DW_AT_name("rmTimer")
     355                            .dwattr $C$DW$26, DW_AT_TI_symbol_name("rmTimer")
     356                            .dwattr $C$DW$26, DW_AT_type(*$C$DW$T$187)
     357                            .dwattr $C$DW$26, DW_AT_location[DW_OP_reg0]
     358                    
     359                    
     360                    ;*****************************************************************************
     361                    ;* FUNCTION NAME: osalDeleteTimer                                            *
     362                    ;*                                                                           *
     363                    ;*   Regs Modified     : A2,SR                                               *
     364                    ;*   Regs Used         : A1,A2,LR,SR                                         *
     365                    ;*   Local Frame Size  : 0 Args + 0 Auto + 0 Save = 0 byte                   *
     366                    ;*****************************************************************************
     367                    osalDeleteTimer:
     368                    ;* --------------------------------------------------------------------------*
     369                    ;* A1    assigned to rmTimer
     370                    $C$DW$27        .dwtag  DW_TAG_variable
     371                            .dwattr $C$DW$27, DW_AT_name("rmTimer")
     372                            .dwattr $C$DW$27, DW_AT_TI_symbol_name("rmTimer")
     373                            .dwattr $C$DW$27, DW_AT_type(*$C$DW$T$190)
     374                            .dwattr $C$DW$27, DW_AT_location[DW_OP_reg0]
     375                    
     376                            .dwcfi  cfa_offset, 0
     377 00000000 B108              CBZ       A1, ||$C$L6||         ; []  ; [ORIG 16-BIT INS]
     378                            .dwpsn  file "../Application/MAC/OSAL/osal_timers.c",line 248,column 5,is_stmt,isa 1
     379 00000002 2100              MOVS      A2, #0                ; [DPU_3_PIPE] |248|  ; [ORIG 16-BIT INS]
     380 00000004 8101              STRH      A2, [A1, #8]          ; [DPU_3_PIPE] |248|  ; [ORIG 16-BIT INS]
     381                    ;* --------------------------------------------------------------------------*
     382                    ||$C$L6||:    
     383                    $C$DW$28        .dwtag  DW_TAG_TI_branch
     384                            .dwattr $C$DW$28, DW_AT_low_pc(0x00)
     385                            .dwattr $C$DW$28, DW_AT_TI_return
TI ARM Assembler PC v16.9.8 Mon Dec 10 17:47:35 2018

Tools Copyright (c) 1996-2017 Texas Instruments Incorporated
C:\Users\Einstein\AppData\Local\Temp\{D8717E8C-C6B2-43EB-B59B-6498A87373A3} PAGE    8

     386                    
     387 00000006 4770              BX        LR                    ; [DPU_3_PIPE]  ; [ORIG 16-BIT INS]
     388                            ; BRANCH OCCURS                  ; [] 
     389                            .dwattr $C$DW$25, DW_AT_TI_end_file("../Application/MAC/OSAL/osal_timers.c")
     390                            .dwattr $C$DW$25, DW_AT_TI_end_line(0xfa)
     391                            .dwattr $C$DW$25, DW_AT_TI_end_column(0x01)
     392                            .dwendentry
     393                            .dwendtag $C$DW$25
     394                    
     395 00000000                   .sect   ".text:osal_stop_timerEx"
     396                            .clink
     397                            .thumbfunc osal_stop_timerEx
     398 00000000                   .thumb
     399                            .global osal_stop_timerEx
     400                    
     401                    $C$DW$29        .dwtag  DW_TAG_subprogram
     402                            .dwattr $C$DW$29, DW_AT_name("osal_stop_timerEx")
     403                            .dwattr $C$DW$29, DW_AT_low_pc(osal_stop_timerEx)
     404                            .dwattr $C$DW$29, DW_AT_high_pc(0x00)
     405                            .dwattr $C$DW$29, DW_AT_TI_symbol_name("osal_stop_timerEx")
     406                            .dwattr $C$DW$29, DW_AT_external
     407                            .dwattr $C$DW$29, DW_AT_type(*$C$DW$T$21)
     408                            .dwattr $C$DW$29, DW_AT_TI_begin_file("../Application/MAC/OSAL/osal_timers.c")
     409                            .dwattr $C$DW$29, DW_AT_TI_begin_line(0x14a)
     410                            .dwattr $C$DW$29, DW_AT_TI_begin_column(0x07)
     411                            .dwattr $C$DW$29, DW_AT_decl_file("../Application/MAC/OSAL/osal_timers.c")
     412                            .dwattr $C$DW$29, DW_AT_decl_line(0x14a)
     413                            .dwattr $C$DW$29, DW_AT_decl_column(0x07)
     414                            .dwattr $C$DW$29, DW_AT_TI_max_frame_size(0x10)
     415                            .dwpsn  file "../Application/MAC/OSAL/osal_timers.c",line 331,column 1,is_stmt,address osal_st
     416                    
     417                            .dwfde $C$DW$CIE, osal_stop_timerEx
     418                    $C$DW$30        .dwtag  DW_TAG_formal_parameter
     419                            .dwattr $C$DW$30, DW_AT_name("task_id")
     420                            .dwattr $C$DW$30, DW_AT_TI_symbol_name("task_id")
     421                            .dwattr $C$DW$30, DW_AT_type(*$C$DW$T$10)
     422                            .dwattr $C$DW$30, DW_AT_location[DW_OP_reg0]
     423                    
     424                    $C$DW$31        .dwtag  DW_TAG_formal_parameter
     425                            .dwattr $C$DW$31, DW_AT_name("event_id")
     426                            .dwattr $C$DW$31, DW_AT_TI_symbol_name("event_id")
     427                            .dwattr $C$DW$31, DW_AT_type(*$C$DW$T$10)
     428                            .dwattr $C$DW$31, DW_AT_location[DW_OP_reg1]
     429                    
     430                    
     431                    ;*****************************************************************************
     432                    ;* FUNCTION NAME: osal_stop_timerEx                                          *
     433                    ;*                                                                           *
     434                    ;*   Regs Modified     : A1,A2,A3,A4,V1,V2,V3,V9,SP,LR,SR                    *
     435                    ;*   Regs Used         : A1,A2,A3,A4,V1,V2,V3,V9,SP,LR,SR                    *
     436                    ;*   Local Frame Size  : 0 Args + 0 Auto + 16 Save = 16 byte                 *
     437                    ;*****************************************************************************
     438                    osal_stop_timerEx:
     439                    ;* --------------------------------------------------------------------------*
     440                    ;* V3    assigned to intState
TI ARM Assembler PC v16.9.8 Mon Dec 10 17:47:35 2018

Tools Copyright (c) 1996-2017 Texas Instruments Incorporated
C:\Users\Einstein\AppData\Local\Temp\{D8717E8C-C6B2-43EB-B59B-6498A87373A3} PAGE    9

     441                    $C$DW$32        .dwtag  DW_TAG_variable
     442                            .dwattr $C$DW$32, DW_AT_name("intState")
     443                            .dwattr $C$DW$32, DW_AT_TI_symbol_name("intState")
     444                            .dwattr $C$DW$32, DW_AT_type(*$C$DW$T$264)
     445                            .dwattr $C$DW$32, DW_AT_location[DW_OP_reg6]
     446                    
     447                    ;* V1    assigned to foundTimer
     448                    $C$DW$33        .dwtag  DW_TAG_variable
     449                            .dwattr $C$DW$33, DW_AT_name("foundTimer")
     450                            .dwattr $C$DW$33, DW_AT_TI_symbol_name("foundTimer")
     451                            .dwattr $C$DW$33, DW_AT_type(*$C$DW$T$187)
     452                            .dwattr $C$DW$33, DW_AT_location[DW_OP_reg4]
     453                    
     454                            .dwcfi  cfa_offset, 0
     455 00000000 B570              PUSH      {V1, V2, V3, LR}      ; [DPU_3_PIPE]  ; [ORIG 16-BIT INS]
     456                            .dwcfi  cfa_offset, 16
     457                            .dwcfi  save_reg_to_mem, 14, -4
     458                            .dwcfi  save_reg_to_mem, 6, -8
     459                            .dwcfi  save_reg_to_mem, 5, -12
     460                            .dwcfi  save_reg_to_mem, 4, -16
     461 00000002 4605              MOV       V2, A1                ; [DPU_3_PIPE] |331|  ; [ORIG 16-BIT INS]
     462                            .dwpsn  file "../Application/MAC/OSAL/osal_timers.c",line 335,column 3,is_stmt,isa 1
     463 00000004 480A              LDR       A1, $C$CON8           ; [DPU_3_PIPE] |335|  ; [ORIG 16-BIT INS]
     464 00000006 6800              LDR       A1, [A1, #0]          ; [DPU_3_PIPE] |335|  ; [ORIG 16-BIT INS]
     465                            .dwpsn  file "../Application/MAC/OSAL/osal_timers.c",line 331,column 1,is_stmt,isa 1
     466 00000008 460C              MOV       V1, A2                ; [DPU_3_PIPE] |331|  ; [ORIG 16-BIT INS]
     467                            .dwpsn  file "../Application/MAC/OSAL/osal_timers.c",line 335,column 3,is_stmt,isa 1
     468                    $C$DW$34        .dwtag  DW_TAG_TI_branch
     469                            .dwattr $C$DW$34, DW_AT_low_pc(0x00)
     470                            .dwattr $C$DW$34, DW_AT_TI_call
     471                            .dwattr $C$DW$34, DW_AT_TI_indirect
     472                    
     473 0000000a 4780              BLX       A1                    ; [DPU_3_PIPE] |335|  ; [ORIG 16-BIT INS]
     474                            ; CALL OCCURS {}                 ; [] |335| 
     475 0000000c 4606              MOV       V3, A1                ; [DPU_3_PIPE] |335|  ; [ORIG 16-BIT INS]
     476                            .dwpsn  file "../Application/MAC/OSAL/osal_timers.c",line 338,column 3,is_stmt,isa 1
     477 0000000e 4621              MOV       A2, V1                ; [DPU_3_PIPE] |338|  ; [ORIG 16-BIT INS]
     478 00000010 4628              MOV       A1, V2                ; [DPU_3_PIPE] |338|  ; [ORIG 16-BIT INS]
     479                    $C$DW$35        .dwtag  DW_TAG_TI_branch
     480                            .dwattr $C$DW$35, DW_AT_low_pc(0x00)
     481                            .dwattr $C$DW$35, DW_AT_name("osalFindTimer")
     482                            .dwattr $C$DW$35, DW_AT_TI_call
     483                    
     484 00000012 FFFEF7FF!         BL        osalFindTimer         ; [DPU_3_PIPE] |338|  ; [KEEP 32-BIT INS]
     485                            ; CALL OCCURS {osalFindTimer }   ; [] |338| 
     486                            .dwpsn  file "../Application/MAC/OSAL/osal_timers.c",line 339,column 3,is_stmt,isa 1
     487 00000016 1C04              MOVS      V1, A1                ; [DPU_3_PIPE] |339|  ; [ORIG 16-BIT INS]
     488 00000018 D001              BEQ       ||$C$L7||             ; [DPU_3_PIPE] |339|  ; [ORIG 16-BIT INS]
     489                            ; BRANCHCC OCCURS {||$C$L7||}    ; [] |339| 
     490                    ;* --------------------------------------------------------------------------*
     491                            .dwpsn  file "../Application/MAC/OSAL/osal_timers.c",line 341,column 5,is_stmt,isa 1
     492                    $C$DW$36        .dwtag  DW_TAG_TI_branch
     493                            .dwattr $C$DW$36, DW_AT_low_pc(0x00)
     494                            .dwattr $C$DW$36, DW_AT_name("osalDeleteTimer")
     495                            .dwattr $C$DW$36, DW_AT_TI_call
TI ARM Assembler PC v16.9.8 Mon Dec 10 17:47:35 2018

Tools Copyright (c) 1996-2017 Texas Instruments Incorporated
C:\Users\Einstein\AppData\Local\Temp\{D8717E8C-C6B2-43EB-B59B-6498A87373A3} PAGE   10

     496                    
     497 0000001a FFFEF7FF!         BL        osalDeleteTimer       ; [DPU_3_PIPE] |341|  ; [KEEP 32-BIT INS]
     498                            ; CALL OCCURS {osalDeleteTimer }  ; [] |341| 
     499                    ;* --------------------------------------------------------------------------*
     500 0000001e           ||$C$L7||:    
     501                            .dwpsn  file "../Application/MAC/OSAL/osal_timers.c",line 344,column 3,is_stmt,isa 1
     502 0000001e 4805              LDR       A1, $C$CON9           ; [DPU_3_PIPE] |344|  ; [ORIG 16-BIT INS]
     503 00000020 6801              LDR       A2, [A1, #0]          ; [DPU_3_PIPE] |344|  ; [ORIG 16-BIT INS]
     504 00000022 4630              MOV       A1, V3                ; [DPU_3_PIPE] |344|  ; [ORIG 16-BIT INS]
     505                    $C$DW$37        .dwtag  DW_TAG_TI_branch
     506                            .dwattr $C$DW$37, DW_AT_low_pc(0x00)
     507                            .dwattr $C$DW$37, DW_AT_TI_call
     508                            .dwattr $C$DW$37, DW_AT_TI_indirect
     509                    
     510 00000024 4788              BLX       A2                    ; [DPU_3_PIPE] |344|  ; [ORIG 16-BIT INS]
     511                            ; CALL OCCURS {}                 ; [] |344| 
     512                            .dwpsn  file "../Application/MAC/OSAL/osal_timers.c",line 346,column 3,is_stmt,isa 1
     513 00000026 2C00              CMP       V1, #0                ; [DPU_3_PIPE] |346|  ; [ORIG 16-BIT INS]
     514 00000028 BF14              ITE       NE                    ; [DPU_3_PIPE]  ; [ORIG 16-BIT INS]
     515 0000002a 2000              MOVNE     A1, #0                ; [DPU_3_PIPE] |346|  ; [ORIG 16-BIT INS]
     516 0000002c 2006              MOVEQ     A1, #6                ; [DPU_3_PIPE] |346|  ; [ORIG 16-BIT INS]
     517                    $C$DW$38        .dwtag  DW_TAG_TI_branch
     518                            .dwattr $C$DW$38, DW_AT_low_pc(0x00)
     519                            .dwattr $C$DW$38, DW_AT_TI_return
     520                    
     521 0000002e BD70              POP       {V1, V2, V3, PC}      ; [DPU_3_PIPE]  ; [ORIG 16-BIT INS]
     522                            .dwcfi  cfa_offset, 0
     523                            .dwcfi  restore_reg, 6
     524                            .dwcfi  restore_reg, 5
     525                            .dwcfi  restore_reg, 4
     526                            ; BRANCH OCCURS                  ; [] 
     527                            .dwattr $C$DW$29, DW_AT_TI_end_file("../Application/MAC/OSAL/osal_timers.c")
     528                            .dwattr $C$DW$29, DW_AT_TI_end_line(0x15b)
     529                            .dwattr $C$DW$29, DW_AT_TI_end_column(0x01)
     530                            .dwendentry
     531                            .dwendtag $C$DW$29
     532                    
     533 00000000                   .sect   ".text:osalAddTimer"
     534                            .clink
     535                            .thumbfunc osalAddTimer
     536 00000000                   .thumb
     537                            .global osalAddTimer
     538                    
     539                    $C$DW$39        .dwtag  DW_TAG_subprogram
     540                            .dwattr $C$DW$39, DW_AT_name("osalAddTimer")
     541                            .dwattr $C$DW$39, DW_AT_low_pc(osalAddTimer)
     542                            .dwattr $C$DW$39, DW_AT_high_pc(0x00)
     543                            .dwattr $C$DW$39, DW_AT_TI_symbol_name("osalAddTimer")
     544                            .dwattr $C$DW$39, DW_AT_external
     545                            .dwattr $C$DW$39, DW_AT_type(*$C$DW$T$187)
     546                            .dwattr $C$DW$39, DW_AT_TI_begin_file("../Application/MAC/OSAL/osal_timers.c")
     547                            .dwattr $C$DW$39, DW_AT_TI_begin_line(0x8d)
     548                            .dwattr $C$DW$39, DW_AT_TI_begin_column(0x12)
     549                            .dwattr $C$DW$39, DW_AT_decl_file("../Application/MAC/OSAL/osal_timers.c")
     550                            .dwattr $C$DW$39, DW_AT_decl_line(0x8d)
TI ARM Assembler PC v16.9.8 Mon Dec 10 17:47:35 2018

Tools Copyright (c) 1996-2017 Texas Instruments Incorporated
C:\Users\Einstein\AppData\Local\Temp\{D8717E8C-C6B2-43EB-B59B-6498A87373A3} PAGE   11

     551                            .dwattr $C$DW$39, DW_AT_decl_column(0x12)
     552                            .dwattr $C$DW$39, DW_AT_TI_max_frame_size(0x18)
     553                            .dwpsn  file "../Application/MAC/OSAL/osal_timers.c",line 142,column 1,is_stmt,address osalAdd
     554                    
     555                            .dwfde $C$DW$CIE, osalAddTimer
     556                    $C$DW$40        .dwtag  DW_TAG_formal_parameter
     557                            .dwattr $C$DW$40, DW_AT_name("task_id")
     558                            .dwattr $C$DW$40, DW_AT_TI_symbol_name("task_id")
     559                            .dwattr $C$DW$40, DW_AT_type(*$C$DW$T$10)
     560                            .dwattr $C$DW$40, DW_AT_location[DW_OP_reg0]
     561                    
     562                    $C$DW$41        .dwtag  DW_TAG_formal_parameter
     563                            .dwattr $C$DW$41, DW_AT_name("event_flag")
     564                            .dwattr $C$DW$41, DW_AT_TI_symbol_name("event_flag")
     565                            .dwattr $C$DW$41, DW_AT_type(*$C$DW$T$10)
     566                            .dwattr $C$DW$41, DW_AT_location[DW_OP_reg1]
     567                    
     568                    $C$DW$42        .dwtag  DW_TAG_formal_parameter
     569                            .dwattr $C$DW$42, DW_AT_name("timeout")
     570                            .dwattr $C$DW$42, DW_AT_TI_symbol_name("timeout")
     571                            .dwattr $C$DW$42, DW_AT_type(*$C$DW$T$22)
     572                            .dwattr $C$DW$42, DW_AT_location[DW_OP_reg2]
     573                    
     574                    
     575                    ;*****************************************************************************
     576                    ;* FUNCTION NAME: osalAddTimer                                               *
     577                    ;*                                                                           *
     578                    ;*   Regs Modified     : A1,A2,A3,A4,V1,V2,V3,V4,V9,SP,LR,SR                 *
     579                    ;*   Regs Used         : A1,A2,A3,A4,V1,V2,V3,V4,V9,SP,LR,SR                 *
     580                    ;*   Local Frame Size  : 0 Args + 0 Auto + 20 Save = 20 byte                 *
     581                    ;*****************************************************************************
     582                    osalAddTimer:
     583                    ;* --------------------------------------------------------------------------*
     584                    ;* A2    assigned to $O$C31
     585                    ;* A1    assigned to newTimer
     586                    $C$DW$43        .dwtag  DW_TAG_variable
     587                            .dwattr $C$DW$43, DW_AT_name("newTimer")
     588                            .dwattr $C$DW$43, DW_AT_TI_symbol_name("newTimer")
     589                            .dwattr $C$DW$43, DW_AT_type(*$C$DW$T$187)
     590                            .dwattr $C$DW$43, DW_AT_location[DW_OP_reg0]
     591                    
     592                    ;* A1    assigned to newTimer
     593                    $C$DW$44        .dwtag  DW_TAG_variable
     594                            .dwattr $C$DW$44, DW_AT_name("newTimer")
     595                            .dwattr $C$DW$44, DW_AT_TI_symbol_name("newTimer")
     596                            .dwattr $C$DW$44, DW_AT_type(*$C$DW$T$187)
     597                            .dwattr $C$DW$44, DW_AT_location[DW_OP_reg0]
     598                    
     599                    ;* V4    assigned to $O$K16
     600                    ;* A2    assigned to $O$U34
     601                    ;* V4    assigned to $O$v1
     602                    ;* V3    assigned to task_id
     603                    $C$DW$45        .dwtag  DW_TAG_variable
     604                            .dwattr $C$DW$45, DW_AT_name("task_id")
     605                            .dwattr $C$DW$45, DW_AT_TI_symbol_name("task_id")
TI ARM Assembler PC v16.9.8 Mon Dec 10 17:47:35 2018

Tools Copyright (c) 1996-2017 Texas Instruments Incorporated
C:\Users\Einstein\AppData\Local\Temp\{D8717E8C-C6B2-43EB-B59B-6498A87373A3} PAGE   12

     606                            .dwattr $C$DW$45, DW_AT_type(*$C$DW$T$239)
     607                            .dwattr $C$DW$45, DW_AT_location[DW_OP_reg6]
     608                    
     609                    ;* V2    assigned to event_flag
     610                    $C$DW$46        .dwtag  DW_TAG_variable
     611                            .dwattr $C$DW$46, DW_AT_name("event_flag")
     612                            .dwattr $C$DW$46, DW_AT_TI_symbol_name("event_flag")
     613                            .dwattr $C$DW$46, DW_AT_type(*$C$DW$T$248)
     614                            .dwattr $C$DW$46, DW_AT_location[DW_OP_reg5]
     615                    
     616                    ;* V1    assigned to timeout
     617                    $C$DW$47        .dwtag  DW_TAG_variable
     618                            .dwattr $C$DW$47, DW_AT_name("timeout")
     619                            .dwattr $C$DW$47, DW_AT_TI_symbol_name("timeout")
     620                            .dwattr $C$DW$47, DW_AT_type(*$C$DW$T$272)
     621                            .dwattr $C$DW$47, DW_AT_location[DW_OP_reg4]
     622                    
     623                    ;* V4    assigned to srchTimer
     624                    $C$DW$48        .dwtag  DW_TAG_variable
     625                            .dwattr $C$DW$48, DW_AT_name("srchTimer")
     626                            .dwattr $C$DW$48, DW_AT_TI_symbol_name("srchTimer")
     627                            .dwattr $C$DW$48, DW_AT_type(*$C$DW$T$187)
     628                            .dwattr $C$DW$48, DW_AT_location[DW_OP_reg7]
     629                    
     630                            .dwcfi  cfa_offset, 0
     631 00000000 B5F8              PUSH      {A4, V1, V2, V3, V4, LR} ; [DPU_3_PIPE]  ; [ORIG 16-BIT INS]
     632                            .dwcfi  cfa_offset, 24
     633                            .dwcfi  save_reg_to_mem, 14, -4
     634                            .dwcfi  save_reg_to_mem, 7, -8
     635                            .dwcfi  save_reg_to_mem, 6, -12
     636                            .dwcfi  save_reg_to_mem, 5, -16
     637                            .dwcfi  save_reg_to_mem, 4, -20
     638                            .dwcfi  save_reg_to_mem, 3, -24
     639 00000002 4614              MOV       V1, A3                ; [DPU_3_PIPE] |142|  ; [ORIG 16-BIT INS]
     640 00000004 4606              MOV       V3, A1                ; [DPU_3_PIPE] |142|  ; [ORIG 16-BIT INS]
     641                            .dwpsn  file "../Application/MAC/OSAL/osal_timers.c",line 147,column 3,is_stmt,isa 1
     642                    $C$DW$49        .dwtag  DW_TAG_TI_branch
     643                            .dwattr $C$DW$49, DW_AT_low_pc(0x00)
     644                            .dwattr $C$DW$49, DW_AT_name("osalFindTimer")
     645                            .dwattr $C$DW$49, DW_AT_TI_call
     646                    
     647 00000006 FFFEF7FF!         BL        osalFindTimer         ; [DPU_3_PIPE] |147|  ; [KEEP 32-BIT INS]
     648                            ; CALL OCCURS {osalFindTimer }   ; [] |147| 
     649                            .dwpsn  file "../Application/MAC/OSAL/osal_timers.c",line 142,column 1,is_stmt,isa 1
     650 0000000a 460D              MOV       V2, A2                ; [DPU_3_PIPE] |142|  ; [ORIG 16-BIT INS]
     651                            .dwpsn  file "../Application/MAC/OSAL/osal_timers.c",line 148,column 3,is_stmt,isa 1
     652 0000000c 2800              CMP       A1, #0                ; [DPU_3_PIPE] |148|  ; [ORIG 16-BIT INS]
     653 0000000e BF18              IT        NE                    ; [DPU_3_PIPE]  ; [ORIG 16-BIT INS]
     654                            .dwpsn  file "../Application/MAC/OSAL/osal_timers.c",line 151,column 5,is_stmt,isa 1
     655 00000010 6044              STRNE     V1, [A1, #4]          ; [DPU_3_PIPE] |151|  ; [ORIG 16-BIT INS]
     656                            .dwpsn  file "../Application/MAC/OSAL/osal_timers.c",line 153,column 5,is_stmt,isa 1
     657 00000012 D116              BNE       ||$C$L11||            ; [DPU_3_PIPE] |153|  ; [ORIG 16-BIT INS]
     658                            ; BRANCHCC OCCURS {||$C$L11||}   ; [] |153| 
     659                    ;* --------------------------------------------------------------------------*
     660                            .dwpsn  file "../Application/MAC/OSAL/osal_timers.c",line 158,column 5,is_stmt,isa 1
TI ARM Assembler PC v16.9.8 Mon Dec 10 17:47:35 2018

Tools Copyright (c) 1996-2017 Texas Instruments Incorporated
C:\Users\Einstein\AppData\Local\Temp\{D8717E8C-C6B2-43EB-B59B-6498A87373A3} PAGE   13

     661 00000014 2010              MOVS      A1, #16               ; [DPU_3_PIPE] |158|  ; [ORIG 16-BIT INS]
     662                    $C$DW$50        .dwtag  DW_TAG_TI_branch
     663                            .dwattr $C$DW$50, DW_AT_low_pc(0x00)
     664                            .dwattr $C$DW$50, DW_AT_name("osal_mem_alloc")
     665                            .dwattr $C$DW$50, DW_AT_TI_call
     666                    
     667 00000016 FFFEF7FF!         BL        osal_mem_alloc        ; [DPU_3_PIPE] |158|  ; [KEEP 32-BIT INS]
     668                            ; CALL OCCURS {osal_mem_alloc }  ; [] |158| 
     669                            .dwpsn  file "../Application/MAC/OSAL/osal_timers.c",line 160,column 5,is_stmt,isa 1
     670 0000001a 490A              LDR       A2, $C$CON11          ; [DPU_3_PIPE] |160|  ; [ORIG 16-BIT INS]
     671 0000001c 680F              LDR       V4, [A2, #0]          ; [DPU_3_PIPE] |160|  ; [ORIG 16-BIT INS]
     672 0000001e 2800              CMP       A1, #0                ; [DPU_3_PIPE] |160|  ; [ORIG 16-BIT INS]
     673 00000020 BF08              IT        EQ                    ; [DPU_3_PIPE]  ; [ORIG 16-BIT INS]
     674                            .dwpsn  file "../Application/MAC/OSAL/osal_timers.c",line 192,column 7,is_stmt,isa 1
     675 00000022 2000              MOVEQ     A1, #0                ; [DPU_3_PIPE] |192|  ; [ORIG 16-BIT INS]
     676 00000024 D00D              BEQ       ||$C$L11||            ; [DPU_3_PIPE] |192|  ; [ORIG 16-BIT INS]
     677                            ; BRANCHCC OCCURS {||$C$L11||}   ; [] |192| 
     678                    ;* --------------------------------------------------------------------------*
     679                            .dwpsn  file "../Application/MAC/OSAL/osal_timers.c",line 163,column 7,is_stmt,isa 1
     680 00000026 7286              STRB      V3, [A1, #10]         ; [DPU_3_PIPE] |163|  ; [ORIG 16-BIT INS]
     681                            .dwpsn  file "../Application/MAC/OSAL/osal_timers.c",line 164,column 7,is_stmt,isa 1
     682 00000028 8105              STRH      V2, [A1, #8]          ; [DPU_3_PIPE] |164|  ; [ORIG 16-BIT INS]
     683                            .dwpsn  file "../Application/MAC/OSAL/osal_timers.c",line 165,column 7,is_stmt,isa 1
     684 0000002a 6044              STR       V1, [A1, #4]          ; [DPU_3_PIPE] |165|  ; [ORIG 16-BIT INS]
     685                            .dwpsn  file "../Application/MAC/OSAL/osal_timers.c",line 166,column 7,is_stmt,isa 1
     686 0000002c 2200              MOVS      A3, #0                ; [DPU_3_PIPE] |166|  ; [ORIG 16-BIT INS]
     687 0000002e 6002              STR       A3, [A1, #0]          ; [DPU_3_PIPE] |166|  ; [ORIG 16-BIT INS]
     688                            .dwpsn  file "../Application/MAC/OSAL/osal_timers.c",line 167,column 7,is_stmt,isa 1
     689 00000030 60C2              STR       A3, [A1, #12]         ; [DPU_3_PIPE] |167|  ; [ORIG 16-BIT INS]
     690 00000032 B917              CBNZ      V4, ||$C$L9||         ; []  ; [ORIG 16-BIT INS]
     691                            .dwpsn  file "../Application/MAC/OSAL/osal_timers.c",line 170,column 7,is_stmt,isa 1
     692                            ; BRANCHCC OCCURS {||$C$L9||}    ; [] |170| 
     693                    ;* --------------------------------------------------------------------------*
     694                            .dwpsn  file "../Application/MAC/OSAL/osal_timers.c",line 160,column 5,is_stmt,isa 1
     695 00000034 460F              MOV       V4, A2                ; [DPU_3_PIPE] |160|  ; [ORIG 16-BIT INS]
     696                            .dwpsn  file "../Application/MAC/OSAL/osal_timers.c",line 174,column 7,is_stmt,isa 1
     697 00000036 E003              B         ||$C$L10||            ; [DPU_3_PIPE] |174|  ; [ORIG 16-BIT INS]
     698                            ; BRANCH OCCURS {||$C$L10||}     ; [] |174| 
     699                    ;* --------------------------------------------------------------------------*
     700 00000038           ||$C$L8||:    
     701                            .dwpsn  file "../Application/MAC/OSAL/osal_timers.c",line 182,column 11,is_stmt,isa 1
     702 00000038 460F              MOV       V4, A2                ; [DPU_3_PIPE] |182|  ; [ORIG 16-BIT INS]
     703                    ;* --------------------------------------------------------------------------*
     704                    ;*   BEGIN LOOP ||$C$L9||
     705                    ;* --------------------------------------------------------------------------*
     706 0000003a           ||$C$L9||:    
     707                            .dwpsn  file "../Application/MAC/OSAL/osal_timers.c",line 181,column 9,is_stmt,isa 1
     708 0000003a 6839              LDR       A2, [V4, #0]          ; [DPU_3_PIPE] |181|  ; [ORIG 16-BIT INS]
     709 0000003c 2900              CMP       A2, #0                ; [DPU_3_PIPE] |181|  ; [ORIG 16-BIT INS]
     710 0000003e D1FB              BNE       ||$C$L8||             ; [DPU_3_PIPE] |181|  ; [ORIG 16-BIT INS]
     711                            ; BRANCHCC OCCURS {||$C$L8||}    ; [] |181| 
     712                    ;* --------------------------------------------------------------------------*
     713 00000040           ||$C$L10||:    
     714                            .dwpsn  file "../Application/MAC/OSAL/osal_timers.c",line 185,column 9,is_stmt,isa 1
     715 00000040 6038              STR       A1, [V4, #0]          ; [DPU_3_PIPE] |185|  ; [ORIG 16-BIT INS]
TI ARM Assembler PC v16.9.8 Mon Dec 10 17:47:35 2018

Tools Copyright (c) 1996-2017 Texas Instruments Incorporated
C:\Users\Einstein\AppData\Local\Temp\{D8717E8C-C6B2-43EB-B59B-6498A87373A3} PAGE   14

     716                    ;* --------------------------------------------------------------------------*
     717                    ||$C$L11||:    
     718                    $C$DW$51        .dwtag  DW_TAG_TI_branch
     719                            .dwattr $C$DW$51, DW_AT_low_pc(0x00)
     720                            .dwattr $C$DW$51, DW_AT_TI_return
     721                    
     722 00000042 BDF8              POP       {A4, V1, V2, V3, V4, PC} ; [DPU_3_PIPE]  ; [ORIG 16-BIT INS]
     723                            .dwcfi  cfa_offset, 0
     724                            .dwcfi  restore_reg, 7
     725                            .dwcfi  restore_reg, 6
     726                            .dwcfi  restore_reg, 5
     727                            .dwcfi  restore_reg, 4
     728                            .dwcfi  restore_reg, 3
     729                            ; BRANCH OCCURS                  ; [] 
     730                            .dwattr $C$DW$39, DW_AT_TI_end_file("../Application/MAC/OSAL/osal_timers.c")
     731                            .dwattr $C$DW$39, DW_AT_TI_end_line(0xc3)
     732                            .dwattr $C$DW$39, DW_AT_TI_end_column(0x01)
     733                            .dwendentry
     734                            .dwendtag $C$DW$39
     735                    
     736 00000000                   .sect   ".text:osal_start_timerEx"
     737                            .clink
     738                            .thumbfunc osal_start_timerEx
     739 00000000                   .thumb
     740                            .global osal_start_timerEx
     741                    
     742                    $C$DW$52        .dwtag  DW_TAG_subprogram
     743                            .dwattr $C$DW$52, DW_AT_name("osal_start_timerEx")
     744                            .dwattr $C$DW$52, DW_AT_low_pc(osal_start_timerEx)
     745                            .dwattr $C$DW$52, DW_AT_high_pc(0x00)
     746                            .dwattr $C$DW$52, DW_AT_TI_symbol_name("osal_start_timerEx")
     747                            .dwattr $C$DW$52, DW_AT_external
     748                            .dwattr $C$DW$52, DW_AT_type(*$C$DW$T$21)
     749                            .dwattr $C$DW$52, DW_AT_TI_begin_file("../Application/MAC/OSAL/osal_timers.c")
     750                            .dwattr $C$DW$52, DW_AT_TI_begin_line(0x10a)
     751                            .dwattr $C$DW$52, DW_AT_TI_begin_column(0x07)
     752                            .dwattr $C$DW$52, DW_AT_decl_file("../Application/MAC/OSAL/osal_timers.c")
     753                            .dwattr $C$DW$52, DW_AT_decl_line(0x10a)
     754                            .dwattr $C$DW$52, DW_AT_decl_column(0x07)
     755                            .dwattr $C$DW$52, DW_AT_TI_max_frame_size(0x18)
     756                            .dwpsn  file "../Application/MAC/OSAL/osal_timers.c",line 267,column 1,is_stmt,address osal_st
     757                    
     758                            .dwfde $C$DW$CIE, osal_start_timerEx
     759                    $C$DW$53        .dwtag  DW_TAG_formal_parameter
     760                            .dwattr $C$DW$53, DW_AT_name("taskID")
     761                            .dwattr $C$DW$53, DW_AT_TI_symbol_name("taskID")
     762                            .dwattr $C$DW$53, DW_AT_type(*$C$DW$T$10)
     763                            .dwattr $C$DW$53, DW_AT_location[DW_OP_reg0]
     764                    
     765                    $C$DW$54        .dwtag  DW_TAG_formal_parameter
     766                            .dwattr $C$DW$54, DW_AT_name("event_id")
     767                            .dwattr $C$DW$54, DW_AT_TI_symbol_name("event_id")
     768                            .dwattr $C$DW$54, DW_AT_type(*$C$DW$T$10)
     769                            .dwattr $C$DW$54, DW_AT_location[DW_OP_reg1]
     770                    
TI ARM Assembler PC v16.9.8 Mon Dec 10 17:47:35 2018

Tools Copyright (c) 1996-2017 Texas Instruments Incorporated
C:\Users\Einstein\AppData\Local\Temp\{D8717E8C-C6B2-43EB-B59B-6498A87373A3} PAGE   15

     771                    $C$DW$55        .dwtag  DW_TAG_formal_parameter
     772                            .dwattr $C$DW$55, DW_AT_name("timeout_value")
     773                            .dwattr $C$DW$55, DW_AT_TI_symbol_name("timeout_value")
     774                            .dwattr $C$DW$55, DW_AT_type(*$C$DW$T$22)
     775                            .dwattr $C$DW$55, DW_AT_location[DW_OP_reg2]
     776                    
     777                    
     778                    ;*****************************************************************************
     779                    ;* FUNCTION NAME: osal_start_timerEx                                         *
     780                    ;*                                                                           *
     781                    ;*   Regs Modified     : A1,A2,A3,A4,V1,V2,V3,V4,V5,V9,SP,LR,SR              *
     782                    ;*   Regs Used         : A1,A2,A3,A4,V1,V2,V3,V4,V5,V9,SP,LR,SR              *
     783                    ;*   Local Frame Size  : 0 Args + 0 Auto + 24 Save = 24 byte                 *
     784                    ;*****************************************************************************
     785                    osal_start_timerEx:
     786                    ;* --------------------------------------------------------------------------*
     787                    ;* V3    assigned to timeout_value
     788                    $C$DW$56        .dwtag  DW_TAG_variable
     789                            .dwattr $C$DW$56, DW_AT_name("timeout_value")
     790                            .dwattr $C$DW$56, DW_AT_TI_symbol_name("timeout_value")
     791                            .dwattr $C$DW$56, DW_AT_type(*$C$DW$T$272)
     792                            .dwattr $C$DW$56, DW_AT_location[DW_OP_reg6]
     793                    
     794                    ;* V5    assigned to intState
     795                    $C$DW$57        .dwtag  DW_TAG_variable
     796                            .dwattr $C$DW$57, DW_AT_name("intState")
     797                            .dwattr $C$DW$57, DW_AT_TI_symbol_name("intState")
     798                            .dwattr $C$DW$57, DW_AT_type(*$C$DW$T$264)
     799                            .dwattr $C$DW$57, DW_AT_location[DW_OP_reg8]
     800                    
     801                    ;* V4    assigned to newTimer
     802                    $C$DW$58        .dwtag  DW_TAG_variable
     803                            .dwattr $C$DW$58, DW_AT_name("newTimer")
     804                            .dwattr $C$DW$58, DW_AT_TI_symbol_name("newTimer")
     805                            .dwattr $C$DW$58, DW_AT_type(*$C$DW$T$187)
     806                            .dwattr $C$DW$58, DW_AT_location[DW_OP_reg7]
     807                    
     808                            .dwcfi  cfa_offset, 0
     809 00000000 41F0E92D          PUSH      {V1, V2, V3, V4, V5, LR} ; [DPU_3_PIPE]  ; [KEEP 32-BIT INS]
     810                            .dwcfi  cfa_offset, 24
     811                            .dwcfi  save_reg_to_mem, 14, -4
     812                            .dwcfi  save_reg_to_mem, 8, -8
     813                            .dwcfi  save_reg_to_mem, 7, -12
     814                            .dwcfi  save_reg_to_mem, 6, -16
     815                            .dwcfi  save_reg_to_mem, 5, -20
     816                            .dwcfi  save_reg_to_mem, 4, -24
     817 00000004 4605              MOV       V2, A1                ; [DPU_3_PIPE] |267|  ; [ORIG 16-BIT INS]
     818                            .dwpsn  file "../Application/MAC/OSAL/osal_timers.c",line 271,column 3,is_stmt,isa 1
     819 00000006 480B              LDR       A1, $C$CON14          ; [DPU_3_PIPE] |271|  ; [ORIG 16-BIT INS]
     820 00000008 6800              LDR       A1, [A1, #0]          ; [DPU_3_PIPE] |271|  ; [ORIG 16-BIT INS]
     821                            .dwpsn  file "../Application/MAC/OSAL/osal_timers.c",line 267,column 1,is_stmt,isa 1
     822 0000000a 4616              MOV       V3, A3                ; [DPU_3_PIPE] |267|  ; [ORIG 16-BIT INS]
     823 0000000c 460C              MOV       V1, A2                ; [DPU_3_PIPE] |267|  ; [ORIG 16-BIT INS]
     824                            .dwpsn  file "../Application/MAC/OSAL/osal_timers.c",line 271,column 3,is_stmt,isa 1
     825                    $C$DW$59        .dwtag  DW_TAG_TI_branch
TI ARM Assembler PC v16.9.8 Mon Dec 10 17:47:35 2018

Tools Copyright (c) 1996-2017 Texas Instruments Incorporated
C:\Users\Einstein\AppData\Local\Temp\{D8717E8C-C6B2-43EB-B59B-6498A87373A3} PAGE   16

     826                            .dwattr $C$DW$59, DW_AT_low_pc(0x00)
     827                            .dwattr $C$DW$59, DW_AT_TI_call
     828                            .dwattr $C$DW$59, DW_AT_TI_indirect
     829                    
     830 0000000e 4780              BLX       A1                    ; [DPU_3_PIPE] |271|  ; [ORIG 16-BIT INS]
     831                            ; CALL OCCURS {}                 ; [] |271| 
     832 00000010 4680              MOV       V5, A1                ; [DPU_3_PIPE] |271|  ; [ORIG 16-BIT INS]
     833                            .dwpsn  file "../Application/MAC/OSAL/osal_timers.c",line 274,column 3,is_stmt,isa 1
     834 00000012 4621              MOV       A2, V1                ; [DPU_3_PIPE] |274|  ; [ORIG 16-BIT INS]
     835 00000014 4632              MOV       A3, V3                ; [DPU_3_PIPE] |274|  ; [ORIG 16-BIT INS]
     836 00000016 4628              MOV       A1, V2                ; [DPU_3_PIPE] |274|  ; [ORIG 16-BIT INS]
     837                    $C$DW$60        .dwtag  DW_TAG_TI_branch
     838                            .dwattr $C$DW$60, DW_AT_low_pc(0x00)
     839                            .dwattr $C$DW$60, DW_AT_name("osalAddTimer")
     840                            .dwattr $C$DW$60, DW_AT_TI_call
     841                    
     842 00000018 FFFEF7FF!         BL        osalAddTimer          ; [DPU_3_PIPE] |274|  ; [KEEP 32-BIT INS]
     843                            ; CALL OCCURS {osalAddTimer }    ; [] |274| 
     844 0000001c 4607              MOV       V4, A1                ; [DPU_3_PIPE] |274|  ; [ORIG 16-BIT INS]
     845                            .dwpsn  file "../Application/MAC/OSAL/osal_timers.c",line 276,column 3,is_stmt,isa 1
     846 0000001e 4806              LDR       A1, $C$CON15          ; [DPU_3_PIPE] |276|  ; [ORIG 16-BIT INS]
     847 00000020 6801              LDR       A2, [A1, #0]          ; [DPU_3_PIPE] |276|  ; [ORIG 16-BIT INS]
     848 00000022 4640              MOV       A1, V5                ; [DPU_3_PIPE] |276|  ; [ORIG 16-BIT INS]
     849                    $C$DW$61        .dwtag  DW_TAG_TI_branch
     850                            .dwattr $C$DW$61, DW_AT_low_pc(0x00)
     851                            .dwattr $C$DW$61, DW_AT_TI_call
     852                            .dwattr $C$DW$61, DW_AT_TI_indirect
     853                    
     854 00000024 4788              BLX       A2                    ; [DPU_3_PIPE] |276|  ; [ORIG 16-BIT INS]
     855                            ; CALL OCCURS {}                 ; [] |276| 
     856                            .dwpsn  file "../Application/MAC/OSAL/osal_timers.c",line 278,column 3,is_stmt,isa 1
     857 00000026 2F00              CMP       V4, #0                ; [DPU_3_PIPE] |278|  ; [ORIG 16-BIT INS]
     858 00000028 BF14              ITE       NE                    ; [DPU_3_PIPE]  ; [ORIG 16-BIT INS]
     859 0000002a 2000              MOVNE     A1, #0                ; [DPU_3_PIPE] |278|  ; [ORIG 16-BIT INS]
     860 0000002c 2008              MOVEQ     A1, #8                ; [DPU_3_PIPE] |278|  ; [ORIG 16-BIT INS]
     861                    $C$DW$62        .dwtag  DW_TAG_TI_branch
     862                            .dwattr $C$DW$62, DW_AT_low_pc(0x00)
     863                            .dwattr $C$DW$62, DW_AT_TI_return
     864                    
     865 0000002e 81F0E8BD          POP       {V1, V2, V3, V4, V5, PC} ; [DPU_3_PIPE]  ; [KEEP 32-BIT INS]
     866                            .dwcfi  cfa_offset, 0
     867                            .dwcfi  restore_reg, 8
     868                            .dwcfi  restore_reg, 7
     869                            .dwcfi  restore_reg, 6
     870                            .dwcfi  restore_reg, 5
     871                            .dwcfi  restore_reg, 4
     872                            ; BRANCH OCCURS                  ; [] 
     873                            .dwattr $C$DW$52, DW_AT_TI_end_file("../Application/MAC/OSAL/osal_timers.c")
     874                            .dwattr $C$DW$52, DW_AT_TI_end_line(0x117)
     875                            .dwattr $C$DW$52, DW_AT_TI_end_column(0x01)
     876                            .dwendentry
     877                            .dwendtag $C$DW$52
     878                    
     879 00000000                   .sect   ".text:osal_start_reload_timer"
     880                            .clink
TI ARM Assembler PC v16.9.8 Mon Dec 10 17:47:35 2018

Tools Copyright (c) 1996-2017 Texas Instruments Incorporated
C:\Users\Einstein\AppData\Local\Temp\{D8717E8C-C6B2-43EB-B59B-6498A87373A3} PAGE   17

     881                            .thumbfunc osal_start_reload_timer
     882 00000000                   .thumb
     883                            .global osal_start_reload_timer
     884                    
     885                    $C$DW$63        .dwtag  DW_TAG_subprogram
     886                            .dwattr $C$DW$63, DW_AT_name("osal_start_reload_timer")
     887                            .dwattr $C$DW$63, DW_AT_low_pc(osal_start_reload_timer)
     888                            .dwattr $C$DW$63, DW_AT_high_pc(0x00)
     889                            .dwattr $C$DW$63, DW_AT_TI_symbol_name("osal_start_reload_timer")
     890                            .dwattr $C$DW$63, DW_AT_external
     891                            .dwattr $C$DW$63, DW_AT_type(*$C$DW$T$21)
     892                            .dwattr $C$DW$63, DW_AT_TI_begin_file("../Application/MAC/OSAL/osal_timers.c")
     893                            .dwattr $C$DW$63, DW_AT_TI_begin_line(0x128)
     894                            .dwattr $C$DW$63, DW_AT_TI_begin_column(0x07)
     895                            .dwattr $C$DW$63, DW_AT_decl_file("../Application/MAC/OSAL/osal_timers.c")
     896                            .dwattr $C$DW$63, DW_AT_decl_line(0x128)
     897                            .dwattr $C$DW$63, DW_AT_decl_column(0x07)
     898                            .dwattr $C$DW$63, DW_AT_TI_max_frame_size(0x18)
     899                            .dwpsn  file "../Application/MAC/OSAL/osal_timers.c",line 297,column 1,is_stmt,address osal_st
     900                    
     901                            .dwfde $C$DW$CIE, osal_start_reload_timer
     902                    $C$DW$64        .dwtag  DW_TAG_formal_parameter
     903                            .dwattr $C$DW$64, DW_AT_name("taskID")
     904                            .dwattr $C$DW$64, DW_AT_TI_symbol_name("taskID")
     905                            .dwattr $C$DW$64, DW_AT_type(*$C$DW$T$10)
     906                            .dwattr $C$DW$64, DW_AT_location[DW_OP_reg0]
     907                    
     908                    $C$DW$65        .dwtag  DW_TAG_formal_parameter
     909                            .dwattr $C$DW$65, DW_AT_name("event_id")
     910                            .dwattr $C$DW$65, DW_AT_TI_symbol_name("event_id")
     911                            .dwattr $C$DW$65, DW_AT_type(*$C$DW$T$10)
     912                            .dwattr $C$DW$65, DW_AT_location[DW_OP_reg1]
     913                    
     914                    $C$DW$66        .dwtag  DW_TAG_formal_parameter
     915                            .dwattr $C$DW$66, DW_AT_name("timeout_value")
     916                            .dwattr $C$DW$66, DW_AT_TI_symbol_name("timeout_value")
     917                            .dwattr $C$DW$66, DW_AT_type(*$C$DW$T$22)
     918                            .dwattr $C$DW$66, DW_AT_location[DW_OP_reg2]
     919                    
     920                    
     921                    ;*****************************************************************************
     922                    ;* FUNCTION NAME: osal_start_reload_timer                                    *
     923                    ;*                                                                           *
     924                    ;*   Regs Modified     : A1,A2,A3,A4,V1,V2,V3,V4,V9,SP,LR,SR                 *
     925                    ;*   Regs Used         : A1,A2,A3,A4,V1,V2,V3,V4,V9,SP,LR,SR                 *
     926                    ;*   Local Frame Size  : 0 Args + 0 Auto + 20 Save = 20 byte                 *
     927                    ;*****************************************************************************
     928                    osal_start_reload_timer:
     929                    ;* --------------------------------------------------------------------------*
     930                    ;* V2    assigned to timeout_value
     931                    $C$DW$67        .dwtag  DW_TAG_variable
     932                            .dwattr $C$DW$67, DW_AT_name("timeout_value")
     933                            .dwattr $C$DW$67, DW_AT_TI_symbol_name("timeout_value")
     934                            .dwattr $C$DW$67, DW_AT_type(*$C$DW$T$272)
     935                            .dwattr $C$DW$67, DW_AT_location[DW_OP_reg5]
TI ARM Assembler PC v16.9.8 Mon Dec 10 17:47:35 2018

Tools Copyright (c) 1996-2017 Texas Instruments Incorporated
C:\Users\Einstein\AppData\Local\Temp\{D8717E8C-C6B2-43EB-B59B-6498A87373A3} PAGE   18

     936                    
     937                    ;* V4    assigned to intState
     938                    $C$DW$68        .dwtag  DW_TAG_variable
     939                            .dwattr $C$DW$68, DW_AT_name("intState")
     940                            .dwattr $C$DW$68, DW_AT_TI_symbol_name("intState")
     941                            .dwattr $C$DW$68, DW_AT_type(*$C$DW$T$264)
     942                            .dwattr $C$DW$68, DW_AT_location[DW_OP_reg7]
     943                    
     944                    ;* V1    assigned to newTimer
     945                    $C$DW$69        .dwtag  DW_TAG_variable
     946                            .dwattr $C$DW$69, DW_AT_name("newTimer")
     947                            .dwattr $C$DW$69, DW_AT_TI_symbol_name("newTimer")
     948                            .dwattr $C$DW$69, DW_AT_type(*$C$DW$T$187)
     949                            .dwattr $C$DW$69, DW_AT_location[DW_OP_reg4]
     950                    
     951                            .dwcfi  cfa_offset, 0
     952 00000000 B5F8              PUSH      {A4, V1, V2, V3, V4, LR} ; [DPU_3_PIPE]  ; [ORIG 16-BIT INS]
     953                            .dwcfi  cfa_offset, 24
     954                            .dwcfi  save_reg_to_mem, 14, -4
     955                            .dwcfi  save_reg_to_mem, 7, -8
     956                            .dwcfi  save_reg_to_mem, 6, -12
     957                            .dwcfi  save_reg_to_mem, 5, -16
     958                            .dwcfi  save_reg_to_mem, 4, -20
     959                            .dwcfi  save_reg_to_mem, 3, -24
     960 00000002 4606              MOV       V3, A1                ; [DPU_3_PIPE] |297|  ; [ORIG 16-BIT INS]
     961                            .dwpsn  file "../Application/MAC/OSAL/osal_timers.c",line 301,column 3,is_stmt,isa 1
     962 00000004 480B              LDR       A1, $C$CON18          ; [DPU_3_PIPE] |301|  ; [ORIG 16-BIT INS]
     963 00000006 6800              LDR       A1, [A1, #0]          ; [DPU_3_PIPE] |301|  ; [ORIG 16-BIT INS]
     964                            .dwpsn  file "../Application/MAC/OSAL/osal_timers.c",line 297,column 1,is_stmt,isa 1
     965 00000008 4615              MOV       V2, A3                ; [DPU_3_PIPE] |297|  ; [ORIG 16-BIT INS]
     966 0000000a 460C              MOV       V1, A2                ; [DPU_3_PIPE] |297|  ; [ORIG 16-BIT INS]
     967                            .dwpsn  file "../Application/MAC/OSAL/osal_timers.c",line 301,column 3,is_stmt,isa 1
     968                    $C$DW$70        .dwtag  DW_TAG_TI_branch
     969                            .dwattr $C$DW$70, DW_AT_low_pc(0x00)
     970                            .dwattr $C$DW$70, DW_AT_TI_call
     971                            .dwattr $C$DW$70, DW_AT_TI_indirect
     972                    
     973 0000000c 4780              BLX       A1                    ; [DPU_3_PIPE] |301|  ; [ORIG 16-BIT INS]
     974                            ; CALL OCCURS {}                 ; [] |301| 
     975 0000000e 4607              MOV       V4, A1                ; [DPU_3_PIPE] |301|  ; [ORIG 16-BIT INS]
     976                            .dwpsn  file "../Application/MAC/OSAL/osal_timers.c",line 304,column 3,is_stmt,isa 1
     977 00000010 4621              MOV       A2, V1                ; [DPU_3_PIPE] |304|  ; [ORIG 16-BIT INS]
     978 00000012 462A              MOV       A3, V2                ; [DPU_3_PIPE] |304|  ; [ORIG 16-BIT INS]
     979 00000014 4630              MOV       A1, V3                ; [DPU_3_PIPE] |304|  ; [ORIG 16-BIT INS]
     980                    $C$DW$71        .dwtag  DW_TAG_TI_branch
     981                            .dwattr $C$DW$71, DW_AT_low_pc(0x00)
     982                            .dwattr $C$DW$71, DW_AT_name("osalAddTimer")
     983                            .dwattr $C$DW$71, DW_AT_TI_call
     984                    
     985 00000016 FFFEF7FF!         BL        osalAddTimer          ; [DPU_3_PIPE] |304|  ; [KEEP 32-BIT INS]
     986                            ; CALL OCCURS {osalAddTimer }    ; [] |304| 
     987                            .dwpsn  file "../Application/MAC/OSAL/osal_timers.c",line 305,column 3,is_stmt,isa 1
     988 0000001a 1C04              MOVS      V1, A1                ; [DPU_3_PIPE] |305|  ; [ORIG 16-BIT INS]
     989 0000001c BF18              IT        NE                    ; [DPU_3_PIPE]  ; [ORIG 16-BIT INS]
     990                            .dwpsn  file "../Application/MAC/OSAL/osal_timers.c",line 308,column 5,is_stmt,isa 1
TI ARM Assembler PC v16.9.8 Mon Dec 10 17:47:35 2018

Tools Copyright (c) 1996-2017 Texas Instruments Incorporated
C:\Users\Einstein\AppData\Local\Temp\{D8717E8C-C6B2-43EB-B59B-6498A87373A3} PAGE   19

     991 0000001e 60E5              STRNE     V2, [V1, #12]         ; [DPU_3_PIPE] |308|  ; [ORIG 16-BIT INS]
     992                            .dwpsn  file "../Application/MAC/OSAL/osal_timers.c",line 311,column 3,is_stmt,isa 1
     993 00000020 4805              LDR       A1, $C$CON19          ; [DPU_3_PIPE] |311|  ; [ORIG 16-BIT INS]
     994 00000022 6801              LDR       A2, [A1, #0]          ; [DPU_3_PIPE] |311|  ; [ORIG 16-BIT INS]
     995 00000024 4638              MOV       A1, V4                ; [DPU_3_PIPE] |311|  ; [ORIG 16-BIT INS]
     996                    $C$DW$72        .dwtag  DW_TAG_TI_branch
     997                            .dwattr $C$DW$72, DW_AT_low_pc(0x00)
     998                            .dwattr $C$DW$72, DW_AT_TI_call
     999                            .dwattr $C$DW$72, DW_AT_TI_indirect
    1000                    
    1001 00000026 4788              BLX       A2                    ; [DPU_3_PIPE] |311|  ; [ORIG 16-BIT INS]
    1002                            ; CALL OCCURS {}                 ; [] |311| 
    1003                            .dwpsn  file "../Application/MAC/OSAL/osal_timers.c",line 313,column 3,is_stmt,isa 1
    1004 00000028 2C00              CMP       V1, #0                ; [DPU_3_PIPE] |313|  ; [ORIG 16-BIT INS]
    1005 0000002a BF14              ITE       NE                    ; [DPU_3_PIPE]  ; [ORIG 16-BIT INS]
    1006 0000002c 2000              MOVNE     A1, #0                ; [DPU_3_PIPE] |313|  ; [ORIG 16-BIT INS]
    1007 0000002e 2008              MOVEQ     A1, #8                ; [DPU_3_PIPE] |313|  ; [ORIG 16-BIT INS]
    1008                    $C$DW$73        .dwtag  DW_TAG_TI_branch
    1009                            .dwattr $C$DW$73, DW_AT_low_pc(0x00)
    1010                            .dwattr $C$DW$73, DW_AT_TI_return
    1011                    
    1012 00000030 BDF8              POP       {A4, V1, V2, V3, V4, PC} ; [DPU_3_PIPE]  ; [ORIG 16-BIT INS]
    1013                            .dwcfi  cfa_offset, 0
    1014                            .dwcfi  restore_reg, 7
    1015                            .dwcfi  restore_reg, 6
    1016                            .dwcfi  restore_reg, 5
    1017                            .dwcfi  restore_reg, 4
    1018                            .dwcfi  restore_reg, 3
    1019                            ; BRANCH OCCURS                  ; [] 
    1020                            .dwattr $C$DW$63, DW_AT_TI_end_file("../Application/MAC/OSAL/osal_timers.c")
    1021                            .dwattr $C$DW$63, DW_AT_TI_end_line(0x13a)
    1022                            .dwattr $C$DW$63, DW_AT_TI_end_column(0x01)
    1023                            .dwendentry
    1024                            .dwendtag $C$DW$63
    1025                    
    1026 00000000                   .sect   ".text:osal_next_timeout"
    1027                            .clink
    1028                            .thumbfunc osal_next_timeout
    1029 00000000                   .thumb
    1030                            .global osal_next_timeout
    1031                    
    1032                    $C$DW$74        .dwtag  DW_TAG_subprogram
    1033                            .dwattr $C$DW$74, DW_AT_name("osal_next_timeout")
    1034                            .dwattr $C$DW$74, DW_AT_low_pc(osal_next_timeout)
    1035                            .dwattr $C$DW$74, DW_AT_high_pc(0x00)
    1036                            .dwattr $C$DW$74, DW_AT_TI_symbol_name("osal_next_timeout")
    1037                            .dwattr $C$DW$74, DW_AT_external
    1038                            .dwattr $C$DW$74, DW_AT_type(*$C$DW$T$22)
    1039                            .dwattr $C$DW$74, DW_AT_TI_begin_file("../Application/MAC/OSAL/osal_timers.c")
    1040                            .dwattr $C$DW$74, DW_AT_TI_begin_line(0x23f)
    1041                            .dwattr $C$DW$74, DW_AT_TI_begin_column(0x08)
    1042                            .dwattr $C$DW$74, DW_AT_decl_file("../Application/MAC/OSAL/osal_timers.c")
    1043                            .dwattr $C$DW$74, DW_AT_decl_line(0x23f)
    1044                            .dwattr $C$DW$74, DW_AT_decl_column(0x08)
    1045                            .dwattr $C$DW$74, DW_AT_TI_max_frame_size(0x00)
TI ARM Assembler PC v16.9.8 Mon Dec 10 17:47:35 2018

Tools Copyright (c) 1996-2017 Texas Instruments Incorporated
C:\Users\Einstein\AppData\Local\Temp\{D8717E8C-C6B2-43EB-B59B-6498A87373A3} PAGE   20

    1046                            .dwpsn  file "../Application/MAC/OSAL/osal_timers.c",line 576,column 1,is_stmt,address osal_ne
    1047                    
    1048                            .dwfde $C$DW$CIE, osal_next_timeout
    1049                    
    1050                    ;*****************************************************************************
    1051                    ;* FUNCTION NAME: osal_next_timeout                                          *
    1052                    ;*                                                                           *
    1053                    ;*   Regs Modified     : A1,A2,A3,SR                                         *
    1054                    ;*   Regs Used         : A1,A2,A3,LR,SR                                      *
    1055                    ;*   Local Frame Size  : 0 Args + 0 Auto + 0 Save = 0 byte                   *
    1056                    ;*****************************************************************************
    1057                    osal_next_timeout:
    1058                    ;* --------------------------------------------------------------------------*
    1059                    ;* A3    assigned to $O$C16
    1060                    ;* A1    assigned to $O$U4
    1061                    ;* A2    assigned to nextTimeout
    1062                    $C$DW$75        .dwtag  DW_TAG_variable
    1063                            .dwattr $C$DW$75, DW_AT_name("nextTimeout")
    1064                            .dwattr $C$DW$75, DW_AT_TI_symbol_name("nextTimeout")
    1065                            .dwattr $C$DW$75, DW_AT_type(*$C$DW$T$22)
    1066                            .dwattr $C$DW$75, DW_AT_location[DW_OP_reg1]
    1067                    
    1068                    ;* A1    assigned to srchTimer
    1069                    $C$DW$76        .dwtag  DW_TAG_variable
    1070                            .dwattr $C$DW$76, DW_AT_name("srchTimer")
    1071                            .dwattr $C$DW$76, DW_AT_TI_symbol_name("srchTimer")
    1072                            .dwattr $C$DW$76, DW_AT_type(*$C$DW$T$187)
    1073                            .dwattr $C$DW$76, DW_AT_location[DW_OP_reg0]
    1074                    
    1075                            .dwcfi  cfa_offset, 0
    1076                            .dwpsn  file "../Application/MAC/OSAL/osal_timers.c",line 580,column 3,is_stmt,isa 1
    1077 00000000 4807              LDR       A1, $C$CON20          ; [DPU_3_PIPE] |580|  ; [ORIG 16-BIT INS]
    1078 00000002 6800              LDR       A1, [A1, #0]          ; [DPU_3_PIPE] |580|  ; [ORIG 16-BIT INS]
    1079 00000004 2800              CMP       A1, #0                ; [DPU_3_PIPE] |580|  ; [ORIG 16-BIT INS]
    1080 00000006 BF08              IT        EQ                    ; [DPU_3_PIPE]  ; [ORIG 16-BIT INS]
    1081                            .dwpsn  file "../Application/MAC/OSAL/osal_timers.c",line 600,column 5,is_stmt,isa 1
    1082 00000008 2100              MOVEQ     A2, #0                ; [DPU_3_PIPE] |600|  ; [ORIG 16-BIT INS]
    1083 0000000a D007              BEQ       ||$C$L13||            ; [DPU_3_PIPE] |600|  ; [ORIG 16-BIT INS]
    1084                            ; BRANCHCC OCCURS {||$C$L13||}   ; [] |600| 
    1085                    ;* --------------------------------------------------------------------------*
    1086                            .dwpsn  file "../Application/MAC/OSAL/osal_timers.c",line 584,column 5,is_stmt,isa 1
    1087 0000000c 4905              LDR       A2, $C$CON21          ; [DPU_3_PIPE] |584|  ; [ORIG 16-BIT INS]
    1088                    ;* --------------------------------------------------------------------------*
    1089                    ;*   BEGIN LOOP ||$C$L12||
    1090                    ;*
    1091                    ;*   Loop source line                : 587
    1092                    ;*   Loop closing brace source line  : 595
    1093                    ;*   Known Minimum Trip Count        : 1
    1094                    ;*   Known Maximum Trip Count        : 4294967295
    1095                    ;*   Known Max Trip Count Factor     : 1
    1096                    ;* --------------------------------------------------------------------------*
    1097 0000000e           ||$C$L12||:    
    1098                            .dwpsn  file "../Application/MAC/OSAL/osal_timers.c",line 589,column 7,is_stmt,isa 1
    1099 0000000e 6842              LDR       A3, [A1, #4]          ; [DPU_3_PIPE] |589|  ; [ORIG 16-BIT INS]
    1100 00000010 4291              CMP       A2, A3                ; [DPU_3_PIPE] |589|  ; [ORIG 16-BIT INS]
TI ARM Assembler PC v16.9.8 Mon Dec 10 17:47:35 2018

Tools Copyright (c) 1996-2017 Texas Instruments Incorporated
C:\Users\Einstein\AppData\Local\Temp\{D8717E8C-C6B2-43EB-B59B-6498A87373A3} PAGE   21

    1101 00000012 BF88              IT        HI                    ; [DPU_3_PIPE]  ; [ORIG 16-BIT INS]
    1102                            .dwpsn  file "../Application/MAC/OSAL/osal_timers.c",line 591,column 9,is_stmt,isa 1
    1103 00000014 1C11              MOVHI     A2, A3                ; [DPU_3_PIPE] |591|  ; [ORIG 16-BIT INS]
    1104                            .dwpsn  file "../Application/MAC/OSAL/osal_timers.c",line 594,column 7,is_stmt,isa 1
    1105 00000016 6800              LDR       A1, [A1, #0]          ; [DPU_3_PIPE] |594|  ; [ORIG 16-BIT INS]
    1106                            .dwpsn  file "../Application/MAC/OSAL/osal_timers.c",line 587,column 13,is_stmt,isa 1
    1107 00000018 2800              CMP       A1, #0                ; [DPU_3_PIPE] |587|  ; [ORIG 16-BIT INS]
    1108 0000001a D1F8              BNE       ||$C$L12||            ; [DPU_3_PIPE] |587|  ; [ORIG 16-BIT INS]
    1109                            ; BRANCHCC OCCURS {||$C$L12||}   ; [] |587| 
    1110                    ;* --------------------------------------------------------------------------*
    1111 0000001c           ||$C$L13||:    
    1112                            .dwpsn  file "../Application/MAC/OSAL/osal_timers.c",line 603,column 3,is_stmt,isa 1
    1113 0000001c 4608              MOV       A1, A2                ; [DPU_3_PIPE] |603|  ; [ORIG 16-BIT INS]
    1114                    $C$DW$77        .dwtag  DW_TAG_TI_branch
    1115                            .dwattr $C$DW$77, DW_AT_low_pc(0x00)
    1116                            .dwattr $C$DW$77, DW_AT_TI_return
    1117                    
    1118 0000001e 4770              BX        LR                    ; [DPU_3_PIPE]  ; [ORIG 16-BIT INS]
    1119                            ; BRANCH OCCURS                  ; [] 
    1120                            .dwattr $C$DW$74, DW_AT_TI_end_file("../Application/MAC/OSAL/osal_timers.c")
    1121                            .dwattr $C$DW$74, DW_AT_TI_end_line(0x25c)
    1122                            .dwattr $C$DW$74, DW_AT_TI_end_column(0x01)
    1123                            .dwendentry
    1124                            .dwendtag $C$DW$74
    1125                    
    1126 00000000                   .sect   ".text:osal_get_timeoutEx"
    1127                            .clink
    1128                            .thumbfunc osal_get_timeoutEx
    1129 00000000                   .thumb
    1130                            .global osal_get_timeoutEx
    1131                    
    1132                    $C$DW$78        .dwtag  DW_TAG_subprogram
    1133                            .dwattr $C$DW$78, DW_AT_name("osal_get_timeoutEx")
    1134                            .dwattr $C$DW$78, DW_AT_low_pc(osal_get_timeoutEx)
    1135                            .dwattr $C$DW$78, DW_AT_high_pc(0x00)
    1136                            .dwattr $C$DW$78, DW_AT_TI_symbol_name("osal_get_timeoutEx")
    1137                            .dwattr $C$DW$78, DW_AT_external
    1138                            .dwattr $C$DW$78, DW_AT_type(*$C$DW$T$22)
    1139                            .dwattr $C$DW$78, DW_AT_TI_begin_file("../Application/MAC/OSAL/osal_timers.c")
    1140                            .dwattr $C$DW$78, DW_AT_TI_begin_line(0x167)
    1141                            .dwattr $C$DW$78, DW_AT_TI_begin_column(0x08)
    1142                            .dwattr $C$DW$78, DW_AT_decl_file("../Application/MAC/OSAL/osal_timers.c")
    1143                            .dwattr $C$DW$78, DW_AT_decl_line(0x167)
    1144                            .dwattr $C$DW$78, DW_AT_decl_column(0x08)
    1145                            .dwattr $C$DW$78, DW_AT_TI_max_frame_size(0x10)
    1146                            .dwpsn  file "../Application/MAC/OSAL/osal_timers.c",line 360,column 1,is_stmt,address osal_ge
    1147                    
    1148                            .dwfde $C$DW$CIE, osal_get_timeoutEx
    1149                    $C$DW$79        .dwtag  DW_TAG_formal_parameter
    1150                            .dwattr $C$DW$79, DW_AT_name("task_id")
    1151                            .dwattr $C$DW$79, DW_AT_TI_symbol_name("task_id")
    1152                            .dwattr $C$DW$79, DW_AT_type(*$C$DW$T$10)
    1153                            .dwattr $C$DW$79, DW_AT_location[DW_OP_reg0]
    1154                    
    1155                    $C$DW$80        .dwtag  DW_TAG_formal_parameter
TI ARM Assembler PC v16.9.8 Mon Dec 10 17:47:35 2018

Tools Copyright (c) 1996-2017 Texas Instruments Incorporated
C:\Users\Einstein\AppData\Local\Temp\{D8717E8C-C6B2-43EB-B59B-6498A87373A3} PAGE   22

    1156                            .dwattr $C$DW$80, DW_AT_name("event_id")
    1157                            .dwattr $C$DW$80, DW_AT_TI_symbol_name("event_id")
    1158                            .dwattr $C$DW$80, DW_AT_type(*$C$DW$T$10)
    1159                            .dwattr $C$DW$80, DW_AT_location[DW_OP_reg1]
    1160                    
    1161                    
    1162                    ;*****************************************************************************
    1163                    ;* FUNCTION NAME: osal_get_timeoutEx                                         *
    1164                    ;*                                                                           *
    1165                    ;*   Regs Modified     : A1,A2,A3,A4,V1,V2,V3,V9,SP,LR,SR                    *
    1166                    ;*   Regs Used         : A1,A2,A3,A4,V1,V2,V3,V9,SP,LR,SR                    *
    1167                    ;*   Local Frame Size  : 0 Args + 0 Auto + 16 Save = 16 byte                 *
    1168                    ;*****************************************************************************
    1169                    osal_get_timeoutEx:
    1170                    ;* --------------------------------------------------------------------------*
    1171                    ;* V3    assigned to intState
    1172                    $C$DW$81        .dwtag  DW_TAG_variable
    1173                            .dwattr $C$DW$81, DW_AT_name("intState")
    1174                            .dwattr $C$DW$81, DW_AT_TI_symbol_name("intState")
    1175                            .dwattr $C$DW$81, DW_AT_type(*$C$DW$T$264)
    1176                            .dwattr $C$DW$81, DW_AT_location[DW_OP_reg6]
    1177                    
    1178                    ;* V1    assigned to rtrn
    1179                    $C$DW$82        .dwtag  DW_TAG_variable
    1180                            .dwattr $C$DW$82, DW_AT_name("rtrn")
    1181                            .dwattr $C$DW$82, DW_AT_TI_symbol_name("rtrn")
    1182                            .dwattr $C$DW$82, DW_AT_type(*$C$DW$T$22)
    1183                            .dwattr $C$DW$82, DW_AT_location[DW_OP_reg4]
    1184                    
    1185                    ;* A1    assigned to tmr
    1186                    $C$DW$83        .dwtag  DW_TAG_variable
    1187                            .dwattr $C$DW$83, DW_AT_name("tmr")
    1188                            .dwattr $C$DW$83, DW_AT_TI_symbol_name("tmr")
    1189                            .dwattr $C$DW$83, DW_AT_type(*$C$DW$T$187)
    1190                            .dwattr $C$DW$83, DW_AT_location[DW_OP_reg0]
    1191                    
    1192                            .dwcfi  cfa_offset, 0
    1193 00000000 B570              PUSH      {V1, V2, V3, LR}      ; [DPU_3_PIPE]  ; [ORIG 16-BIT INS]
    1194                            .dwcfi  cfa_offset, 16
    1195                            .dwcfi  save_reg_to_mem, 14, -4
    1196                            .dwcfi  save_reg_to_mem, 6, -8
    1197                            .dwcfi  save_reg_to_mem, 5, -12
    1198                            .dwcfi  save_reg_to_mem, 4, -16
    1199 00000002 4605              MOV       V2, A1                ; [DPU_3_PIPE] |360|  ; [ORIG 16-BIT INS]
    1200                            .dwpsn  file "../Application/MAC/OSAL/osal_timers.c",line 365,column 3,is_stmt,isa 1
    1201 00000004 4809              LDR       A1, $C$CON22          ; [DPU_3_PIPE] |365|  ; [ORIG 16-BIT INS]
    1202 00000006 6800              LDR       A1, [A1, #0]          ; [DPU_3_PIPE] |365|  ; [ORIG 16-BIT INS]
    1203                            .dwpsn  file "../Application/MAC/OSAL/osal_timers.c",line 360,column 1,is_stmt,isa 1
    1204 00000008 460C              MOV       V1, A2                ; [DPU_3_PIPE] |360|  ; [ORIG 16-BIT INS]
    1205                            .dwpsn  file "../Application/MAC/OSAL/osal_timers.c",line 365,column 3,is_stmt,isa 1
    1206                    $C$DW$84        .dwtag  DW_TAG_TI_branch
    1207                            .dwattr $C$DW$84, DW_AT_low_pc(0x00)
    1208                            .dwattr $C$DW$84, DW_AT_TI_call
    1209                            .dwattr $C$DW$84, DW_AT_TI_indirect
    1210                    
TI ARM Assembler PC v16.9.8 Mon Dec 10 17:47:35 2018

Tools Copyright (c) 1996-2017 Texas Instruments Incorporated
C:\Users\Einstein\AppData\Local\Temp\{D8717E8C-C6B2-43EB-B59B-6498A87373A3} PAGE   23

    1211 0000000a 4780              BLX       A1                    ; [DPU_3_PIPE] |365|  ; [ORIG 16-BIT INS]
    1212                            ; CALL OCCURS {}                 ; [] |365| 
    1213 0000000c 4606              MOV       V3, A1                ; [DPU_3_PIPE] |365|  ; [ORIG 16-BIT INS]
    1214                            .dwpsn  file "../Application/MAC/OSAL/osal_timers.c",line 367,column 3,is_stmt,isa 1
    1215 0000000e 4621              MOV       A2, V1                ; [DPU_3_PIPE] |367|  ; [ORIG 16-BIT INS]
    1216 00000010 4628              MOV       A1, V2                ; [DPU_3_PIPE] |367|  ; [ORIG 16-BIT INS]
    1217                    $C$DW$85        .dwtag  DW_TAG_TI_branch
    1218                            .dwattr $C$DW$85, DW_AT_low_pc(0x00)
    1219                            .dwattr $C$DW$85, DW_AT_name("osalFindTimer")
    1220                            .dwattr $C$DW$85, DW_AT_TI_call
    1221                    
    1222 00000012 FFFEF7FF!         BL        osalFindTimer         ; [DPU_3_PIPE] |367|  ; [KEEP 32-BIT INS]
    1223                            ; CALL OCCURS {osalFindTimer }   ; [] |367| 
    1224                            .dwpsn  file "../Application/MAC/OSAL/osal_timers.c",line 371,column 5,is_stmt,isa 1
    1225 00000016 2800              CMP       A1, #0                ; [DPU_3_PIPE] |371|  ; [ORIG 16-BIT INS]
    1226 00000018 BF14              ITE       NE                    ; [DPU_3_PIPE]  ; [ORIG 16-BIT INS]
    1227 0000001a 6844              LDRNE     V1, [A1, #4]          ; [DPU_3_PIPE] |371|  ; [ORIG 16-BIT INS]
    1228 0000001c 2400              MOVEQ     V1, #0                ; [DPU_3_PIPE] |371|  ; [ORIG 16-BIT INS]
    1229                            .dwpsn  file "../Application/MAC/OSAL/osal_timers.c",line 374,column 3,is_stmt,isa 1
    1230 0000001e 4804              LDR       A1, $C$CON23          ; [DPU_3_PIPE] |374|  ; [ORIG 16-BIT INS]
    1231 00000020 6801              LDR       A2, [A1, #0]          ; [DPU_3_PIPE] |374|  ; [ORIG 16-BIT INS]
    1232 00000022 4630              MOV       A1, V3                ; [DPU_3_PIPE] |374|  ; [ORIG 16-BIT INS]
    1233                    $C$DW$86        .dwtag  DW_TAG_TI_branch
    1234                            .dwattr $C$DW$86, DW_AT_low_pc(0x00)
    1235                            .dwattr $C$DW$86, DW_AT_TI_call
    1236                            .dwattr $C$DW$86, DW_AT_TI_indirect
    1237                    
    1238 00000024 4788              BLX       A2                    ; [DPU_3_PIPE] |374|  ; [ORIG 16-BIT INS]
    1239                            ; CALL OCCURS {}                 ; [] |374| 
    1240                            .dwpsn  file "../Application/MAC/OSAL/osal_timers.c",line 376,column 3,is_stmt,isa 1
    1241 00000026 4620              MOV       A1, V1                ; [DPU_3_PIPE] |376|  ; [ORIG 16-BIT INS]
    1242                    $C$DW$87        .dwtag  DW_TAG_TI_branch
    1243                            .dwattr $C$DW$87, DW_AT_low_pc(0x00)
    1244                            .dwattr $C$DW$87, DW_AT_TI_return
    1245                    
    1246 00000028 BD70              POP       {V1, V2, V3, PC}      ; [DPU_3_PIPE]  ; [ORIG 16-BIT INS]
    1247                            .dwcfi  cfa_offset, 0
    1248                            .dwcfi  restore_reg, 6
    1249                            .dwcfi  restore_reg, 5
    1250                            .dwcfi  restore_reg, 4
    1251                            ; BRANCH OCCURS                  ; [] 
    1252                            .dwattr $C$DW$78, DW_AT_TI_end_file("../Application/MAC/OSAL/osal_timers.c")
    1253                            .dwattr $C$DW$78, DW_AT_TI_end_line(0x179)
    1254                            .dwattr $C$DW$78, DW_AT_TI_end_column(0x01)
    1255                            .dwendentry
    1256                            .dwendtag $C$DW$78
    1257                    
    1258 00000000                   .sect   ".text:osal_GetSystemClock"
    1259                            .clink
    1260                            .thumbfunc osal_GetSystemClock
    1261 00000000                   .thumb
    1262                            .global osal_GetSystemClock
    1263                    
    1264                    $C$DW$88        .dwtag  DW_TAG_subprogram
    1265                            .dwattr $C$DW$88, DW_AT_name("osal_GetSystemClock")
TI ARM Assembler PC v16.9.8 Mon Dec 10 17:47:35 2018

Tools Copyright (c) 1996-2017 Texas Instruments Incorporated
C:\Users\Einstein\AppData\Local\Temp\{D8717E8C-C6B2-43EB-B59B-6498A87373A3} PAGE   24

    1266                            .dwattr $C$DW$88, DW_AT_low_pc(osal_GetSystemClock)
    1267                            .dwattr $C$DW$88, DW_AT_high_pc(0x00)
    1268                            .dwattr $C$DW$88, DW_AT_TI_symbol_name("osal_GetSystemClock")
    1269                            .dwattr $C$DW$88, DW_AT_external
    1270                            .dwattr $C$DW$88, DW_AT_type(*$C$DW$T$22)
    1271                            .dwattr $C$DW$88, DW_AT_TI_begin_file("../Application/MAC/OSAL/osal_timers.c")
    1272                            .dwattr $C$DW$88, DW_AT_TI_begin_line(0x268)
    1273                            .dwattr $C$DW$88, DW_AT_TI_begin_column(0x08)
    1274                            .dwattr $C$DW$88, DW_AT_decl_file("../Application/MAC/OSAL/osal_timers.c")
    1275                            .dwattr $C$DW$88, DW_AT_decl_line(0x268)
    1276                            .dwattr $C$DW$88, DW_AT_decl_column(0x08)
    1277                            .dwattr $C$DW$88, DW_AT_TI_max_frame_size(0x00)
    1278                            .dwpsn  file "../Application/MAC/OSAL/osal_timers.c",line 617,column 1,is_stmt,address osal_Ge
    1279                    
    1280                            .dwfde $C$DW$CIE, osal_GetSystemClock
    1281                    
    1282                    ;*****************************************************************************
    1283                    ;* FUNCTION NAME: osal_GetSystemClock                                        *
    1284                    ;*                                                                           *
    1285                    ;*   Regs Modified     : A1,SR                                               *
    1286                    ;*   Regs Used         : A1,LR,SR                                            *
    1287                    ;*   Local Frame Size  : 0 Args + 0 Auto + 0 Save = 0 byte                   *
    1288                    ;*****************************************************************************
    1289 00000000           osal_GetSystemClock:
    1290                    ;* --------------------------------------------------------------------------*
    1291                            .dwcfi  cfa_offset, 0
    1292                            .dwpsn  file "../Application/MAC/OSAL/osal_timers.c",line 618,column 3,is_stmt,isa 1
    1293 00000000 4801              LDR       A1, $C$CON25          ; [DPU_3_PIPE] |618|  ; [ORIG 16-BIT INS]
    1294 00000002 1D00              ADDS      A1, A1, #4            ; [DPU_3_PIPE]  ; [ORIG 16-BIT INS]
    1295 00000004 6800              LDR       A1, [A1, #0]          ; [DPU_3_PIPE] |618|  ; [ORIG 16-BIT INS]
    1296                    $C$DW$89        .dwtag  DW_TAG_TI_branch
    1297                            .dwattr $C$DW$89, DW_AT_low_pc(0x00)
    1298                            .dwattr $C$DW$89, DW_AT_TI_return
    1299                    
    1300 00000006 4770              BX        LR                    ; [DPU_3_PIPE]  ; [ORIG 16-BIT INS]
    1301                            ; BRANCH OCCURS                  ; [] 
    1302                            .dwattr $C$DW$88, DW_AT_TI_end_file("../Application/MAC/OSAL/osal_timers.c")
    1303                            .dwattr $C$DW$88, DW_AT_TI_end_line(0x26b)
    1304                            .dwattr $C$DW$88, DW_AT_TI_end_column(0x01)
    1305                            .dwendentry
    1306                            .dwendtag $C$DW$88
    1307                    
    1308 00000000                   .sect   ".text:osalTimerUpdate"
    1309                            .clink
    1310                            .thumbfunc osalTimerUpdate
    1311 00000000                   .thumb
    1312                            .global osalTimerUpdate
    1313                    
    1314                    $C$DW$90        .dwtag  DW_TAG_subprogram
    1315                            .dwattr $C$DW$90, DW_AT_name("osalTimerUpdate")
    1316                            .dwattr $C$DW$90, DW_AT_low_pc(osalTimerUpdate)
    1317                            .dwattr $C$DW$90, DW_AT_high_pc(0x00)
    1318                            .dwattr $C$DW$90, DW_AT_TI_symbol_name("osalTimerUpdate")
    1319                            .dwattr $C$DW$90, DW_AT_external
    1320                            .dwattr $C$DW$90, DW_AT_TI_begin_file("../Application/MAC/OSAL/osal_timers.c")
TI ARM Assembler PC v16.9.8 Mon Dec 10 17:47:35 2018

Tools Copyright (c) 1996-2017 Texas Instruments Incorporated
C:\Users\Einstein\AppData\Local\Temp\{D8717E8C-C6B2-43EB-B59B-6498A87373A3} PAGE   25

    1321                            .dwattr $C$DW$90, DW_AT_TI_begin_line(0x1a4)
    1322                            .dwattr $C$DW$90, DW_AT_TI_begin_column(0x06)
    1323                            .dwattr $C$DW$90, DW_AT_decl_file("../Application/MAC/OSAL/osal_timers.c")
    1324                            .dwattr $C$DW$90, DW_AT_decl_line(0x1a4)
    1325                            .dwattr $C$DW$90, DW_AT_decl_column(0x06)
    1326                            .dwattr $C$DW$90, DW_AT_TI_max_frame_size(0x28)
    1327                            .dwpsn  file "../Application/MAC/OSAL/osal_timers.c",line 421,column 1,is_stmt,address osalTim
    1328                    
    1329                            .dwfde $C$DW$CIE, osalTimerUpdate
    1330                    $C$DW$91        .dwtag  DW_TAG_formal_parameter
    1331                            .dwattr $C$DW$91, DW_AT_name("updateTime")
    1332                            .dwattr $C$DW$91, DW_AT_TI_symbol_name("updateTime")
    1333                            .dwattr $C$DW$91, DW_AT_type(*$C$DW$T$22)
    1334                            .dwattr $C$DW$91, DW_AT_location[DW_OP_reg0]
    1335                    
    1336                    
    1337                    ;*****************************************************************************
    1338                    ;* FUNCTION NAME: osalTimerUpdate                                            *
    1339                    ;*                                                                           *
    1340                    ;*   Regs Modified     : A1,A2,A3,A4,V1,V2,V3,V4,V5,V6,V7,V8,V9,SP,LR,SR     *
    1341                    ;*   Regs Used         : A1,A2,A3,A4,V1,V2,V3,V4,V5,V6,V7,V8,V9,SP,LR,SR     *
    1342                    ;*   Local Frame Size  : 0 Args + 4 Auto + 36 Save = 40 byte                 *
    1343                    ;*****************************************************************************
    1344                    osalTimerUpdate:
    1345                    ;* --------------------------------------------------------------------------*
    1346                    ;* A4    assigned to $O$C1
    1347                    ;* V6    assigned to $O$C2
    1348                    ;* V3    assigned to $O$C3
    1349                    ;* V7    assigned to $O$C4
    1350                    ;* A1    assigned to $O$U3
    1351                    ;* A1    assigned to $O$U3
    1352                    ;* V8    assigned to intState
    1353                    $C$DW$92        .dwtag  DW_TAG_variable
    1354                            .dwattr $C$DW$92, DW_AT_name("intState")
    1355                            .dwattr $C$DW$92, DW_AT_TI_symbol_name("intState")
    1356                            .dwattr $C$DW$92, DW_AT_type(*$C$DW$T$264)
    1357                            .dwattr $C$DW$92, DW_AT_location[DW_OP_reg11]
    1358                    
    1359                    ;* A1    assigned to $O$U17
    1360                    ;* V6    assigned to $O$K5
    1361                    ;* A1    assigned to $O$U49
    1362                    ;* V5    assigned to $O$K10
    1363                    ;* A1    assigned to $O$U70
    1364                    ;* V7    assigned to $O$K14
    1365                    ;* V1    assigned to updateTime
    1366                    $C$DW$93        .dwtag  DW_TAG_variable
    1367                            .dwattr $C$DW$93, DW_AT_name("updateTime")
    1368                            .dwattr $C$DW$93, DW_AT_TI_symbol_name("updateTime")
    1369                            .dwattr $C$DW$93, DW_AT_type(*$C$DW$T$272)
    1370                            .dwattr $C$DW$93, DW_AT_location[DW_OP_reg4]
    1371                    
    1372                    ;* V4    assigned to srchTimer
    1373                    $C$DW$94        .dwtag  DW_TAG_variable
    1374                            .dwattr $C$DW$94, DW_AT_name("srchTimer")
    1375                            .dwattr $C$DW$94, DW_AT_TI_symbol_name("srchTimer")
TI ARM Assembler PC v16.9.8 Mon Dec 10 17:47:35 2018

Tools Copyright (c) 1996-2017 Texas Instruments Incorporated
C:\Users\Einstein\AppData\Local\Temp\{D8717E8C-C6B2-43EB-B59B-6498A87373A3} PAGE   26

    1376                            .dwattr $C$DW$94, DW_AT_type(*$C$DW$T$187)
    1377                            .dwattr $C$DW$94, DW_AT_location[DW_OP_reg7]
    1378                    
    1379                    ;* V2    assigned to prevTimer
    1380                    $C$DW$95        .dwtag  DW_TAG_variable
    1381                            .dwattr $C$DW$95, DW_AT_name("prevTimer")
    1382                            .dwattr $C$DW$95, DW_AT_TI_symbol_name("prevTimer")
    1383                            .dwattr $C$DW$95, DW_AT_type(*$C$DW$T$187)
    1384                            .dwattr $C$DW$95, DW_AT_location[DW_OP_reg5]
    1385                    
    1386                    ;* V3    assigned to freeTimer
    1387                    $C$DW$96        .dwtag  DW_TAG_variable
    1388                            .dwattr $C$DW$96, DW_AT_name("freeTimer")
    1389                            .dwattr $C$DW$96, DW_AT_TI_symbol_name("freeTimer")
    1390                            .dwattr $C$DW$96, DW_AT_type(*$C$DW$T$187)
    1391                            .dwattr $C$DW$96, DW_AT_location[DW_OP_reg6]
    1392                    
    1393                    ;* V1    assigned to timeUnion
    1394                    $C$DW$97        .dwtag  DW_TAG_variable
    1395                            .dwattr $C$DW$97, DW_AT_name("timeUnion")
    1396                            .dwattr $C$DW$97, DW_AT_TI_symbol_name("timeUnion")
    1397                            .dwattr $C$DW$97, DW_AT_type(*$C$DW$T$19)
    1398                            .dwattr $C$DW$97, DW_AT_location[DW_OP_reg4]
    1399                    
    1400                            .dwcfi  cfa_offset, 0
    1401 00000000 4FF8E92D          PUSH      {A4, V1, V2, V3, V4, V5, V6, V7, V8, LR} ; [DPU_3_PIPE]  ; [KEEP 32-BIT INS]
    1402                            .dwcfi  cfa_offset, 40
    1403                            .dwcfi  save_reg_to_mem, 14, -4
    1404                            .dwcfi  save_reg_to_mem, 11, -8
    1405                            .dwcfi  save_reg_to_mem, 10, -12
    1406                            .dwcfi  save_reg_to_mem, 9, -16
    1407                            .dwcfi  save_reg_to_mem, 8, -20
    1408                            .dwcfi  save_reg_to_mem, 7, -24
    1409                            .dwcfi  save_reg_to_mem, 6, -28
    1410                            .dwcfi  save_reg_to_mem, 5, -32
    1411                            .dwcfi  save_reg_to_mem, 4, -36
    1412                            .dwcfi  save_reg_to_mem, 3, -40
    1413                            .dwpsn  file "../Application/MAC/OSAL/osal_timers.c",line 429,column 3,is_stmt,isa 1
    1414 00000004 90DCF8DF          LDR       V6, $C$CON30          ; [DPU_3_PIPE] |429|  ; [KEEP 32-BIT INS]
    1415                            .dwpsn  file "../Application/MAC/OSAL/osal_timers.c",line 421,column 1,is_stmt,isa 1
    1416 00000008 4604              MOV       V1, A1                ; [DPU_3_PIPE] |421|  ; [ORIG 16-BIT INS]
    1417                            .dwpsn  file "../Application/MAC/OSAL/osal_timers.c",line 429,column 3,is_stmt,isa 1
    1418 0000000a 0000F8D9          LDR       A1, [V6, #0]          ; [DPU_3_PIPE] |429|  ; [KEEP 32-BIT INS]
    1419                    $C$DW$98        .dwtag  DW_TAG_TI_branch
    1420                            .dwattr $C$DW$98, DW_AT_low_pc(0x00)
    1421                            .dwattr $C$DW$98, DW_AT_TI_call
    1422                            .dwattr $C$DW$98, DW_AT_TI_indirect
    1423                    
    1424 0000000e 4780              BLX       A1                    ; [DPU_3_PIPE] |429|  ; [ORIG 16-BIT INS]
    1425                            ; CALL OCCURS {}                 ; [] |429| 
    1426                            .dwpsn  file "../Application/MAC/OSAL/osal_timers.c",line 431,column 3,is_stmt,isa 1
    1427 00000010 4E35              LDR       V3, $C$CON31          ; [DPU_3_PIPE] |431|  ; [ORIG 16-BIT INS]
    1428                            .dwpsn  file "../Application/MAC/OSAL/osal_timers.c",line 432,column 3,is_stmt,isa 1
    1429 00000012 A0D8F8DF          LDR       V7, $C$CON32          ; [DPU_3_PIPE] |432|  ; [KEEP 32-BIT INS]
    1430 00000016 1D32              ADDS      A3, V3, #4            ; [DPU_3_PIPE]  ; [ORIG 16-BIT INS]
TI ARM Assembler PC v16.9.8 Mon Dec 10 17:47:35 2018

Tools Copyright (c) 1996-2017 Texas Instruments Incorporated
C:\Users\Einstein\AppData\Local\Temp\{D8717E8C-C6B2-43EB-B59B-6498A87373A3} PAGE   27

    1431                            .dwpsn  file "../Application/MAC/OSAL/osal_timers.c",line 431,column 3,is_stmt,isa 1
    1432 00000018 6811              LDR       A2, [A3, #0]          ; [DPU_3_PIPE] |431|  ; [ORIG 16-BIT INS]
    1433 0000001a 1909              ADDS      A2, A2, V1            ; [DPU_3_PIPE] |431|  ; [ORIG 16-BIT INS]
    1434 0000001c 6011              STR       A2, [A3, #0]          ; [DPU_3_PIPE] |431|  ; [ORIG 16-BIT INS]
    1435                            .dwpsn  file "../Application/MAC/OSAL/osal_timers.c",line 432,column 3,is_stmt,isa 1
    1436 0000001e 1000F8DA          LDR       A2, [V7, #0]          ; [DPU_3_PIPE] |432|  ; [KEEP 32-BIT INS]
    1437                    $C$DW$99        .dwtag  DW_TAG_TI_branch
    1438                            .dwattr $C$DW$99, DW_AT_low_pc(0x00)
    1439                            .dwattr $C$DW$99, DW_AT_TI_call
    1440                            .dwattr $C$DW$99, DW_AT_TI_indirect
    1441                    
    1442 00000022 4788              BLX       A2                    ; [DPU_3_PIPE] |432|  ; [ORIG 16-BIT INS]
    1443                            ; CALL OCCURS {}                 ; [] |432| 
    1444                            .dwpsn  file "../Application/MAC/OSAL/osal_timers.c",line 435,column 3,is_stmt,isa 1
    1445 00000024 6830              LDR       A1, [V3, #0]          ; [DPU_3_PIPE] |435|  ; [ORIG 16-BIT INS]
    1446 00000026 2800              CMP       A1, #0                ; [DPU_3_PIPE] |435|  ; [ORIG 16-BIT INS]
    1447 00000028 D059              BEQ       ||$C$L29||            ; [DPU_3_PIPE] |435|  ; [ORIG 16-BIT INS]
    1448                            ; BRANCHCC OCCURS {||$C$L29||}   ; [] |435| 
    1449                    ;* --------------------------------------------------------------------------*
    1450                            .dwpsn  file "../Application/MAC/OSAL/osal_timers.c",line 439,column 5,is_stmt,isa 1
    1451 0000002a 2500              MOVS      V2, #0                ; [DPU_3_PIPE] |439|  ; [ORIG 16-BIT INS]
    1452                            .dwpsn  file "../Application/MAC/OSAL/osal_timers.c",line 438,column 5,is_stmt,isa 1
    1453 0000002c 4607              MOV       V4, A1                ; [DPU_3_PIPE] |438|  ; [ORIG 16-BIT INS]
    1454                            .dwpsn  file "../Application/MAC/OSAL/osal_timers.c",line 431,column 3,is_stmt,isa 1
    1455 0000002e 46B0              MOV       V5, V3                ; [DPU_3_PIPE] |431|  ; [ORIG 16-BIT INS]
    1456                            .dwpsn  file "../Application/MAC/OSAL/osal_timers.c",line 429,column 3,is_stmt,isa 1
    1457 00000030 9500              STR       V2, [SP, #0]          ; [DPU_3_PIPE] |429|  ; [ORIG 16-BIT INS]
    1458                    ;* --------------------------------------------------------------------------*
    1459                    ;*   BEGIN LOOP ||$C$L14||
    1460                    ;*
    1461                    ;*   Loop source line                : 429
    1462                    ;*   Loop closing brace source line  : 429
    1463                    ;*   Known Minimum Trip Count        : 1
    1464                    ;*   Known Maximum Trip Count        : 4294967295
    1465                    ;*   Known Max Trip Count Factor     : 1
    1466                    ;* --------------------------------------------------------------------------*
    1467 00000032           ||$C$L14||:    
    1468                            .dwpsn  file "../Application/MAC/OSAL/osal_timers.c",line 446,column 7,is_stmt,isa 1
    1469 00000032 0000F8D9          LDR       A1, [V6, #0]          ; [DPU_3_PIPE] |446|  ; [KEEP 32-BIT INS]
    1470                    $C$DW$100       .dwtag  DW_TAG_TI_branch
    1471                            .dwattr $C$DW$100, DW_AT_low_pc(0x00)
    1472                            .dwattr $C$DW$100, DW_AT_TI_call
    1473                            .dwattr $C$DW$100, DW_AT_TI_indirect
    1474                    
    1475 00000036 4780              BLX       A1                    ; [DPU_3_PIPE] |446|  ; [ORIG 16-BIT INS]
    1476                            ; CALL OCCURS {}                 ; [] |446| 
    1477 00000038 9E00              LDR       V3, [SP, #0]          ; [DPU_3_PIPE] |446|  ; [ORIG 16-BIT INS]
    1478                            .dwpsn  file "../Application/MAC/OSAL/osal_timers.c",line 449,column 7,is_stmt,isa 1
    1479 0000003a F3A4FA1F          UXTH      A4, V1, ROR #16       ; [DPU_3_PIPE] |449|  ; [KEEP 32-BIT INS]
    1480                            .dwpsn  file "../Application/MAC/OSAL/osal_timers.c",line 446,column 7,is_stmt,isa 1
    1481 0000003e 4683              MOV       V8, A1                ; [DPU_3_PIPE] |446|  ; [ORIG 16-BIT INS]
    1482 00000040 B983              CBNZ      A4, ||$C$L16||        ; []  ; [ORIG 16-BIT INS]
    1483                            .dwpsn  file "../Application/MAC/OSAL/osal_timers.c",line 449,column 7,is_stmt,isa 1
    1484                            ; BRANCHCC OCCURS {||$C$L16||}   ; [] |449| 
    1485                    ;* --------------------------------------------------------------------------*
TI ARM Assembler PC v16.9.8 Mon Dec 10 17:47:35 2018

Tools Copyright (c) 1996-2017 Texas Instruments Incorporated
C:\Users\Einstein\AppData\Local\Temp\{D8717E8C-C6B2-43EB-B59B-6498A87373A3} PAGE   28

    1486 00000042 F394FA5F          UXTB      A4, V1, ROR #8        ; [DPU_3_PIPE] |449|  ; [KEEP 32-BIT INS]
    1487 00000046 B96B              CBNZ      A4, ||$C$L16||        ; []  ; [ORIG 16-BIT INS]
    1488                            ; BRANCHCC OCCURS {||$C$L16||}   ; [] |449| 
    1489                    ;* --------------------------------------------------------------------------*
    1490                            .dwpsn  file "../Application/MAC/OSAL/osal_timers.c",line 452,column 9,is_stmt,isa 1
    1491 00000048 7939              LDRB      A2, [V4, #4]          ; [DPU_3_PIPE] |452|  ; [ORIG 16-BIT INS]
    1492 0000004a B2E0              UXTB      A1, V1                ; [DPU_3_PIPE] |452|  ; [ORIG 16-BIT INS]
    1493 0000004c 4288              CMP       A1, A2                ; [DPU_3_PIPE] |452|  ; [ORIG 16-BIT INS]
    1494 0000004e DD04              BLE       ||$C$L15||            ; [DPU_3_PIPE] |452|  ; [ORIG 16-BIT INS]
    1495                            ; BRANCHCC OCCURS {||$C$L15||}   ; [] |452| 
    1496                    ;* --------------------------------------------------------------------------*
    1497                            .dwpsn  file "../Application/MAC/OSAL/osal_timers.c",line 460,column 11,is_stmt,isa 1
    1498 00000050 6879              LDR       A2, [V4, #4]          ; [DPU_3_PIPE] |460|  ; [ORIG 16-BIT INS]
    1499 00000052 4620              MOV       A1, V1                ; [DPU_3_PIPE] |460|  ; [ORIG 16-BIT INS]
    1500 00000054 4288              CMP       A1, A2                ; [DPU_3_PIPE] |460|  ; [ORIG 16-BIT INS]
    1501 00000056 D209              BCS       ||$C$L17||            ; [DPU_3_PIPE] |460|  ; [ORIG 16-BIT INS]
    1502                            ; BRANCHCC OCCURS {||$C$L17||}   ; [] |460| 
    1503                    ;* --------------------------------------------------------------------------*
    1504                            .dwpsn  file "../Application/MAC/OSAL/osal_timers.c",line 463,column 11,is_stmt,isa 1
    1505 00000058 E00A              B         ||$C$L18||            ; [DPU_3_PIPE] |463|  ; [ORIG 16-BIT INS]
    1506                            ; BRANCH OCCURS {||$C$L18||}     ; [] |463| 
    1507                    ;* --------------------------------------------------------------------------*
    1508 0000005a           ||$C$L15||:    
    1509                            .dwpsn  file "../Application/MAC/OSAL/osal_timers.c",line 455,column 11,is_stmt,isa 1
    1510 0000005a 7938              LDRB      A1, [V4, #4]          ; [DPU_3_PIPE] |455|  ; [ORIG 16-BIT INS]
    1511 0000005c B2E1              UXTB      A2, V1                ; [DPU_3_PIPE] |455|  ; [ORIG 16-BIT INS]
    1512 0000005e 1A40              SUBS      A1, A1, A2            ; [DPU_3_PIPE] |455|  ; [ORIG 16-BIT INS]
    1513 00000060 7138              STRB      A1, [V4, #4]          ; [DPU_3_PIPE] |455|  ; [ORIG 16-BIT INS]
    1514                            .dwpsn  file "../Application/MAC/OSAL/osal_timers.c",line 456,column 9,is_stmt,isa 1
    1515 00000062 E008              B         ||$C$L20||            ; [DPU_3_PIPE] |456|  ; [ORIG 16-BIT INS]
    1516                            ; BRANCH OCCURS {||$C$L20||}     ; [] |456| 
    1517                    ;* --------------------------------------------------------------------------*
    1518 00000064           ||$C$L16||:    
    1519                            .dwpsn  file "../Application/MAC/OSAL/osal_timers.c",line 473,column 9,is_stmt,isa 1
    1520 00000064 6879              LDR       A2, [V4, #4]          ; [DPU_3_PIPE] |473|  ; [ORIG 16-BIT INS]
    1521 00000066 4620              MOV       A1, V1                ; [DPU_3_PIPE] |473|  ; [ORIG 16-BIT INS]
    1522 00000068 4288              CMP       A1, A2                ; [DPU_3_PIPE] |473|  ; [ORIG 16-BIT INS]
    1523 0000006a D301              BCC       ||$C$L18||            ; [DPU_3_PIPE] |473|  ; [ORIG 16-BIT INS]
    1524                            ; BRANCHCC OCCURS {||$C$L18||}   ; [] |473| 
    1525                    ;* --------------------------------------------------------------------------*
    1526 0000006c           ||$C$L17||:    
    1527 0000006c 4631              MOV       A2, V3                ; [DPU_3_PIPE]  ; [ORIG 16-BIT INS]
    1528                            .dwpsn  file "../Application/MAC/OSAL/osal_timers.c",line 479,column 11,is_stmt,isa 1
    1529 0000006e E001              B         ||$C$L19||            ; [DPU_3_PIPE] |479|  ; [ORIG 16-BIT INS]
    1530                            ; BRANCH OCCURS {||$C$L19||}     ; [] |479| 
    1531                    ;* --------------------------------------------------------------------------*
    1532 00000070           ||$C$L18||:    
    1533                            .dwpsn  file "../Application/MAC/OSAL/osal_timers.c",line 475,column 11,is_stmt,isa 1
    1534 00000070 6879              LDR       A2, [V4, #4]          ; [DPU_3_PIPE] |475|  ; [ORIG 16-BIT INS]
    1535 00000072 1A09              SUBS      A2, A2, A1            ; [DPU_3_PIPE] |475|  ; [ORIG 16-BIT INS]
    1536                    ;* --------------------------------------------------------------------------*
    1537 00000074           ||$C$L19||:    
    1538 00000074 6079              STR       A2, [V4, #4]          ; [DPU_3_PIPE] |475|  ; [ORIG 16-BIT INS]
    1539                    ;* --------------------------------------------------------------------------*
    1540 00000076           ||$C$L20||:    
TI ARM Assembler PC v16.9.8 Mon Dec 10 17:47:35 2018

Tools Copyright (c) 1996-2017 Texas Instruments Incorporated
C:\Users\Einstein\AppData\Local\Temp\{D8717E8C-C6B2-43EB-B59B-6498A87373A3} PAGE   29

    1541                            .dwpsn  file "../Application/MAC/OSAL/osal_timers.c",line 484,column 7,is_stmt,isa 1
    1542 00000076 88B8              LDRH      A1, [V4, #4]          ; [DPU_3_PIPE] |484|  ; [ORIG 16-BIT INS]
    1543 00000078 B978              CBNZ      A1, ||$C$L22||        ; []  ; [ORIG 16-BIT INS]
    1544                            ; BRANCHCC OCCURS {||$C$L22||}   ; [] |484| 
    1545                    ;* --------------------------------------------------------------------------*
    1546 0000007a 88FB              LDRH      A4, [V4, #6]          ; [DPU_3_PIPE] |484|  ; [ORIG 16-BIT INS]
    1547 0000007c B953              CBNZ      A4, ||$C$L21||        ; []  ; [ORIG 16-BIT INS]
    1548                            ; BRANCHCC OCCURS {||$C$L21||}   ; [] |484| 
    1549                    ;* --------------------------------------------------------------------------*
    1550 0000007e 68FB              LDR       A4, [V4, #12]         ; [DPU_3_PIPE] |484|  ; [ORIG 16-BIT INS]
    1551 00000080 B143              CBZ       A4, ||$C$L21||        ; []  ; [ORIG 16-BIT INS]
    1552                            ; BRANCHCC OCCURS {||$C$L21||}   ; [] |484| 
    1553                    ;* --------------------------------------------------------------------------*
    1554 00000082 893B              LDRH      A4, [V4, #8]          ; [DPU_3_PIPE] |484|  ; [ORIG 16-BIT INS]
    1555 00000084 B133              CBZ       A4, ||$C$L21||        ; []  ; [ORIG 16-BIT INS]
    1556                            ; BRANCHCC OCCURS {||$C$L21||}   ; [] |484| 
    1557                    ;* --------------------------------------------------------------------------*
    1558                            .dwpsn  file "../Application/MAC/OSAL/osal_timers.c",line 488,column 9,is_stmt,isa 1
    1559 00000086 7AB8              LDRB      A1, [V4, #10]         ; [DPU_3_PIPE] |488|  ; [ORIG 16-BIT INS]
    1560 00000088 4619              MOV       A2, A4                ; [DPU_3_PIPE] |488|  ; [ORIG 16-BIT INS]
    1561                    $C$DW$101       .dwtag  DW_TAG_TI_branch
    1562                            .dwattr $C$DW$101, DW_AT_low_pc(0x00)
    1563                            .dwattr $C$DW$101, DW_AT_name("osal_set_event")
    1564                            .dwattr $C$DW$101, DW_AT_TI_call
    1565                    
    1566 0000008a FFFEF7FF!         BL        osal_set_event        ; [DPU_3_PIPE] |488|  ; [KEEP 32-BIT INS]
    1567                            ; CALL OCCURS {osal_set_event }  ; [] |488| 
    1568                            .dwpsn  file "../Application/MAC/OSAL/osal_timers.c",line 491,column 9,is_stmt,isa 1
    1569 0000008e 68F8              LDR       A1, [V4, #12]         ; [DPU_3_PIPE] |491|  ; [ORIG 16-BIT INS]
    1570 00000090 6078              STR       A1, [V4, #4]          ; [DPU_3_PIPE] |491|  ; [ORIG 16-BIT INS]
    1571 00000092 88B8              LDRH      A1, [V4, #4]          ; [DPU_3_PIPE]  ; [ORIG 16-BIT INS]
    1572                    ;* --------------------------------------------------------------------------*
    1573 00000094           ||$C$L21||:    
    1574 00000094 B908              CBNZ      A1, ||$C$L22||        ; []  ; [ORIG 16-BIT INS]
    1575                            .dwpsn  file "../Application/MAC/OSAL/osal_timers.c",line 495,column 7,is_stmt,isa 1
    1576                            ; BRANCHCC OCCURS {||$C$L22||}   ; [] |495| 
    1577                    ;* --------------------------------------------------------------------------*
    1578 00000096 88FB              LDRH      A4, [V4, #6]          ; [DPU_3_PIPE] |495|  ; [ORIG 16-BIT INS]
    1579 00000098 B10B              CBZ       A4, ||$C$L23||        ; []  ; [ORIG 16-BIT INS]
    1580                            ; BRANCHCC OCCURS {||$C$L23||}   ; [] |495| 
    1581                    ;* --------------------------------------------------------------------------*
    1582 0000009a           ||$C$L22||:    
    1583 0000009a 893B              LDRH      A4, [V4, #8]          ; [DPU_3_PIPE] |495|  ; [ORIG 16-BIT INS]
    1584 0000009c B95B              CBNZ      A4, ||$C$L25||        ; []  ; [ORIG 16-BIT INS]
    1585                            ; BRANCHCC OCCURS {||$C$L25||}   ; [] |495| 
    1586                    ;* --------------------------------------------------------------------------*
    1587 0000009e           ||$C$L23||:    
    1588                            .dwpsn  file "../Application/MAC/OSAL/osal_timers.c",line 499,column 9,is_stmt,isa 1
    1589 0000009e 2D00              CMP       V2, #0                ; [DPU_3_PIPE] |499|  ; [ORIG 16-BIT INS]
    1590 000000a0 BF04              ITT       EQ                    ; [DPU_3_PIPE]  ; [ORIG 16-BIT INS]
    1591                            .dwpsn  file "../Application/MAC/OSAL/osal_timers.c",line 501,column 11,is_stmt,isa 1
    1592 000000a2 6838              LDREQ     A1, [V4, #0]          ; [DPU_3_PIPE] |501|  ; [ORIG 16-BIT INS]
    1593 000000a4 0000F8C8          STREQ     A1, [V5, #0]          ; [DPU_3_PIPE] |501|  ; [KEEP 32-BIT INS]
    1594                            .dwpsn  file "../Application/MAC/OSAL/osal_timers.c",line 502,column 9,is_stmt,isa 1
    1595 000000a8 D002              BEQ       ||$C$L24||            ; [DPU_3_PIPE] |502|  ; [ORIG 16-BIT INS]
TI ARM Assembler PC v16.9.8 Mon Dec 10 17:47:35 2018

Tools Copyright (c) 1996-2017 Texas Instruments Incorporated
C:\Users\Einstein\AppData\Local\Temp\{D8717E8C-C6B2-43EB-B59B-6498A87373A3} PAGE   30

    1596                            ; BRANCHCC OCCURS {||$C$L24||}   ; [] |502| 
    1597                    ;* --------------------------------------------------------------------------*
    1598                            .dwpsn  file "../Application/MAC/OSAL/osal_timers.c",line 505,column 11,is_stmt,isa 1
    1599 000000aa 6838              LDR       A1, [V4, #0]          ; [DPU_3_PIPE] |505|  ; [ORIG 16-BIT INS]
    1600 000000ac 6028              STR       A1, [V2, #0]          ; [DPU_3_PIPE] |505|  ; [ORIG 16-BIT INS]
    1601 000000ae 6838              LDR       A1, [V4, #0]          ; [DPU_3_PIPE]  ; [ORIG 16-BIT INS]
    1602                    ;* --------------------------------------------------------------------------*
    1603 000000b0           ||$C$L24||:    
    1604                            .dwpsn  file "../Application/MAC/OSAL/osal_timers.c",line 509,column 9,is_stmt,isa 1
    1605 000000b0 463E              MOV       V3, V4                ; [DPU_3_PIPE] |509|  ; [ORIG 16-BIT INS]
    1606                            .dwpsn  file "../Application/MAC/OSAL/osal_timers.c",line 512,column 9,is_stmt,isa 1
    1607 000000b2 4607              MOV       V4, A1                ; [DPU_3_PIPE] |512|  ; [ORIG 16-BIT INS]
    1608                            .dwpsn  file "../Application/MAC/OSAL/osal_timers.c",line 513,column 7,is_stmt,isa 1
    1609 000000b4 E001              B         ||$C$L26||            ; [DPU_3_PIPE] |513|  ; [ORIG 16-BIT INS]
    1610                            ; BRANCH OCCURS {||$C$L26||}     ; [] |513| 
    1611                    ;* --------------------------------------------------------------------------*
    1612 000000b6           ||$C$L25||:    
    1613                            .dwpsn  file "../Application/MAC/OSAL/osal_timers.c",line 517,column 9,is_stmt,isa 1
    1614 000000b6 463D              MOV       V2, V4                ; [DPU_3_PIPE] |517|  ; [ORIG 16-BIT INS]
    1615                            .dwpsn  file "../Application/MAC/OSAL/osal_timers.c",line 518,column 9,is_stmt,isa 1
    1616 000000b8 683F              LDR       V4, [V4, #0]          ; [DPU_3_PIPE] |518|  ; [ORIG 16-BIT INS]
    1617                    ;* --------------------------------------------------------------------------*
    1618 000000ba           ||$C$L26||:    
    1619                            .dwpsn  file "../Application/MAC/OSAL/osal_timers.c",line 521,column 7,is_stmt,isa 1
    1620 000000ba 1000F8DA          LDR       A2, [V7, #0]          ; [DPU_3_PIPE] |521|  ; [KEEP 32-BIT INS]
    1621 000000be 4658              MOV       A1, V8                ; [DPU_3_PIPE] |521|  ; [ORIG 16-BIT INS]
    1622                    $C$DW$102       .dwtag  DW_TAG_TI_branch
    1623                            .dwattr $C$DW$102, DW_AT_low_pc(0x00)
    1624                            .dwattr $C$DW$102, DW_AT_TI_call
    1625                            .dwattr $C$DW$102, DW_AT_TI_indirect
    1626                    
    1627 000000c0 4788              BLX       A2                    ; [DPU_3_PIPE] |521|  ; [ORIG 16-BIT INS]
    1628                            ; CALL OCCURS {}                 ; [] |521| 
    1629 000000c2 B156              CBZ       V3, ||$C$L28||        ; []  ; [ORIG 16-BIT INS]
    1630                            .dwpsn  file "../Application/MAC/OSAL/osal_timers.c",line 523,column 7,is_stmt,isa 1
    1631                            ; BRANCHCC OCCURS {||$C$L28||}   ; [] |523| 
    1632                    ;* --------------------------------------------------------------------------*
    1633                            .dwpsn  file "../Application/MAC/OSAL/osal_timers.c",line 525,column 9,is_stmt,isa 1
    1634 000000c4 88B3              LDRH      A4, [V3, #4]          ; [DPU_3_PIPE] |525|  ; [ORIG 16-BIT INS]
    1635 000000c6 B92B              CBNZ      A4, ||$C$L27||        ; []  ; [ORIG 16-BIT INS]
    1636                            ; BRANCHCC OCCURS {||$C$L27||}   ; [] |525| 
    1637                    ;* --------------------------------------------------------------------------*
    1638 000000c8 88F3              LDRH      A4, [V3, #6]          ; [DPU_3_PIPE] |525|  ; [ORIG 16-BIT INS]
    1639 000000ca B91B              CBNZ      A4, ||$C$L27||        ; []  ; [ORIG 16-BIT INS]
    1640                            ; BRANCHCC OCCURS {||$C$L27||}   ; [] |525| 
    1641                    ;* --------------------------------------------------------------------------*
    1642                            .dwpsn  file "../Application/MAC/OSAL/osal_timers.c",line 527,column 11,is_stmt,isa 1
    1643 000000cc 7AB0              LDRB      A1, [V3, #10]         ; [DPU_3_PIPE] |527|  ; [ORIG 16-BIT INS]
    1644 000000ce 8931              LDRH      A2, [V3, #8]          ; [DPU_3_PIPE] |527|  ; [ORIG 16-BIT INS]
    1645                    $C$DW$103       .dwtag  DW_TAG_TI_branch
    1646                            .dwattr $C$DW$103, DW_AT_low_pc(0x00)
    1647                            .dwattr $C$DW$103, DW_AT_name("osal_set_event")
    1648                            .dwattr $C$DW$103, DW_AT_TI_call
    1649                    
    1650 000000d0 FFFEF7FF!         BL        osal_set_event        ; [DPU_3_PIPE] |527|  ; [KEEP 32-BIT INS]
TI ARM Assembler PC v16.9.8 Mon Dec 10 17:47:35 2018

Tools Copyright (c) 1996-2017 Texas Instruments Incorporated
C:\Users\Einstein\AppData\Local\Temp\{D8717E8C-C6B2-43EB-B59B-6498A87373A3} PAGE   31

    1651                            ; CALL OCCURS {osal_set_event }  ; [] |527| 
    1652                    ;* --------------------------------------------------------------------------*
    1653 000000d4           ||$C$L27||:    
    1654                            .dwpsn  file "../Application/MAC/OSAL/osal_timers.c",line 529,column 9,is_stmt,isa 1
    1655 000000d4 4630              MOV       A1, V3                ; [DPU_3_PIPE] |529|  ; [ORIG 16-BIT INS]
    1656                    $C$DW$104       .dwtag  DW_TAG_TI_branch
    1657                            .dwattr $C$DW$104, DW_AT_low_pc(0x00)
    1658                            .dwattr $C$DW$104, DW_AT_name("osal_mem_free")
    1659                            .dwattr $C$DW$104, DW_AT_TI_call
    1660                    
    1661 000000d6 FFFEF7FF!         BL        osal_mem_free         ; [DPU_3_PIPE] |529|  ; [KEEP 32-BIT INS]
    1662                            ; CALL OCCURS {osal_mem_free }   ; [] |529| 
    1663                    ;* --------------------------------------------------------------------------*
    1664 000000da           ||$C$L28||:    
    1665                            .dwpsn  file "../Application/MAC/OSAL/osal_timers.c",line 442,column 5,is_stmt,isa 1
    1666 000000da 2F00              CMP       V4, #0                ; [DPU_3_PIPE] |442|  ; [ORIG 16-BIT INS]
    1667 000000dc D1A9              BNE       ||$C$L14||            ; [DPU_3_PIPE] |442|  ; [ORIG 16-BIT INS]
    1668                            ; BRANCHCC OCCURS {||$C$L14||}   ; [] |442| 
    1669                    ;* --------------------------------------------------------------------------*
    1670                    ||$C$L29||:    
    1671                    $C$DW$105       .dwtag  DW_TAG_TI_branch
    1672                            .dwattr $C$DW$105, DW_AT_low_pc(0x00)
    1673                            .dwattr $C$DW$105, DW_AT_TI_return
    1674                    
    1675 000000de 8FF8E8BD          POP       {A4, V1, V2, V3, V4, V5, V6, V7, V8, PC} ; [DPU_3_PIPE]  ; [KEEP 32-BIT INS]
    1676                            .dwcfi  cfa_offset, 0
    1677                            .dwcfi  restore_reg, 11
    1678                            .dwcfi  restore_reg, 10
    1679                            .dwcfi  restore_reg, 9
    1680                            .dwcfi  restore_reg, 8
    1681                            .dwcfi  restore_reg, 7
    1682                            .dwcfi  restore_reg, 6
    1683                            .dwcfi  restore_reg, 5
    1684                            .dwcfi  restore_reg, 4
    1685                            .dwcfi  restore_reg, 3
    1686                            ; BRANCH OCCURS                  ; [] 
    1687                            .dwattr $C$DW$90, DW_AT_TI_end_file("../Application/MAC/OSAL/osal_timers.c")
    1688                            .dwattr $C$DW$90, DW_AT_TI_end_line(0x215)
    1689                            .dwattr $C$DW$90, DW_AT_TI_end_column(0x01)
    1690                            .dwendentry
    1691                            .dwendtag $C$DW$90
    1692                    
    1693 00000000                   .sect   ".text:osalTimerInit"
    1694                            .clink
    1695                            .thumbfunc osalTimerInit
    1696 00000000                   .thumb
    1697                            .global osalTimerInit
    1698                    
    1699                    $C$DW$106       .dwtag  DW_TAG_subprogram
    1700                            .dwattr $C$DW$106, DW_AT_name("osalTimerInit")
    1701                            .dwattr $C$DW$106, DW_AT_low_pc(osalTimerInit)
    1702                            .dwattr $C$DW$106, DW_AT_high_pc(0x00)
    1703                            .dwattr $C$DW$106, DW_AT_TI_symbol_name("osalTimerInit")
    1704                            .dwattr $C$DW$106, DW_AT_external
    1705                            .dwattr $C$DW$106, DW_AT_TI_begin_file("../Application/MAC/OSAL/osal_timers.c")
TI ARM Assembler PC v16.9.8 Mon Dec 10 17:47:35 2018

Tools Copyright (c) 1996-2017 Texas Instruments Incorporated
C:\Users\Einstein\AppData\Local\Temp\{D8717E8C-C6B2-43EB-B59B-6498A87373A3} PAGE   32

    1706                            .dwattr $C$DW$106, DW_AT_TI_begin_line(0x7c)
    1707                            .dwattr $C$DW$106, DW_AT_TI_begin_column(0x06)
    1708                            .dwattr $C$DW$106, DW_AT_decl_file("../Application/MAC/OSAL/osal_timers.c")
    1709                            .dwattr $C$DW$106, DW_AT_decl_line(0x7c)
    1710                            .dwattr $C$DW$106, DW_AT_decl_column(0x06)
    1711                            .dwattr $C$DW$106, DW_AT_TI_max_frame_size(0x00)
    1712                            .dwpsn  file "../Application/MAC/OSAL/osal_timers.c",line 125,column 1,is_stmt,address osalTim
    1713                    
    1714                            .dwfde $C$DW$CIE, osalTimerInit
    1715                    
    1716                    ;*****************************************************************************
    1717                    ;* FUNCTION NAME: osalTimerInit                                              *
    1718                    ;*                                                                           *
    1719                    ;*   Regs Modified     : A1,A2,SR                                            *
    1720                    ;*   Regs Used         : A1,A2,LR,SR                                         *
    1721                    ;*   Local Frame Size  : 0 Args + 0 Auto + 0 Save = 0 byte                   *
    1722                    ;*****************************************************************************
    1723 00000000           osalTimerInit:
    1724                    ;* --------------------------------------------------------------------------*
    1725                            .dwcfi  cfa_offset, 0
    1726                            .dwpsn  file "../Application/MAC/OSAL/osal_timers.c",line 126,column 3,is_stmt,isa 1
    1727 00000000 4901              LDR       A2, $C$CON33          ; [DPU_3_PIPE] |126|  ; [ORIG 16-BIT INS]
    1728 00000002 2000              MOVS      A1, #0                ; [DPU_3_PIPE] |126|  ; [ORIG 16-BIT INS]
    1729 00000004 6008              STR       A1, [A2, #0]          ; [DPU_3_PIPE] |126|  ; [ORIG 16-BIT INS]
    1730                    $C$DW$107       .dwtag  DW_TAG_TI_branch
    1731                            .dwattr $C$DW$107, DW_AT_low_pc(0x00)
    1732                            .dwattr $C$DW$107, DW_AT_TI_return
    1733                    
    1734 00000006 4770              BX        LR                    ; [DPU_3_PIPE]  ; [ORIG 16-BIT INS]
    1735                            ; BRANCH OCCURS                  ; [] 
    1736                            .dwattr $C$DW$106, DW_AT_TI_end_file("../Application/MAC/OSAL/osal_timers.c")
    1737                            .dwattr $C$DW$106, DW_AT_TI_end_line(0x7f)
    1738                            .dwattr $C$DW$106, DW_AT_TI_end_column(0x01)
    1739                            .dwendentry
    1740                            .dwendtag $C$DW$106
    1741                    
    1742                    ;******************************************************************************
    1743                    ;* CONSTANT TABLE                                                             *
    1744                    ;******************************************************************************
    1745 00000024                   .sect   ".text:osal_timer_num_active"
    1746                            .align  4
    1747 00000024 00000000! ||$C$CON1||:    .bits   ICall_enterCriticalSection,32
    1748                            .align  4
    1749 00000028 00000000! ||$C$CON2||:    .bits   ||$O1$$||,32
    1750                            .align  4
    1751 0000002c 00000000! ||$C$CON3||:    .bits   ICall_leaveCriticalSection,32
    1752                    ;******************************************************************************
    1753                    ;* CONSTANT TABLE                                                             *
    1754                    ;******************************************************************************
    1755 0000001a                   .sect   ".text:osalFindTimer"
    1756                            .align  4
    1757 0000001a 000046C0! ||$C$CON5||:    .bits   ||$O1$$||,32
         0000001e 00000000 
    1758                    ;******************************************************************************
    1759                    ;* CONSTANT TABLE                                                             *
TI ARM Assembler PC v16.9.8 Mon Dec 10 17:47:35 2018

Tools Copyright (c) 1996-2017 Texas Instruments Incorporated
C:\Users\Einstein\AppData\Local\Temp\{D8717E8C-C6B2-43EB-B59B-6498A87373A3} PAGE   33

    1760                    ;******************************************************************************
    1761 00000030                   .sect   ".text:osal_stop_timerEx"
    1762                            .align  4
    1763 00000030 00000000! ||$C$CON8||:    .bits   ICall_enterCriticalSection,32
    1764                            .align  4
    1765 00000034 00000000! ||$C$CON9||:    .bits   ICall_leaveCriticalSection,32
    1766                    ;******************************************************************************
    1767                    ;* CONSTANT TABLE                                                             *
    1768                    ;******************************************************************************
    1769 00000044                   .sect   ".text:osalAddTimer"
    1770                            .align  4
    1771 00000044 00000000! ||$C$CON11||:   .bits   ||$O1$$||,32
    1772                    ;******************************************************************************
    1773                    ;* CONSTANT TABLE                                                             *
    1774                    ;******************************************************************************
    1775 00000032                   .sect   ".text:osal_start_timerEx"
    1776                            .align  4
    1777 00000032 000046C0! ||$C$CON14||:   .bits   ICall_enterCriticalSection,32
         00000036 00000000 
    1778                            .align  4
    1779 00000036 00000000! ||$C$CON15||:   .bits   ICall_leaveCriticalSection,32
         0000003a 00000000 
    1780                    ;******************************************************************************
    1781                    ;* CONSTANT TABLE                                                             *
    1782                    ;******************************************************************************
    1783 00000032                   .sect   ".text:osal_start_reload_timer"
    1784                            .align  4
    1785 00000032 000046C0! ||$C$CON18||:   .bits   ICall_enterCriticalSection,32
         00000036 00000000 
    1786                            .align  4
    1787 00000036 00000000! ||$C$CON19||:   .bits   ICall_leaveCriticalSection,32
         0000003a 00000000 
    1788                    ;******************************************************************************
    1789                    ;* CONSTANT TABLE                                                             *
    1790                    ;******************************************************************************
    1791 00000020                   .sect   ".text:osal_next_timeout"
    1792                            .align  4
    1793 00000020 00000000! ||$C$CON20||:   .bits   ||$O1$$||,32
    1794                            .align  4
    1795 00000024 28F5C28E  ||$C$CON21||:   .bits   687194766,32
    1796                    ;******************************************************************************
    1797                    ;* CONSTANT TABLE                                                             *
    1798                    ;******************************************************************************
    1799 0000002a                   .sect   ".text:osal_get_timeoutEx"
    1800                            .align  4
    1801 0000002a 000046C0! ||$C$CON22||:   .bits   ICall_enterCriticalSection,32
         0000002e 00000000 
    1802                            .align  4
    1803 0000002e 00000000! ||$C$CON23||:   .bits   ICall_leaveCriticalSection,32
         00000032 00000000 
    1804                    ;******************************************************************************
    1805                    ;* CONSTANT TABLE                                                             *
    1806                    ;******************************************************************************
    1807 00000008                   .sect   ".text:osal_GetSystemClock"
    1808                            .align  4
TI ARM Assembler PC v16.9.8 Mon Dec 10 17:47:35 2018

Tools Copyright (c) 1996-2017 Texas Instruments Incorporated
C:\Users\Einstein\AppData\Local\Temp\{D8717E8C-C6B2-43EB-B59B-6498A87373A3} PAGE   34

    1809 00000008 00000000! ||$C$CON25||:   .bits   ||$O1$$||,32
    1810                    ;******************************************************************************
    1811                    ;* CONSTANT TABLE                                                             *
    1812                    ;******************************************************************************
    1813 000000e2                   .sect   ".text:osalTimerUpdate"
    1814                            .align  4
    1815 000000e2 000046C0! ||$C$CON30||:   .bits   ICall_enterCriticalSection,32
         000000e6 00000000 
    1816                            .align  4
    1817 000000e6 00000000! ||$C$CON31||:   .bits   ||$O1$$||,32
         000000ea 00000000 
    1818                            .align  4
    1819 000000ea 00000000! ||$C$CON32||:   .bits   ICall_leaveCriticalSection,32
         000000ee 00000000 
    1820                    ;******************************************************************************
    1821                    ;* CONSTANT TABLE                                                             *
    1822                    ;******************************************************************************
    1823 00000008                   .sect   ".text:osalTimerInit"
    1824                            .align  4
    1825 00000008 00000004! ||$C$CON33||:   .bits   ||$O1$$||+4,32
    1826                    ;*****************************************************************************
    1827                    ;* UNDEFINED EXTERNAL REFERENCES                                             *
    1828                    ;*****************************************************************************
    1829                            .global osal_mem_alloc
    1830                            .global osal_mem_free
    1831                            .global osal_set_event
    1832                            .global ICall_enterCriticalSection
    1833                            .global ICall_leaveCriticalSection
    1834                    
    1835                    ;******************************************************************************
    1836                    ;* BUILD ATTRIBUTES                                                           *
    1837                    ;******************************************************************************
    1838                            .battr "aeabi", Tag_File, 1, Tag_ABI_PCS_wchar_t(2)
    1839                            .battr "aeabi", Tag_File, 1, Tag_ABI_FP_rounding(0)
    1840                            .battr "aeabi", Tag_File, 1, Tag_ABI_FP_denormal(0)
    1841                            .battr "aeabi", Tag_File, 1, Tag_ABI_FP_exceptions(0)
    1842                            .battr "aeabi", Tag_File, 1, Tag_ABI_FP_number_model(1)
    1843                            .battr "aeabi", Tag_File, 1, Tag_ABI_enum_size(1)
    1844                            .battr "aeabi", Tag_File, 1, Tag_ABI_optimization_goals(0)
    1845                            .battr "aeabi", Tag_File, 1, Tag_ABI_FP_optimization_goals(0)
    1846                            .battr "TI", Tag_File, 1, Tag_Bitfield_layout(2)
    1847                            .battr "aeabi", Tag_File, 1, Tag_ABI_VFP_args(3)
    1848                            .battr "TI", Tag_File, 1, Tag_FP_interface(1)
    1849                    
    1850                    ;******************************************************************************
    1851                    ;* TYPE INFORMATION                                                           *
    1852                    ;******************************************************************************
    1853                    
    1854                    $C$DW$T$176     .dwtag  DW_TAG_enumeration_type
    1855                            .dwattr $C$DW$T$176, DW_AT_byte_size(0x01)
    1856                    $C$DW$108       .dwtag  DW_TAG_enumerator
    1857                            .dwattr $C$DW$108, DW_AT_name("FAPI_PROGRAM_DATA")
    1858                            .dwattr $C$DW$108, DW_AT_const_value(0x02)
    1859                            .dwattr $C$DW$108, DW_AT_decl_file("C:/ti/simplelink_cc13x0_sdk_2_30_00_20/source/ti/devices/c
    1860                            .dwattr $C$DW$108, DW_AT_decl_line(0xa6)
TI ARM Assembler PC v16.9.8 Mon Dec 10 17:47:35 2018

Tools Copyright (c) 1996-2017 Texas Instruments Incorporated
C:\Users\Einstein\AppData\Local\Temp\{D8717E8C-C6B2-43EB-B59B-6498A87373A3} PAGE   35

    1861                            .dwattr $C$DW$108, DW_AT_decl_column(0x05)
    1862                    
    1863                    $C$DW$109       .dwtag  DW_TAG_enumerator
    1864                            .dwattr $C$DW$109, DW_AT_name("FAPI_ERASE_SECTOR")
    1865                            .dwattr $C$DW$109, DW_AT_const_value(0x06)
    1866                            .dwattr $C$DW$109, DW_AT_decl_file("C:/ti/simplelink_cc13x0_sdk_2_30_00_20/source/ti/devices/c
    1867                            .dwattr $C$DW$109, DW_AT_decl_line(0xa7)
    1868                            .dwattr $C$DW$109, DW_AT_decl_column(0x05)
    1869                    
    1870                    $C$DW$110       .dwtag  DW_TAG_enumerator
    1871                            .dwattr $C$DW$110, DW_AT_name("FAPI_ERASE_BANK")
    1872                            .dwattr $C$DW$110, DW_AT_const_value(0x08)
    1873                            .dwattr $C$DW$110, DW_AT_decl_file("C:/ti/simplelink_cc13x0_sdk_2_30_00_20/source/ti/devices/c
    1874                            .dwattr $C$DW$110, DW_AT_decl_line(0xa8)
    1875                            .dwattr $C$DW$110, DW_AT_decl_column(0x05)
    1876                    
    1877                    $C$DW$111       .dwtag  DW_TAG_enumerator
    1878                            .dwattr $C$DW$111, DW_AT_name("FAPI_VALIDATE_SECTOR")
    1879                            .dwattr $C$DW$111, DW_AT_const_value(0x0e)
    1880                            .dwattr $C$DW$111, DW_AT_decl_file("C:/ti/simplelink_cc13x0_sdk_2_30_00_20/source/ti/devices/c
    1881                            .dwattr $C$DW$111, DW_AT_decl_line(0xa9)
    1882                            .dwattr $C$DW$111, DW_AT_decl_column(0x05)
    1883                    
    1884                    $C$DW$112       .dwtag  DW_TAG_enumerator
    1885                            .dwattr $C$DW$112, DW_AT_name("FAPI_CLEAR_STATUS")
    1886                            .dwattr $C$DW$112, DW_AT_const_value(0x10)
    1887                            .dwattr $C$DW$112, DW_AT_decl_file("C:/ti/simplelink_cc13x0_sdk_2_30_00_20/source/ti/devices/c
    1888                            .dwattr $C$DW$112, DW_AT_decl_line(0xaa)
    1889                            .dwattr $C$DW$112, DW_AT_decl_column(0x05)
    1890                    
    1891                    $C$DW$113       .dwtag  DW_TAG_enumerator
    1892                            .dwattr $C$DW$113, DW_AT_name("FAPI_PROGRAM_RESUME")
    1893                            .dwattr $C$DW$113, DW_AT_const_value(0x14)
    1894                            .dwattr $C$DW$113, DW_AT_decl_file("C:/ti/simplelink_cc13x0_sdk_2_30_00_20/source/ti/devices/c
    1895                            .dwattr $C$DW$113, DW_AT_decl_line(0xab)
    1896                            .dwattr $C$DW$113, DW_AT_decl_column(0x05)
    1897                    
    1898                    $C$DW$114       .dwtag  DW_TAG_enumerator
    1899                            .dwattr $C$DW$114, DW_AT_name("FAPI_ERASE_RESUME")
    1900                            .dwattr $C$DW$114, DW_AT_const_value(0x16)
    1901                            .dwattr $C$DW$114, DW_AT_decl_file("C:/ti/simplelink_cc13x0_sdk_2_30_00_20/source/ti/devices/c
    1902                            .dwattr $C$DW$114, DW_AT_decl_line(0xac)
    1903                            .dwattr $C$DW$114, DW_AT_decl_column(0x05)
    1904                    
    1905                    $C$DW$115       .dwtag  DW_TAG_enumerator
    1906                            .dwattr $C$DW$115, DW_AT_name("FAPI_CLEAR_MORE")
    1907                            .dwattr $C$DW$115, DW_AT_const_value(0x18)
    1908                            .dwattr $C$DW$115, DW_AT_decl_file("C:/ti/simplelink_cc13x0_sdk_2_30_00_20/source/ti/devices/c
    1909                            .dwattr $C$DW$115, DW_AT_decl_line(0xad)
    1910                            .dwattr $C$DW$115, DW_AT_decl_column(0x05)
    1911                    
    1912                    $C$DW$116       .dwtag  DW_TAG_enumerator
    1913                            .dwattr $C$DW$116, DW_AT_name("FAPI_PROGRAM_SECTOR")
    1914                            .dwattr $C$DW$116, DW_AT_const_value(0x20)
    1915                            .dwattr $C$DW$116, DW_AT_decl_file("C:/ti/simplelink_cc13x0_sdk_2_30_00_20/source/ti/devices/c
TI ARM Assembler PC v16.9.8 Mon Dec 10 17:47:35 2018

Tools Copyright (c) 1996-2017 Texas Instruments Incorporated
C:\Users\Einstein\AppData\Local\Temp\{D8717E8C-C6B2-43EB-B59B-6498A87373A3} PAGE   36

    1916                            .dwattr $C$DW$116, DW_AT_decl_line(0xae)
    1917                            .dwattr $C$DW$116, DW_AT_decl_column(0x05)
    1918                    
    1919                    $C$DW$117       .dwtag  DW_TAG_enumerator
    1920                            .dwattr $C$DW$117, DW_AT_name("FAPI_ERASE_OTP")
    1921                            .dwattr $C$DW$117, DW_AT_const_value(0x30)
    1922                            .dwattr $C$DW$117, DW_AT_decl_file("C:/ti/simplelink_cc13x0_sdk_2_30_00_20/source/ti/devices/c
    1923                            .dwattr $C$DW$117, DW_AT_decl_line(0xaf)
    1924                            .dwattr $C$DW$117, DW_AT_decl_column(0x05)
    1925                    
    1926                            .dwattr $C$DW$T$176, DW_AT_decl_file("C:/ti/simplelink_cc13x0_sdk_2_30_00_20/source/ti/devices
    1927                            .dwattr $C$DW$T$176, DW_AT_decl_line(0xa5)
    1928                            .dwattr $C$DW$T$176, DW_AT_decl_column(0x01)
    1929                            .dwendtag $C$DW$T$176
    1930                    
    1931                    $C$DW$T$177     .dwtag  DW_TAG_typedef
    1932                            .dwattr $C$DW$T$177, DW_AT_name("tFlashStateCommandsType")
    1933                            .dwattr $C$DW$T$177, DW_AT_type(*$C$DW$T$176)
    1934                            .dwattr $C$DW$T$177, DW_AT_language(DW_LANG_C)
    1935                            .dwattr $C$DW$T$177, DW_AT_decl_file("C:/ti/simplelink_cc13x0_sdk_2_30_00_20/source/ti/devices
    1936                            .dwattr $C$DW$T$177, DW_AT_decl_line(0xb0)
    1937                            .dwattr $C$DW$T$177, DW_AT_decl_column(0x03)
    1938                    
    1939                    
    1940                    $C$DW$T$178     .dwtag  DW_TAG_enumeration_type
    1941                            .dwattr $C$DW$T$178, DW_AT_byte_size(0x01)
    1942                    $C$DW$118       .dwtag  DW_TAG_enumerator
    1943                            .dwattr $C$DW$118, DW_AT_name("ICALL_RTI_APP_CMD_EVENT")
    1944                            .dwattr $C$DW$118, DW_AT_const_value(0xe0)
    1945                            .dwattr $C$DW$118, DW_AT_decl_file("C:/ti/simplelink_cc13x0_sdk_2_30_00_20/source/ti/ti154stac
    1946                            .dwattr $C$DW$118, DW_AT_decl_line(0x3de)
    1947                            .dwattr $C$DW$118, DW_AT_decl_column(0x04)
    1948                    
    1949                    $C$DW$119       .dwtag  DW_TAG_enumerator
    1950                            .dwattr $C$DW$119, DW_AT_name("ICALL_RTI_STACK_CMD_EVENT")
    1951                            .dwattr $C$DW$119, DW_AT_const_value(0xe1)
    1952                            .dwattr $C$DW$119, DW_AT_decl_file("C:/ti/simplelink_cc13x0_sdk_2_30_00_20/source/ti/ti154stac
    1953                            .dwattr $C$DW$119, DW_AT_decl_line(0x3e0)
    1954                            .dwattr $C$DW$119, DW_AT_decl_column(0x04)
    1955                    
    1956                    $C$DW$120       .dwtag  DW_TAG_enumerator
    1957                            .dwattr $C$DW$120, DW_AT_name("ICALL_RTI_APP_ASYNC_CMD_EVENT")
    1958                            .dwattr $C$DW$120, DW_AT_const_value(0xe2)
    1959                            .dwattr $C$DW$120, DW_AT_decl_file("C:/ti/simplelink_cc13x0_sdk_2_30_00_20/source/ti/ti154stac
    1960                            .dwattr $C$DW$120, DW_AT_decl_line(0x3e2)
    1961                            .dwattr $C$DW$120, DW_AT_decl_column(0x04)
    1962                    
    1963                    $C$DW$121       .dwtag  DW_TAG_enumerator
    1964                            .dwattr $C$DW$121, DW_AT_name("ICALL_RTI_APP_SYNC_CMD_EVENT")
    1965                            .dwattr $C$DW$121, DW_AT_const_value(0xe3)
    1966                            .dwattr $C$DW$121, DW_AT_decl_file("C:/ti/simplelink_cc13x0_sdk_2_30_00_20/source/ti/ti154stac
    1967                            .dwattr $C$DW$121, DW_AT_decl_line(0x3e4)
    1968                            .dwattr $C$DW$121, DW_AT_decl_column(0x04)
    1969                    
    1970                    $C$DW$122       .dwtag  DW_TAG_enumerator
TI ARM Assembler PC v16.9.8 Mon Dec 10 17:47:35 2018

Tools Copyright (c) 1996-2017 Texas Instruments Incorporated
C:\Users\Einstein\AppData\Local\Temp\{D8717E8C-C6B2-43EB-B59B-6498A87373A3} PAGE   37

    1971                            .dwattr $C$DW$122, DW_AT_name("ICALL_RCN_APP_ASYNC_CMD_EVENT")
    1972                            .dwattr $C$DW$122, DW_AT_const_value(0xe4)
    1973                            .dwattr $C$DW$122, DW_AT_decl_file("C:/ti/simplelink_cc13x0_sdk_2_30_00_20/source/ti/ti154stac
    1974                            .dwattr $C$DW$122, DW_AT_decl_line(0x3e6)
    1975                            .dwattr $C$DW$122, DW_AT_decl_column(0x04)
    1976                    
    1977                    $C$DW$123       .dwtag  DW_TAG_enumerator
    1978                            .dwattr $C$DW$123, DW_AT_name("ICALL_RCN_APP_SYNC_CMD_EVENT")
    1979                            .dwattr $C$DW$123, DW_AT_const_value(0xe5)
    1980                            .dwattr $C$DW$123, DW_AT_decl_file("C:/ti/simplelink_cc13x0_sdk_2_30_00_20/source/ti/ti154stac
    1981                            .dwattr $C$DW$123, DW_AT_decl_line(0x3e8)
    1982                            .dwattr $C$DW$123, DW_AT_decl_column(0x04)
    1983                    
    1984                            .dwattr $C$DW$T$178, DW_AT_decl_file("C:/ti/simplelink_cc13x0_sdk_2_30_00_20/source/ti/ti154st
    1985                            .dwattr $C$DW$T$178, DW_AT_decl_line(0x3dc)
    1986                            .dwattr $C$DW$T$178, DW_AT_decl_column(0x01)
    1987                            .dwendtag $C$DW$T$178
    1988                    
    1989                    $C$DW$T$179     .dwtag  DW_TAG_typedef
    1990                            .dwattr $C$DW$T$179, DW_AT_name("ICall_RemotiCmdEvent_t")
    1991                            .dwattr $C$DW$T$179, DW_AT_type(*$C$DW$T$178)
    1992                            .dwattr $C$DW$T$179, DW_AT_language(DW_LANG_C)
    1993                            .dwattr $C$DW$T$179, DW_AT_decl_file("C:/ti/simplelink_cc13x0_sdk_2_30_00_20/source/ti/ti154st
    1994                            .dwattr $C$DW$T$179, DW_AT_decl_line(0x3e9)
    1995                            .dwattr $C$DW$T$179, DW_AT_decl_column(0x02)
    1996                    
    1997                    
    1998                    $C$DW$T$23      .dwtag  DW_TAG_structure_type
    1999                            .dwattr $C$DW$T$23, DW_AT_byte_size(0x10)
    2000                    $C$DW$124       .dwtag  DW_TAG_member
    2001                            .dwattr $C$DW$124, DW_AT_type(*$C$DW$T$3)
    2002                            .dwattr $C$DW$124, DW_AT_name("next")
    2003                            .dwattr $C$DW$124, DW_AT_TI_symbol_name("next")
    2004                            .dwattr $C$DW$124, DW_AT_data_member_location[DW_OP_plus_uconst 0x0]
    2005                            .dwattr $C$DW$124, DW_AT_accessibility(DW_ACCESS_public)
    2006                            .dwattr $C$DW$124, DW_AT_decl_file("../Application/MAC/OSAL/osal_timers.c")
    2007                            .dwattr $C$DW$124, DW_AT_decl_line(0x4d)
    2008                            .dwattr $C$DW$124, DW_AT_decl_column(0x0b)
    2009                    
    2010                    $C$DW$125       .dwtag  DW_TAG_member
    2011                            .dwattr $C$DW$125, DW_AT_type(*$C$DW$T$19)
    2012                            .dwattr $C$DW$125, DW_AT_name("timeout")
    2013                            .dwattr $C$DW$125, DW_AT_TI_symbol_name("timeout")
    2014                            .dwattr $C$DW$125, DW_AT_data_member_location[DW_OP_plus_uconst 0x4]
    2015                            .dwattr $C$DW$125, DW_AT_accessibility(DW_ACCESS_public)
    2016                            .dwattr $C$DW$125, DW_AT_decl_file("../Application/MAC/OSAL/osal_timers.c")
    2017                            .dwattr $C$DW$125, DW_AT_decl_line(0x4e)
    2018                            .dwattr $C$DW$125, DW_AT_decl_column(0x0e)
    2019                    
    2020                    $C$DW$126       .dwtag  DW_TAG_member
    2021                            .dwattr $C$DW$126, DW_AT_type(*$C$DW$T$20)
    2022                            .dwattr $C$DW$126, DW_AT_name("event_flag")
    2023                            .dwattr $C$DW$126, DW_AT_TI_symbol_name("event_flag")
    2024                            .dwattr $C$DW$126, DW_AT_data_member_location[DW_OP_plus_uconst 0x8]
    2025                            .dwattr $C$DW$126, DW_AT_accessibility(DW_ACCESS_public)
TI ARM Assembler PC v16.9.8 Mon Dec 10 17:47:35 2018

Tools Copyright (c) 1996-2017 Texas Instruments Incorporated
C:\Users\Einstein\AppData\Local\Temp\{D8717E8C-C6B2-43EB-B59B-6498A87373A3} PAGE   38

    2026                            .dwattr $C$DW$126, DW_AT_decl_file("../Application/MAC/OSAL/osal_timers.c")
    2027                            .dwattr $C$DW$126, DW_AT_decl_line(0x4f)
    2028                            .dwattr $C$DW$126, DW_AT_decl_column(0x0a)
    2029                    
    2030                    $C$DW$127       .dwtag  DW_TAG_member
    2031                            .dwattr $C$DW$127, DW_AT_type(*$C$DW$T$21)
    2032                            .dwattr $C$DW$127, DW_AT_name("task_id")
    2033                            .dwattr $C$DW$127, DW_AT_TI_symbol_name("task_id")
    2034                            .dwattr $C$DW$127, DW_AT_data_member_location[DW_OP_plus_uconst 0xa]
    2035                            .dwattr $C$DW$127, DW_AT_accessibility(DW_ACCESS_public)
    2036                            .dwattr $C$DW$127, DW_AT_decl_file("../Application/MAC/OSAL/osal_timers.c")
    2037                            .dwattr $C$DW$127, DW_AT_decl_line(0x50)
    2038                            .dwattr $C$DW$127, DW_AT_decl_column(0x0a)
    2039                    
    2040                    $C$DW$128       .dwtag  DW_TAG_member
    2041                            .dwattr $C$DW$128, DW_AT_type(*$C$DW$T$22)
    2042                            .dwattr $C$DW$128, DW_AT_name("reloadTimeout")
    2043                            .dwattr $C$DW$128, DW_AT_TI_symbol_name("reloadTimeout")
    2044                            .dwattr $C$DW$128, DW_AT_data_member_location[DW_OP_plus_uconst 0xc]
    2045                            .dwattr $C$DW$128, DW_AT_accessibility(DW_ACCESS_public)
    2046                            .dwattr $C$DW$128, DW_AT_decl_file("../Application/MAC/OSAL/osal_timers.c")
    2047                            .dwattr $C$DW$128, DW_AT_decl_line(0x51)
    2048                            .dwattr $C$DW$128, DW_AT_decl_column(0x0a)
    2049                    
    2050                            .dwattr $C$DW$T$23, DW_AT_decl_file("../Application/MAC/OSAL/osal_timers.c")
    2051                            .dwattr $C$DW$T$23, DW_AT_decl_line(0x4c)
    2052                            .dwattr $C$DW$T$23, DW_AT_decl_column(0x01)
    2053                            .dwendtag $C$DW$T$23
    2054                    
    2055                    $C$DW$T$98      .dwtag  DW_TAG_pointer_type
    2056                            .dwattr $C$DW$T$98, DW_AT_type(*$C$DW$T$23)
    2057                            .dwattr $C$DW$T$98, DW_AT_address_class(0x20)
    2058                    
    2059                    $C$DW$T$186     .dwtag  DW_TAG_typedef
    2060                            .dwattr $C$DW$T$186, DW_AT_name("osalTimerRec_t")
    2061                            .dwattr $C$DW$T$186, DW_AT_type(*$C$DW$T$23)
    2062                            .dwattr $C$DW$T$186, DW_AT_language(DW_LANG_C)
    2063                            .dwattr $C$DW$T$186, DW_AT_decl_file("../Application/MAC/OSAL/osal_timers.c")
    2064                            .dwattr $C$DW$T$186, DW_AT_decl_line(0x52)
    2065                            .dwattr $C$DW$T$186, DW_AT_decl_column(0x03)
    2066                    
    2067                    $C$DW$T$187     .dwtag  DW_TAG_pointer_type
    2068                            .dwattr $C$DW$T$187, DW_AT_type(*$C$DW$T$186)
    2069                            .dwattr $C$DW$T$187, DW_AT_address_class(0x20)
    2070                    
    2071                    $C$DW$T$190     .dwtag  DW_TAG_const_type
    2072                            .dwattr $C$DW$T$190, DW_AT_type(*$C$DW$T$187)
    2073                    
    2074                    
    2075                    $C$DW$T$65      .dwtag  DW_TAG_structure_type
    2076                            .dwattr $C$DW$T$65, DW_AT_byte_size(0x4c)
    2077                    $C$DW$129       .dwtag  DW_TAG_member
    2078                            .dwattr $C$DW$129, DW_AT_type(*$C$DW$T$29)
    2079                            .dwattr $C$DW$129, DW_AT_name("Crc32")
    2080                            .dwattr $C$DW$129, DW_AT_TI_symbol_name("Crc32")
TI ARM Assembler PC v16.9.8 Mon Dec 10 17:47:35 2018

Tools Copyright (c) 1996-2017 Texas Instruments Incorporated
C:\Users\Einstein\AppData\Local\Temp\{D8717E8C-C6B2-43EB-B59B-6498A87373A3} PAGE   39

    2081                            .dwattr $C$DW$129, DW_AT_data_member_location[DW_OP_plus_uconst 0x0]
    2082                            .dwattr $C$DW$129, DW_AT_accessibility(DW_ACCESS_public)
    2083                            .dwattr $C$DW$129, DW_AT_decl_file("C:\ti\simplelink_cc13x0_sdk_2_30_00_20\source\ti\devices\c
    2084                            .dwattr $C$DW$129, DW_AT_decl_line(0x76)
    2085                            .dwattr $C$DW$129, DW_AT_decl_column(0x25)
    2086                    
    2087                    $C$DW$130       .dwtag  DW_TAG_member
    2088                            .dwattr $C$DW$130, DW_AT_type(*$C$DW$T$32)
    2089                            .dwattr $C$DW$130, DW_AT_name("FlashGetSize")
    2090                            .dwattr $C$DW$130, DW_AT_TI_symbol_name("FlashGetSize")
    2091                            .dwattr $C$DW$130, DW_AT_data_member_location[DW_OP_plus_uconst 0x4]
    2092                            .dwattr $C$DW$130, DW_AT_accessibility(DW_ACCESS_public)
    2093                            .dwattr $C$DW$130, DW_AT_decl_file("C:\ti\simplelink_cc13x0_sdk_2_30_00_20\source\ti\devices\c
    2094                            .dwattr $C$DW$130, DW_AT_decl_line(0x77)
    2095                            .dwattr $C$DW$130, DW_AT_decl_column(0x25)
    2096                    
    2097                    $C$DW$131       .dwtag  DW_TAG_member
    2098                            .dwattr $C$DW$131, DW_AT_type(*$C$DW$T$33)
    2099                            .dwattr $C$DW$131, DW_AT_name("GetChipId")
    2100                            .dwattr $C$DW$131, DW_AT_TI_symbol_name("GetChipId")
    2101                            .dwattr $C$DW$131, DW_AT_data_member_location[DW_OP_plus_uconst 0x8]
    2102                            .dwattr $C$DW$131, DW_AT_accessibility(DW_ACCESS_public)
    2103                            .dwattr $C$DW$131, DW_AT_decl_file("C:\ti\simplelink_cc13x0_sdk_2_30_00_20\source\ti\devices\c
    2104                            .dwattr $C$DW$131, DW_AT_decl_line(0x78)
    2105                            .dwattr $C$DW$131, DW_AT_decl_column(0x25)
    2106                    
    2107                    $C$DW$132       .dwtag  DW_TAG_member
    2108                            .dwattr $C$DW$132, DW_AT_type(*$C$DW$T$36)
    2109                            .dwattr $C$DW$132, DW_AT_name("ReservedLocation1")
    2110                            .dwattr $C$DW$132, DW_AT_TI_symbol_name("ReservedLocation1")
    2111                            .dwattr $C$DW$132, DW_AT_data_member_location[DW_OP_plus_uconst 0xc]
    2112                            .dwattr $C$DW$132, DW_AT_accessibility(DW_ACCESS_public)
    2113                            .dwattr $C$DW$132, DW_AT_decl_file("C:\ti\simplelink_cc13x0_sdk_2_30_00_20\source\ti\devices\c
    2114                            .dwattr $C$DW$132, DW_AT_decl_line(0x79)
    2115                            .dwattr $C$DW$132, DW_AT_decl_column(0x25)
    2116                    
    2117                    $C$DW$133       .dwtag  DW_TAG_member
    2118                            .dwattr $C$DW$133, DW_AT_type(*$C$DW$T$37)
    2119                            .dwattr $C$DW$133, DW_AT_name("ReservedLocation2")
    2120                            .dwattr $C$DW$133, DW_AT_TI_symbol_name("ReservedLocation2")
    2121                            .dwattr $C$DW$133, DW_AT_data_member_location[DW_OP_plus_uconst 0x10]
    2122                            .dwattr $C$DW$133, DW_AT_accessibility(DW_ACCESS_public)
    2123                            .dwattr $C$DW$133, DW_AT_decl_file("C:\ti\simplelink_cc13x0_sdk_2_30_00_20\source\ti\devices\c
    2124                            .dwattr $C$DW$133, DW_AT_decl_line(0x7a)
    2125                            .dwattr $C$DW$133, DW_AT_decl_column(0x25)
    2126                    
    2127                    $C$DW$134       .dwtag  DW_TAG_member
    2128                            .dwattr $C$DW$134, DW_AT_type(*$C$DW$T$38)
    2129                            .dwattr $C$DW$134, DW_AT_name("ReservedLocation3")
    2130                            .dwattr $C$DW$134, DW_AT_TI_symbol_name("ReservedLocation3")
    2131                            .dwattr $C$DW$134, DW_AT_data_member_location[DW_OP_plus_uconst 0x14]
    2132                            .dwattr $C$DW$134, DW_AT_accessibility(DW_ACCESS_public)
    2133                            .dwattr $C$DW$134, DW_AT_decl_file("C:\ti\simplelink_cc13x0_sdk_2_30_00_20\source\ti\devices\c
    2134                            .dwattr $C$DW$134, DW_AT_decl_line(0x7b)
    2135                            .dwattr $C$DW$134, DW_AT_decl_column(0x25)
TI ARM Assembler PC v16.9.8 Mon Dec 10 17:47:35 2018

Tools Copyright (c) 1996-2017 Texas Instruments Incorporated
C:\Users\Einstein\AppData\Local\Temp\{D8717E8C-C6B2-43EB-B59B-6498A87373A3} PAGE   40

    2136                    
    2137                    $C$DW$135       .dwtag  DW_TAG_member
    2138                            .dwattr $C$DW$135, DW_AT_type(*$C$DW$T$41)
    2139                            .dwattr $C$DW$135, DW_AT_name("ResetDevice")
    2140                            .dwattr $C$DW$135, DW_AT_TI_symbol_name("ResetDevice")
    2141                            .dwattr $C$DW$135, DW_AT_data_member_location[DW_OP_plus_uconst 0x18]
    2142                            .dwattr $C$DW$135, DW_AT_accessibility(DW_ACCESS_public)
    2143                            .dwattr $C$DW$135, DW_AT_decl_file("C:\ti\simplelink_cc13x0_sdk_2_30_00_20\source\ti\devices\c
    2144                            .dwattr $C$DW$135, DW_AT_decl_line(0x7c)
    2145                            .dwattr $C$DW$135, DW_AT_decl_column(0x25)
    2146                    
    2147                    $C$DW$136       .dwtag  DW_TAG_member
    2148                            .dwattr $C$DW$136, DW_AT_type(*$C$DW$T$46)
    2149                            .dwattr $C$DW$136, DW_AT_name("Fletcher32")
    2150                            .dwattr $C$DW$136, DW_AT_TI_symbol_name("Fletcher32")
    2151                            .dwattr $C$DW$136, DW_AT_data_member_location[DW_OP_plus_uconst 0x1c]
    2152                            .dwattr $C$DW$136, DW_AT_accessibility(DW_ACCESS_public)
    2153                            .dwattr $C$DW$136, DW_AT_decl_file("C:\ti\simplelink_cc13x0_sdk_2_30_00_20\source\ti\devices\c
    2154                            .dwattr $C$DW$136, DW_AT_decl_line(0x7d)
    2155                            .dwattr $C$DW$136, DW_AT_decl_column(0x25)
    2156                    
    2157                    $C$DW$137       .dwtag  DW_TAG_member
    2158                            .dwattr $C$DW$137, DW_AT_type(*$C$DW$T$50)
    2159                            .dwattr $C$DW$137, DW_AT_name("MinValue")
    2160                            .dwattr $C$DW$137, DW_AT_TI_symbol_name("MinValue")
    2161                            .dwattr $C$DW$137, DW_AT_data_member_location[DW_OP_plus_uconst 0x20]
    2162                            .dwattr $C$DW$137, DW_AT_accessibility(DW_ACCESS_public)
    2163                            .dwattr $C$DW$137, DW_AT_decl_file("C:\ti\simplelink_cc13x0_sdk_2_30_00_20\source\ti\devices\c
    2164                            .dwattr $C$DW$137, DW_AT_decl_line(0x7e)
    2165                            .dwattr $C$DW$137, DW_AT_decl_column(0x25)
    2166                    
    2167                    $C$DW$138       .dwtag  DW_TAG_member
    2168                            .dwattr $C$DW$138, DW_AT_type(*$C$DW$T$51)
    2169                            .dwattr $C$DW$138, DW_AT_name("MaxValue")
    2170                            .dwattr $C$DW$138, DW_AT_TI_symbol_name("MaxValue")
    2171                            .dwattr $C$DW$138, DW_AT_data_member_location[DW_OP_plus_uconst 0x24]
    2172                            .dwattr $C$DW$138, DW_AT_accessibility(DW_ACCESS_public)
    2173                            .dwattr $C$DW$138, DW_AT_decl_file("C:\ti\simplelink_cc13x0_sdk_2_30_00_20\source\ti\devices\c
    2174                            .dwattr $C$DW$138, DW_AT_decl_line(0x7f)
    2175                            .dwattr $C$DW$138, DW_AT_decl_column(0x25)
    2176                    
    2177                    $C$DW$139       .dwtag  DW_TAG_member
    2178                            .dwattr $C$DW$139, DW_AT_type(*$C$DW$T$52)
    2179                            .dwattr $C$DW$139, DW_AT_name("MeanValue")
    2180                            .dwattr $C$DW$139, DW_AT_TI_symbol_name("MeanValue")
    2181                            .dwattr $C$DW$139, DW_AT_data_member_location[DW_OP_plus_uconst 0x28]
    2182                            .dwattr $C$DW$139, DW_AT_accessibility(DW_ACCESS_public)
    2183                            .dwattr $C$DW$139, DW_AT_decl_file("C:\ti\simplelink_cc13x0_sdk_2_30_00_20\source\ti\devices\c
    2184                            .dwattr $C$DW$139, DW_AT_decl_line(0x80)
    2185                            .dwattr $C$DW$139, DW_AT_decl_column(0x25)
    2186                    
    2187                    $C$DW$140       .dwtag  DW_TAG_member
    2188                            .dwattr $C$DW$140, DW_AT_type(*$C$DW$T$53)
    2189                            .dwattr $C$DW$140, DW_AT_name("StandDeviationValue")
    2190                            .dwattr $C$DW$140, DW_AT_TI_symbol_name("StandDeviationValue")
TI ARM Assembler PC v16.9.8 Mon Dec 10 17:47:35 2018

Tools Copyright (c) 1996-2017 Texas Instruments Incorporated
C:\Users\Einstein\AppData\Local\Temp\{D8717E8C-C6B2-43EB-B59B-6498A87373A3} PAGE   41

    2191                            .dwattr $C$DW$140, DW_AT_data_member_location[DW_OP_plus_uconst 0x2c]
    2192                            .dwattr $C$DW$140, DW_AT_accessibility(DW_ACCESS_public)
    2193                            .dwattr $C$DW$140, DW_AT_decl_file("C:\ti\simplelink_cc13x0_sdk_2_30_00_20\source\ti\devices\c
    2194                            .dwattr $C$DW$140, DW_AT_decl_line(0x81)
    2195                            .dwattr $C$DW$140, DW_AT_decl_column(0x25)
    2196                    
    2197                    $C$DW$141       .dwtag  DW_TAG_member
    2198                            .dwattr $C$DW$141, DW_AT_type(*$C$DW$T$56)
    2199                            .dwattr $C$DW$141, DW_AT_name("ReservedLocation4")
    2200                            .dwattr $C$DW$141, DW_AT_TI_symbol_name("ReservedLocation4")
    2201                            .dwattr $C$DW$141, DW_AT_data_member_location[DW_OP_plus_uconst 0x30]
    2202                            .dwattr $C$DW$141, DW_AT_accessibility(DW_ACCESS_public)
    2203                            .dwattr $C$DW$141, DW_AT_decl_file("C:\ti\simplelink_cc13x0_sdk_2_30_00_20\source\ti\devices\c
    2204                            .dwattr $C$DW$141, DW_AT_decl_line(0x82)
    2205                            .dwattr $C$DW$141, DW_AT_decl_column(0x25)
    2206                    
    2207                    $C$DW$142       .dwtag  DW_TAG_member
    2208                            .dwattr $C$DW$142, DW_AT_type(*$C$DW$T$57)
    2209                            .dwattr $C$DW$142, DW_AT_name("ReservedLocation5")
    2210                            .dwattr $C$DW$142, DW_AT_TI_symbol_name("ReservedLocation5")
    2211                            .dwattr $C$DW$142, DW_AT_data_member_location[DW_OP_plus_uconst 0x34]
    2212                            .dwattr $C$DW$142, DW_AT_accessibility(DW_ACCESS_public)
    2213                            .dwattr $C$DW$142, DW_AT_decl_file("C:\ti\simplelink_cc13x0_sdk_2_30_00_20\source\ti\devices\c
    2214                            .dwattr $C$DW$142, DW_AT_decl_line(0x83)
    2215                            .dwattr $C$DW$142, DW_AT_decl_column(0x25)
    2216                    
    2217                    $C$DW$143       .dwtag  DW_TAG_member
    2218                            .dwattr $C$DW$143, DW_AT_type(*$C$DW$T$58)
    2219                            .dwattr $C$DW$143, DW_AT_name("HFSourceSafeSwitch")
    2220                            .dwattr $C$DW$143, DW_AT_TI_symbol_name("HFSourceSafeSwitch")
    2221                            .dwattr $C$DW$143, DW_AT_data_member_location[DW_OP_plus_uconst 0x38]
    2222                            .dwattr $C$DW$143, DW_AT_accessibility(DW_ACCESS_public)
    2223                            .dwattr $C$DW$143, DW_AT_decl_file("C:\ti\simplelink_cc13x0_sdk_2_30_00_20\source\ti\devices\c
    2224                            .dwattr $C$DW$143, DW_AT_decl_line(0x84)
    2225                            .dwattr $C$DW$143, DW_AT_decl_column(0x25)
    2226                    
    2227                    $C$DW$144       .dwtag  DW_TAG_member
    2228                            .dwattr $C$DW$144, DW_AT_type(*$C$DW$T$61)
    2229                            .dwattr $C$DW$144, DW_AT_name("SelectCompAInput")
    2230                            .dwattr $C$DW$144, DW_AT_TI_symbol_name("SelectCompAInput")
    2231                            .dwattr $C$DW$144, DW_AT_data_member_location[DW_OP_plus_uconst 0x3c]
    2232                            .dwattr $C$DW$144, DW_AT_accessibility(DW_ACCESS_public)
    2233                            .dwattr $C$DW$144, DW_AT_decl_file("C:\ti\simplelink_cc13x0_sdk_2_30_00_20\source\ti\devices\c
    2234                            .dwattr $C$DW$144, DW_AT_decl_line(0x85)
    2235                            .dwattr $C$DW$144, DW_AT_decl_column(0x25)
    2236                    
    2237                    $C$DW$145       .dwtag  DW_TAG_member
    2238                            .dwattr $C$DW$145, DW_AT_type(*$C$DW$T$62)
    2239                            .dwattr $C$DW$145, DW_AT_name("SelectCompARef")
    2240                            .dwattr $C$DW$145, DW_AT_TI_symbol_name("SelectCompARef")
    2241                            .dwattr $C$DW$145, DW_AT_data_member_location[DW_OP_plus_uconst 0x40]
    2242                            .dwattr $C$DW$145, DW_AT_accessibility(DW_ACCESS_public)
    2243                            .dwattr $C$DW$145, DW_AT_decl_file("C:\ti\simplelink_cc13x0_sdk_2_30_00_20\source\ti\devices\c
    2244                            .dwattr $C$DW$145, DW_AT_decl_line(0x86)
    2245                            .dwattr $C$DW$145, DW_AT_decl_column(0x25)
TI ARM Assembler PC v16.9.8 Mon Dec 10 17:47:35 2018

Tools Copyright (c) 1996-2017 Texas Instruments Incorporated
C:\Users\Einstein\AppData\Local\Temp\{D8717E8C-C6B2-43EB-B59B-6498A87373A3} PAGE   42

    2246                    
    2247                    $C$DW$146       .dwtag  DW_TAG_member
    2248                            .dwattr $C$DW$146, DW_AT_type(*$C$DW$T$63)
    2249                            .dwattr $C$DW$146, DW_AT_name("SelectADCCompBInput")
    2250                            .dwattr $C$DW$146, DW_AT_TI_symbol_name("SelectADCCompBInput")
    2251                            .dwattr $C$DW$146, DW_AT_data_member_location[DW_OP_plus_uconst 0x44]
    2252                            .dwattr $C$DW$146, DW_AT_accessibility(DW_ACCESS_public)
    2253                            .dwattr $C$DW$146, DW_AT_decl_file("C:\ti\simplelink_cc13x0_sdk_2_30_00_20\source\ti\devices\c
    2254                            .dwattr $C$DW$146, DW_AT_decl_line(0x87)
    2255                            .dwattr $C$DW$146, DW_AT_decl_column(0x25)
    2256                    
    2257                    $C$DW$147       .dwtag  DW_TAG_member
    2258                            .dwattr $C$DW$147, DW_AT_type(*$C$DW$T$64)
    2259                            .dwattr $C$DW$147, DW_AT_name("SelectCompBRef")
    2260                            .dwattr $C$DW$147, DW_AT_TI_symbol_name("SelectCompBRef")
    2261                            .dwattr $C$DW$147, DW_AT_data_member_location[DW_OP_plus_uconst 0x48]
    2262                            .dwattr $C$DW$147, DW_AT_accessibility(DW_ACCESS_public)
    2263                            .dwattr $C$DW$147, DW_AT_decl_file("C:\ti\simplelink_cc13x0_sdk_2_30_00_20\source\ti\devices\c
    2264                            .dwattr $C$DW$147, DW_AT_decl_line(0x88)
    2265                            .dwattr $C$DW$147, DW_AT_decl_column(0x25)
    2266                    
    2267                            .dwattr $C$DW$T$65, DW_AT_decl_file("C:\ti\simplelink_cc13x0_sdk_2_30_00_20\source\ti\devices\
    2268                            .dwattr $C$DW$T$65, DW_AT_decl_line(0x75)
    2269                            .dwattr $C$DW$T$65, DW_AT_decl_column(0x01)
    2270                            .dwendtag $C$DW$T$65
    2271                    
    2272                    $C$DW$T$191     .dwtag  DW_TAG_typedef
    2273                            .dwattr $C$DW$T$191, DW_AT_name("HARD_API_T")
    2274                            .dwattr $C$DW$T$191, DW_AT_type(*$C$DW$T$65)
    2275                            .dwattr $C$DW$T$191, DW_AT_language(DW_LANG_C)
    2276                            .dwattr $C$DW$T$191, DW_AT_decl_file("C:\ti\simplelink_cc13x0_sdk_2_30_00_20\source\ti\devices
    2277                            .dwattr $C$DW$T$191, DW_AT_decl_line(0x89)
    2278                            .dwattr $C$DW$T$191, DW_AT_decl_column(0x03)
    2279                    
    2280                    
    2281                    $C$DW$T$66      .dwtag  DW_TAG_structure_type
    2282                            .dwattr $C$DW$T$66, DW_AT_byte_size(0x08)
    2283                    $C$DW$148       .dwtag  DW_TAG_member
    2284                            .dwattr $C$DW$148, DW_AT_type(*$C$DW$T$10)
    2285                            .dwattr $C$DW$148, DW_AT_name("quot")
    2286                            .dwattr $C$DW$148, DW_AT_TI_symbol_name("quot")
    2287                            .dwattr $C$DW$148, DW_AT_data_member_location[DW_OP_plus_uconst 0x0]
    2288                            .dwattr $C$DW$148, DW_AT_accessibility(DW_ACCESS_public)
    2289                            .dwattr $C$DW$148, DW_AT_decl_file("C:/ti/ccsv7/tools/compiler/ti-cgt-arm_16.9.8.LTS/include/s
    2290                            .dwattr $C$DW$148, DW_AT_decl_line(0x5c)
    2291                            .dwattr $C$DW$148, DW_AT_decl_column(0x16)
    2292                    
    2293                    $C$DW$149       .dwtag  DW_TAG_member
    2294                            .dwattr $C$DW$149, DW_AT_type(*$C$DW$T$10)
    2295                            .dwattr $C$DW$149, DW_AT_name("rem")
    2296                            .dwattr $C$DW$149, DW_AT_TI_symbol_name("rem")
    2297                            .dwattr $C$DW$149, DW_AT_data_member_location[DW_OP_plus_uconst 0x4]
    2298                            .dwattr $C$DW$149, DW_AT_accessibility(DW_ACCESS_public)
    2299                            .dwattr $C$DW$149, DW_AT_decl_file("C:/ti/ccsv7/tools/compiler/ti-cgt-arm_16.9.8.LTS/include/s
    2300                            .dwattr $C$DW$149, DW_AT_decl_line(0x5c)
TI ARM Assembler PC v16.9.8 Mon Dec 10 17:47:35 2018

Tools Copyright (c) 1996-2017 Texas Instruments Incorporated
C:\Users\Einstein\AppData\Local\Temp\{D8717E8C-C6B2-43EB-B59B-6498A87373A3} PAGE   43

    2301                            .dwattr $C$DW$149, DW_AT_decl_column(0x1c)
    2302                    
    2303                            .dwattr $C$DW$T$66, DW_AT_decl_file("C:/ti/ccsv7/tools/compiler/ti-cgt-arm_16.9.8.LTS/include/
    2304                            .dwattr $C$DW$T$66, DW_AT_decl_line(0x5c)
    2305                            .dwattr $C$DW$T$66, DW_AT_decl_column(0x10)
    2306                            .dwendtag $C$DW$T$66
    2307                    
    2308                    $C$DW$T$192     .dwtag  DW_TAG_typedef
    2309                            .dwattr $C$DW$T$192, DW_AT_name("div_t")
    2310                            .dwattr $C$DW$T$192, DW_AT_type(*$C$DW$T$66)
    2311                            .dwattr $C$DW$T$192, DW_AT_language(DW_LANG_C)
    2312                            .dwattr $C$DW$T$192, DW_AT_decl_file("C:/ti/ccsv7/tools/compiler/ti-cgt-arm_16.9.8.LTS/include
    2313                            .dwattr $C$DW$T$192, DW_AT_decl_line(0x5c)
    2314                            .dwattr $C$DW$T$192, DW_AT_decl_column(0x23)
    2315                    
    2316                    
    2317                    $C$DW$T$67      .dwtag  DW_TAG_structure_type
    2318                            .dwattr $C$DW$T$67, DW_AT_byte_size(0x08)
    2319                    $C$DW$150       .dwtag  DW_TAG_member
    2320                            .dwattr $C$DW$150, DW_AT_type(*$C$DW$T$10)
    2321                            .dwattr $C$DW$150, DW_AT_name("quot")
    2322                            .dwattr $C$DW$150, DW_AT_TI_symbol_name("quot")
    2323                            .dwattr $C$DW$150, DW_AT_data_member_location[DW_OP_plus_uconst 0x0]
    2324                            .dwattr $C$DW$150, DW_AT_accessibility(DW_ACCESS_public)
    2325                            .dwattr $C$DW$150, DW_AT_decl_file("C:/ti/ccsv7/tools/compiler/ti-cgt-arm_16.9.8.LTS/include/s
    2326                            .dwattr $C$DW$150, DW_AT_decl_line(0x5e)
    2327                            .dwattr $C$DW$150, DW_AT_decl_column(0x16)
    2328                    
    2329                    $C$DW$151       .dwtag  DW_TAG_member
    2330                            .dwattr $C$DW$151, DW_AT_type(*$C$DW$T$10)
    2331                            .dwattr $C$DW$151, DW_AT_name("rem")
    2332                            .dwattr $C$DW$151, DW_AT_TI_symbol_name("rem")
    2333                            .dwattr $C$DW$151, DW_AT_data_member_location[DW_OP_plus_uconst 0x4]
    2334                            .dwattr $C$DW$151, DW_AT_accessibility(DW_ACCESS_public)
    2335                            .dwattr $C$DW$151, DW_AT_decl_file("C:/ti/ccsv7/tools/compiler/ti-cgt-arm_16.9.8.LTS/include/s
    2336                            .dwattr $C$DW$151, DW_AT_decl_line(0x5e)
    2337                            .dwattr $C$DW$151, DW_AT_decl_column(0x1c)
    2338                    
    2339                            .dwattr $C$DW$T$67, DW_AT_decl_file("C:/ti/ccsv7/tools/compiler/ti-cgt-arm_16.9.8.LTS/include/
    2340                            .dwattr $C$DW$T$67, DW_AT_decl_line(0x5e)
    2341                            .dwattr $C$DW$T$67, DW_AT_decl_column(0x10)
    2342                            .dwendtag $C$DW$T$67
    2343                    
    2344                    $C$DW$T$193     .dwtag  DW_TAG_typedef
    2345                            .dwattr $C$DW$T$193, DW_AT_name("ldiv_t")
    2346                            .dwattr $C$DW$T$193, DW_AT_type(*$C$DW$T$67)
    2347                            .dwattr $C$DW$T$193, DW_AT_language(DW_LANG_C)
    2348                            .dwattr $C$DW$T$193, DW_AT_decl_file("C:/ti/ccsv7/tools/compiler/ti-cgt-arm_16.9.8.LTS/include
    2349                            .dwattr $C$DW$T$193, DW_AT_decl_line(0x5e)
    2350                            .dwattr $C$DW$T$193, DW_AT_decl_column(0x23)
    2351                    
    2352                    
    2353                    $C$DW$T$68      .dwtag  DW_TAG_structure_type
    2354                            .dwattr $C$DW$T$68, DW_AT_byte_size(0x10)
    2355                    $C$DW$152       .dwtag  DW_TAG_member
TI ARM Assembler PC v16.9.8 Mon Dec 10 17:47:35 2018

Tools Copyright (c) 1996-2017 Texas Instruments Incorporated
C:\Users\Einstein\AppData\Local\Temp\{D8717E8C-C6B2-43EB-B59B-6498A87373A3} PAGE   44

    2356                            .dwattr $C$DW$152, DW_AT_type(*$C$DW$T$14)
    2357                            .dwattr $C$DW$152, DW_AT_name("quot")
    2358                            .dwattr $C$DW$152, DW_AT_TI_symbol_name("quot")
    2359                            .dwattr $C$DW$152, DW_AT_data_member_location[DW_OP_plus_uconst 0x0]
    2360                            .dwattr $C$DW$152, DW_AT_accessibility(DW_ACCESS_public)
    2361                            .dwattr $C$DW$152, DW_AT_decl_file("C:/ti/ccsv7/tools/compiler/ti-cgt-arm_16.9.8.LTS/include/s
    2362                            .dwattr $C$DW$152, DW_AT_decl_line(0x61)
    2363                            .dwattr $C$DW$152, DW_AT_decl_column(0x1c)
    2364                    
    2365                    $C$DW$153       .dwtag  DW_TAG_member
    2366                            .dwattr $C$DW$153, DW_AT_type(*$C$DW$T$14)
    2367                            .dwattr $C$DW$153, DW_AT_name("rem")
    2368                            .dwattr $C$DW$153, DW_AT_TI_symbol_name("rem")
    2369                            .dwattr $C$DW$153, DW_AT_data_member_location[DW_OP_plus_uconst 0x8]
    2370                            .dwattr $C$DW$153, DW_AT_accessibility(DW_ACCESS_public)
    2371                            .dwattr $C$DW$153, DW_AT_decl_file("C:/ti/ccsv7/tools/compiler/ti-cgt-arm_16.9.8.LTS/include/s
    2372                            .dwattr $C$DW$153, DW_AT_decl_line(0x61)
    2373                            .dwattr $C$DW$153, DW_AT_decl_column(0x22)
    2374                    
    2375                            .dwattr $C$DW$T$68, DW_AT_decl_file("C:/ti/ccsv7/tools/compiler/ti-cgt-arm_16.9.8.LTS/include/
    2376                            .dwattr $C$DW$T$68, DW_AT_decl_line(0x61)
    2377                            .dwattr $C$DW$T$68, DW_AT_decl_column(0x10)
    2378                            .dwendtag $C$DW$T$68
    2379                    
    2380                    $C$DW$T$194     .dwtag  DW_TAG_typedef
    2381                            .dwattr $C$DW$T$194, DW_AT_name("lldiv_t")
    2382                            .dwattr $C$DW$T$194, DW_AT_type(*$C$DW$T$68)
    2383                            .dwattr $C$DW$T$194, DW_AT_language(DW_LANG_C)
    2384                            .dwattr $C$DW$T$194, DW_AT_decl_file("C:/ti/ccsv7/tools/compiler/ti-cgt-arm_16.9.8.LTS/include
    2385                            .dwattr $C$DW$T$194, DW_AT_decl_line(0x61)
    2386                            .dwattr $C$DW$T$194, DW_AT_decl_column(0x29)
    2387                    
    2388                    
    2389                    $C$DW$T$72      .dwtag  DW_TAG_structure_type
    2390                            .dwattr $C$DW$T$72, DW_AT_byte_size(0x08)
    2391                    $C$DW$154       .dwtag  DW_TAG_member
    2392                            .dwattr $C$DW$154, DW_AT_type(*$C$DW$T$70)
    2393                            .dwattr $C$DW$154, DW_AT_name("pointerStack")
    2394                            .dwattr $C$DW$154, DW_AT_TI_symbol_name("pointerStack")
    2395                            .dwattr $C$DW$154, DW_AT_data_member_location[DW_OP_plus_uconst 0x0]
    2396                            .dwattr $C$DW$154, DW_AT_accessibility(DW_ACCESS_public)
    2397                            .dwattr $C$DW$154, DW_AT_decl_file("C:/ti/simplelink_cc13x0_sdk_2_30_00_20/source/ti/ti154stac
    2398                            .dwattr $C$DW$154, DW_AT_decl_line(0x3f5)
    2399                            .dwattr $C$DW$154, DW_AT_decl_column(0x16)
    2400                    
    2401                    $C$DW$155       .dwtag  DW_TAG_member
    2402                            .dwattr $C$DW$155, DW_AT_type(*$C$DW$T$71)
    2403                            .dwattr $C$DW$155, DW_AT_name("directAPI")
    2404                            .dwattr $C$DW$155, DW_AT_TI_symbol_name("directAPI")
    2405                            .dwattr $C$DW$155, DW_AT_data_member_location[DW_OP_plus_uconst 0x4]
    2406                            .dwattr $C$DW$155, DW_AT_accessibility(DW_ACCESS_public)
    2407                            .dwattr $C$DW$155, DW_AT_decl_file("C:/ti/simplelink_cc13x0_sdk_2_30_00_20/source/ti/ti154stac
    2408                            .dwattr $C$DW$155, DW_AT_decl_line(0x3f6)
    2409                            .dwattr $C$DW$155, DW_AT_decl_column(0x15)
    2410                    
TI ARM Assembler PC v16.9.8 Mon Dec 10 17:47:35 2018

Tools Copyright (c) 1996-2017 Texas Instruments Incorporated
C:\Users\Einstein\AppData\Local\Temp\{D8717E8C-C6B2-43EB-B59B-6498A87373A3} PAGE   45

    2411                            .dwattr $C$DW$T$72, DW_AT_decl_file("C:/ti/simplelink_cc13x0_sdk_2_30_00_20/source/ti/ti154sta
    2412                            .dwattr $C$DW$T$72, DW_AT_decl_line(0x3f4)
    2413                            .dwattr $C$DW$T$72, DW_AT_decl_column(0x01)
    2414                            .dwendtag $C$DW$T$72
    2415                    
    2416                    $C$DW$T$74      .dwtag  DW_TAG_typedef
    2417                            .dwattr $C$DW$T$74, DW_AT_name("icall_directAPIMsg_t")
    2418                            .dwattr $C$DW$T$74, DW_AT_type(*$C$DW$T$72)
    2419                            .dwattr $C$DW$T$74, DW_AT_language(DW_LANG_C)
    2420                            .dwattr $C$DW$T$74, DW_AT_decl_file("C:/ti/simplelink_cc13x0_sdk_2_30_00_20/source/ti/ti154sta
    2421                            .dwattr $C$DW$T$74, DW_AT_decl_line(0x3f7)
    2422                            .dwattr $C$DW$T$74, DW_AT_decl_column(0x03)
    2423                    
    2424                    
    2425                    $C$DW$T$75      .dwtag  DW_TAG_structure_type
    2426                            .dwattr $C$DW$T$75, DW_AT_byte_size(0x14)
    2427                    $C$DW$156       .dwtag  DW_TAG_member
    2428                            .dwattr $C$DW$156, DW_AT_type(*$C$DW$T$73)
    2429                            .dwattr $C$DW$156, DW_AT_name("hdr")
    2430                            .dwattr $C$DW$156, DW_AT_TI_symbol_name("hdr")
    2431                            .dwattr $C$DW$156, DW_AT_data_member_location[DW_OP_plus_uconst 0x0]
    2432                            .dwattr $C$DW$156, DW_AT_accessibility(DW_ACCESS_public)
    2433                            .dwattr $C$DW$156, DW_AT_decl_file("C:/ti/simplelink_cc13x0_sdk_2_30_00_20/source/ti/ti154stac
    2434                            .dwattr $C$DW$156, DW_AT_decl_line(0x3fb)
    2435                            .dwattr $C$DW$156, DW_AT_decl_column(0x10)
    2436                    
    2437                    $C$DW$157       .dwtag  DW_TAG_member
    2438                            .dwattr $C$DW$157, DW_AT_type(*$C$DW$T$74)
    2439                            .dwattr $C$DW$157, DW_AT_name("msg")
    2440                            .dwattr $C$DW$157, DW_AT_TI_symbol_name("msg")
    2441                            .dwattr $C$DW$157, DW_AT_data_member_location[DW_OP_plus_uconst 0xc]
    2442                            .dwattr $C$DW$157, DW_AT_accessibility(DW_ACCESS_public)
    2443                            .dwattr $C$DW$157, DW_AT_decl_file("C:/ti/simplelink_cc13x0_sdk_2_30_00_20/source/ti/ti154stac
    2444                            .dwattr $C$DW$157, DW_AT_decl_line(0x3fc)
    2445                            .dwattr $C$DW$157, DW_AT_decl_column(0x1a)
    2446                    
    2447                            .dwattr $C$DW$T$75, DW_AT_decl_file("C:/ti/simplelink_cc13x0_sdk_2_30_00_20/source/ti/ti154sta
    2448                            .dwattr $C$DW$T$75, DW_AT_decl_line(0x3fa)
    2449                            .dwattr $C$DW$T$75, DW_AT_decl_column(0x01)
    2450                            .dwendtag $C$DW$T$75
    2451                    
    2452                    $C$DW$T$195     .dwtag  DW_TAG_typedef
    2453                            .dwattr $C$DW$T$195, DW_AT_name("icallLiteMsg_t")
    2454                            .dwattr $C$DW$T$195, DW_AT_type(*$C$DW$T$75)
    2455                            .dwattr $C$DW$T$195, DW_AT_language(DW_LANG_C)
    2456                            .dwattr $C$DW$T$195, DW_AT_decl_file("C:/ti/simplelink_cc13x0_sdk_2_30_00_20/source/ti/ti154st
    2457                            .dwattr $C$DW$T$195, DW_AT_decl_line(0x3fd)
    2458                            .dwattr $C$DW$T$195, DW_AT_decl_column(0x03)
    2459                    
    2460                    
    2461                    $C$DW$T$78      .dwtag  DW_TAG_structure_type
    2462                            .dwattr $C$DW$T$78, DW_AT_byte_size(0x0c)
    2463                    $C$DW$158       .dwtag  DW_TAG_member
    2464                            .dwattr $C$DW$158, DW_AT_type(*$C$DW$T$76)
    2465                            .dwattr $C$DW$158, DW_AT_name("bufferHead")
TI ARM Assembler PC v16.9.8 Mon Dec 10 17:47:35 2018

Tools Copyright (c) 1996-2017 Texas Instruments Incorporated
C:\Users\Einstein\AppData\Local\Temp\{D8717E8C-C6B2-43EB-B59B-6498A87373A3} PAGE   46

    2466                            .dwattr $C$DW$158, DW_AT_TI_symbol_name("bufferHead")
    2467                            .dwattr $C$DW$158, DW_AT_data_member_location[DW_OP_plus_uconst 0x0]
    2468                            .dwattr $C$DW$158, DW_AT_accessibility(DW_ACCESS_public)
    2469                            .dwattr $C$DW$158, DW_AT_decl_file("C:/ti/simplelink_cc13x0_sdk_2_30_00_20/source/ti/ti154stac
    2470                            .dwattr $C$DW$158, DW_AT_decl_line(0x80)
    2471                            .dwattr $C$DW$158, DW_AT_decl_column(0x13)
    2472                    
    2473                    $C$DW$159       .dwtag  DW_TAG_member
    2474                            .dwattr $C$DW$159, DW_AT_type(*$C$DW$T$76)
    2475                            .dwattr $C$DW$159, DW_AT_name("bufferTail")
    2476                            .dwattr $C$DW$159, DW_AT_TI_symbol_name("bufferTail")
    2477                            .dwattr $C$DW$159, DW_AT_data_member_location[DW_OP_plus_uconst 0x2]
    2478                            .dwattr $C$DW$159, DW_AT_accessibility(DW_ACCESS_public)
    2479                            .dwattr $C$DW$159, DW_AT_decl_file("C:/ti/simplelink_cc13x0_sdk_2_30_00_20/source/ti/ti154stac
    2480                            .dwattr $C$DW$159, DW_AT_decl_line(0x81)
    2481                            .dwattr $C$DW$159, DW_AT_decl_column(0x13)
    2482                    
    2483                    $C$DW$160       .dwtag  DW_TAG_member
    2484                            .dwattr $C$DW$160, DW_AT_type(*$C$DW$T$20)
    2485                            .dwattr $C$DW$160, DW_AT_name("maxBufSize")
    2486                            .dwattr $C$DW$160, DW_AT_TI_symbol_name("maxBufSize")
    2487                            .dwattr $C$DW$160, DW_AT_data_member_location[DW_OP_plus_uconst 0x4]
    2488                            .dwattr $C$DW$160, DW_AT_accessibility(DW_ACCESS_public)
    2489                            .dwattr $C$DW$160, DW_AT_decl_file("C:/ti/simplelink_cc13x0_sdk_2_30_00_20/source/ti/ti154stac
    2490                            .dwattr $C$DW$160, DW_AT_decl_line(0x82)
    2491                            .dwattr $C$DW$160, DW_AT_decl_column(0x0a)
    2492                    
    2493                    $C$DW$161       .dwtag  DW_TAG_member
    2494                            .dwattr $C$DW$161, DW_AT_type(*$C$DW$T$77)
    2495                            .dwattr $C$DW$161, DW_AT_name("pBuffer")
    2496                            .dwattr $C$DW$161, DW_AT_TI_symbol_name("pBuffer")
    2497                            .dwattr $C$DW$161, DW_AT_data_member_location[DW_OP_plus_uconst 0x8]
    2498                            .dwattr $C$DW$161, DW_AT_accessibility(DW_ACCESS_public)
    2499                            .dwattr $C$DW$161, DW_AT_decl_file("C:/ti/simplelink_cc13x0_sdk_2_30_00_20/source/ti/ti154stac
    2500                            .dwattr $C$DW$161, DW_AT_decl_line(0x83)
    2501                            .dwattr $C$DW$161, DW_AT_decl_column(0x0a)
    2502                    
    2503                            .dwattr $C$DW$T$78, DW_AT_decl_file("C:/ti/simplelink_cc13x0_sdk_2_30_00_20/source/ti/ti154sta
    2504                            .dwattr $C$DW$T$78, DW_AT_decl_line(0x7e)
    2505                            .dwattr $C$DW$T$78, DW_AT_decl_column(0x01)
    2506                            .dwendtag $C$DW$T$78
    2507                    
    2508                    $C$DW$T$80      .dwtag  DW_TAG_typedef
    2509                            .dwattr $C$DW$T$80, DW_AT_name("halUARTBufControl_t")
    2510                            .dwattr $C$DW$T$80, DW_AT_type(*$C$DW$T$78)
    2511                            .dwattr $C$DW$T$80, DW_AT_language(DW_LANG_C)
    2512                            .dwattr $C$DW$T$80, DW_AT_decl_file("C:/ti/simplelink_cc13x0_sdk_2_30_00_20/source/ti/ti154sta
    2513                            .dwattr $C$DW$T$80, DW_AT_decl_line(0x84)
    2514                            .dwattr $C$DW$T$80, DW_AT_decl_column(0x03)
    2515                    
    2516                    
    2517                    $C$DW$T$84      .dwtag  DW_TAG_structure_type
    2518                            .dwattr $C$DW$T$84, DW_AT_byte_size(0x2c)
    2519                    $C$DW$162       .dwtag  DW_TAG_member
    2520                            .dwattr $C$DW$162, DW_AT_type(*$C$DW$T$79)
TI ARM Assembler PC v16.9.8 Mon Dec 10 17:47:35 2018

Tools Copyright (c) 1996-2017 Texas Instruments Incorporated
C:\Users\Einstein\AppData\Local\Temp\{D8717E8C-C6B2-43EB-B59B-6498A87373A3} PAGE   47

    2521                            .dwattr $C$DW$162, DW_AT_name("configured")
    2522                            .dwattr $C$DW$162, DW_AT_TI_symbol_name("configured")
    2523                            .dwattr $C$DW$162, DW_AT_data_member_location[DW_OP_plus_uconst 0x0]
    2524                            .dwattr $C$DW$162, DW_AT_accessibility(DW_ACCESS_public)
    2525                            .dwattr $C$DW$162, DW_AT_decl_file("C:/ti/simplelink_cc13x0_sdk_2_30_00_20/source/ti/ti154stac
    2526                            .dwattr $C$DW$162, DW_AT_decl_line(0x88)
    2527                            .dwattr $C$DW$162, DW_AT_decl_column(0x17)
    2528                    
    2529                    $C$DW$163       .dwtag  DW_TAG_member
    2530                            .dwattr $C$DW$163, DW_AT_type(*$C$DW$T$21)
    2531                            .dwattr $C$DW$163, DW_AT_name("baudRate")
    2532                            .dwattr $C$DW$163, DW_AT_TI_symbol_name("baudRate")
    2533                            .dwattr $C$DW$163, DW_AT_data_member_location[DW_OP_plus_uconst 0x1]
    2534                            .dwattr $C$DW$163, DW_AT_accessibility(DW_ACCESS_public)
    2535                            .dwattr $C$DW$163, DW_AT_decl_file("C:/ti/simplelink_cc13x0_sdk_2_30_00_20/source/ti/ti154stac
    2536                            .dwattr $C$DW$163, DW_AT_decl_line(0x89)
    2537                            .dwattr $C$DW$163, DW_AT_decl_column(0x17)
    2538                    
    2539                    $C$DW$164       .dwtag  DW_TAG_member
    2540                            .dwattr $C$DW$164, DW_AT_type(*$C$DW$T$79)
    2541                            .dwattr $C$DW$164, DW_AT_name("flowControl")
    2542                            .dwattr $C$DW$164, DW_AT_TI_symbol_name("flowControl")
    2543                            .dwattr $C$DW$164, DW_AT_data_member_location[DW_OP_plus_uconst 0x2]
    2544                            .dwattr $C$DW$164, DW_AT_accessibility(DW_ACCESS_public)
    2545                            .dwattr $C$DW$164, DW_AT_decl_file("C:/ti/simplelink_cc13x0_sdk_2_30_00_20/source/ti/ti154stac
    2546                            .dwattr $C$DW$164, DW_AT_decl_line(0x8a)
    2547                            .dwattr $C$DW$164, DW_AT_decl_column(0x17)
    2548                    
    2549                    $C$DW$165       .dwtag  DW_TAG_member
    2550                            .dwattr $C$DW$165, DW_AT_type(*$C$DW$T$20)
    2551                            .dwattr $C$DW$165, DW_AT_name("flowControlThreshold")
    2552                            .dwattr $C$DW$165, DW_AT_TI_symbol_name("flowControlThreshold")
    2553                            .dwattr $C$DW$165, DW_AT_data_member_location[DW_OP_plus_uconst 0x4]
    2554                            .dwattr $C$DW$165, DW_AT_accessibility(DW_ACCESS_public)
    2555                            .dwattr $C$DW$165, DW_AT_decl_file("C:/ti/simplelink_cc13x0_sdk_2_30_00_20/source/ti/ti154stac
    2556                            .dwattr $C$DW$165, DW_AT_decl_line(0x8b)
    2557                            .dwattr $C$DW$165, DW_AT_decl_column(0x17)
    2558                    
    2559                    $C$DW$166       .dwtag  DW_TAG_member
    2560                            .dwattr $C$DW$166, DW_AT_type(*$C$DW$T$21)
    2561                            .dwattr $C$DW$166, DW_AT_name("idleTimeout")
    2562                            .dwattr $C$DW$166, DW_AT_TI_symbol_name("idleTimeout")
    2563                            .dwattr $C$DW$166, DW_AT_data_member_location[DW_OP_plus_uconst 0x6]
    2564                            .dwattr $C$DW$166, DW_AT_accessibility(DW_ACCESS_public)
    2565                            .dwattr $C$DW$166, DW_AT_decl_file("C:/ti/simplelink_cc13x0_sdk_2_30_00_20/source/ti/ti154stac
    2566                            .dwattr $C$DW$166, DW_AT_decl_line(0x8c)
    2567                            .dwattr $C$DW$166, DW_AT_decl_column(0x17)
    2568                    
    2569                    $C$DW$167       .dwtag  DW_TAG_member
    2570                            .dwattr $C$DW$167, DW_AT_type(*$C$DW$T$80)
    2571                            .dwattr $C$DW$167, DW_AT_name("rx")
    2572                            .dwattr $C$DW$167, DW_AT_TI_symbol_name("rx")
    2573                            .dwattr $C$DW$167, DW_AT_data_member_location[DW_OP_plus_uconst 0x8]
    2574                            .dwattr $C$DW$167, DW_AT_accessibility(DW_ACCESS_public)
    2575                            .dwattr $C$DW$167, DW_AT_decl_file("C:/ti/simplelink_cc13x0_sdk_2_30_00_20/source/ti/ti154stac
TI ARM Assembler PC v16.9.8 Mon Dec 10 17:47:35 2018

Tools Copyright (c) 1996-2017 Texas Instruments Incorporated
C:\Users\Einstein\AppData\Local\Temp\{D8717E8C-C6B2-43EB-B59B-6498A87373A3} PAGE   48

    2576                            .dwattr $C$DW$167, DW_AT_decl_line(0x8d)
    2577                            .dwattr $C$DW$167, DW_AT_decl_column(0x17)
    2578                    
    2579                    $C$DW$168       .dwtag  DW_TAG_member
    2580                            .dwattr $C$DW$168, DW_AT_type(*$C$DW$T$80)
    2581                            .dwattr $C$DW$168, DW_AT_name("tx")
    2582                            .dwattr $C$DW$168, DW_AT_TI_symbol_name("tx")
    2583                            .dwattr $C$DW$168, DW_AT_data_member_location[DW_OP_plus_uconst 0x14]
    2584                            .dwattr $C$DW$168, DW_AT_accessibility(DW_ACCESS_public)
    2585                            .dwattr $C$DW$168, DW_AT_decl_file("C:/ti/simplelink_cc13x0_sdk_2_30_00_20/source/ti/ti154stac
    2586                            .dwattr $C$DW$168, DW_AT_decl_line(0x8e)
    2587                            .dwattr $C$DW$168, DW_AT_decl_column(0x17)
    2588                    
    2589                    $C$DW$169       .dwtag  DW_TAG_member
    2590                            .dwattr $C$DW$169, DW_AT_type(*$C$DW$T$79)
    2591                            .dwattr $C$DW$169, DW_AT_name("intEnable")
    2592                            .dwattr $C$DW$169, DW_AT_TI_symbol_name("intEnable")
    2593                            .dwattr $C$DW$169, DW_AT_data_member_location[DW_OP_plus_uconst 0x20]
    2594                            .dwattr $C$DW$169, DW_AT_accessibility(DW_ACCESS_public)
    2595                            .dwattr $C$DW$169, DW_AT_decl_file("C:/ti/simplelink_cc13x0_sdk_2_30_00_20/source/ti/ti154stac
    2596                            .dwattr $C$DW$169, DW_AT_decl_line(0x8f)
    2597                            .dwattr $C$DW$169, DW_AT_decl_column(0x17)
    2598                    
    2599                    $C$DW$170       .dwtag  DW_TAG_member
    2600                            .dwattr $C$DW$170, DW_AT_type(*$C$DW$T$22)
    2601                            .dwattr $C$DW$170, DW_AT_name("rxChRvdTime")
    2602                            .dwattr $C$DW$170, DW_AT_TI_symbol_name("rxChRvdTime")
    2603                            .dwattr $C$DW$170, DW_AT_data_member_location[DW_OP_plus_uconst 0x24]
    2604                            .dwattr $C$DW$170, DW_AT_accessibility(DW_ACCESS_public)
    2605                            .dwattr $C$DW$170, DW_AT_decl_file("C:/ti/simplelink_cc13x0_sdk_2_30_00_20/source/ti/ti154stac
    2606                            .dwattr $C$DW$170, DW_AT_decl_line(0x90)
    2607                            .dwattr $C$DW$170, DW_AT_decl_column(0x17)
    2608                    
    2609                    $C$DW$171       .dwtag  DW_TAG_member
    2610                            .dwattr $C$DW$171, DW_AT_type(*$C$DW$T$83)
    2611                            .dwattr $C$DW$171, DW_AT_name("callBackFunc")
    2612                            .dwattr $C$DW$171, DW_AT_TI_symbol_name("callBackFunc")
    2613                            .dwattr $C$DW$171, DW_AT_data_member_location[DW_OP_plus_uconst 0x28]
    2614                            .dwattr $C$DW$171, DW_AT_accessibility(DW_ACCESS_public)
    2615                            .dwattr $C$DW$171, DW_AT_decl_file("C:/ti/simplelink_cc13x0_sdk_2_30_00_20/source/ti/ti154stac
    2616                            .dwattr $C$DW$171, DW_AT_decl_line(0x91)
    2617                            .dwattr $C$DW$171, DW_AT_decl_column(0x17)
    2618                    
    2619                            .dwattr $C$DW$T$84, DW_AT_decl_file("C:/ti/simplelink_cc13x0_sdk_2_30_00_20/source/ti/ti154sta
    2620                            .dwattr $C$DW$T$84, DW_AT_decl_line(0x87)
    2621                            .dwattr $C$DW$T$84, DW_AT_decl_column(0x01)
    2622                            .dwendtag $C$DW$T$84
    2623                    
    2624                    $C$DW$T$196     .dwtag  DW_TAG_typedef
    2625                            .dwattr $C$DW$T$196, DW_AT_name("halUARTCfg_t")
    2626                            .dwattr $C$DW$T$196, DW_AT_type(*$C$DW$T$84)
    2627                            .dwattr $C$DW$T$196, DW_AT_language(DW_LANG_C)
    2628                            .dwattr $C$DW$T$196, DW_AT_decl_file("C:/ti/simplelink_cc13x0_sdk_2_30_00_20/source/ti/ti154st
    2629                            .dwattr $C$DW$T$196, DW_AT_decl_line(0x92)
    2630                            .dwattr $C$DW$T$196, DW_AT_decl_column(0x02)
TI ARM Assembler PC v16.9.8 Mon Dec 10 17:47:35 2018

Tools Copyright (c) 1996-2017 Texas Instruments Incorporated
C:\Users\Einstein\AppData\Local\Temp\{D8717E8C-C6B2-43EB-B59B-6498A87373A3} PAGE   49

    2631                    
    2632                    
    2633                    $C$DW$T$85      .dwtag  DW_TAG_structure_type
    2634                            .dwattr $C$DW$T$85, DW_AT_byte_size(0x02)
    2635                    $C$DW$172       .dwtag  DW_TAG_member
    2636                            .dwattr $C$DW$172, DW_AT_type(*$C$DW$T$21)
    2637                            .dwattr $C$DW$172, DW_AT_name("event")
    2638                            .dwattr $C$DW$172, DW_AT_TI_symbol_name("event")
    2639                            .dwattr $C$DW$172, DW_AT_data_member_location[DW_OP_plus_uconst 0x0]
    2640                            .dwattr $C$DW$172, DW_AT_accessibility(DW_ACCESS_public)
    2641                            .dwattr $C$DW$172, DW_AT_decl_file("C:/ti/simplelink_cc13x0_sdk_2_30_00_20/source/ti/ti154stac
    2642                            .dwattr $C$DW$172, DW_AT_decl_line(0x79)
    2643                            .dwattr $C$DW$172, DW_AT_decl_column(0x0a)
    2644                    
    2645                    $C$DW$173       .dwtag  DW_TAG_member
    2646                            .dwattr $C$DW$173, DW_AT_type(*$C$DW$T$21)
    2647                            .dwattr $C$DW$173, DW_AT_name("status")
    2648                            .dwattr $C$DW$173, DW_AT_TI_symbol_name("status")
    2649                            .dwattr $C$DW$173, DW_AT_data_member_location[DW_OP_plus_uconst 0x1]
    2650                            .dwattr $C$DW$173, DW_AT_accessibility(DW_ACCESS_public)
    2651                            .dwattr $C$DW$173, DW_AT_decl_file("C:/ti/simplelink_cc13x0_sdk_2_30_00_20/source/ti/ti154stac
    2652                            .dwattr $C$DW$173, DW_AT_decl_line(0x7a)
    2653                            .dwattr $C$DW$173, DW_AT_decl_column(0x0a)
    2654                    
    2655                            .dwattr $C$DW$T$85, DW_AT_decl_file("C:/ti/simplelink_cc13x0_sdk_2_30_00_20/source/ti/ti154sta
    2656                            .dwattr $C$DW$T$85, DW_AT_decl_line(0x78)
    2657                            .dwattr $C$DW$T$85, DW_AT_decl_column(0x01)
    2658                            .dwendtag $C$DW$T$85
    2659                    
    2660                    $C$DW$T$86      .dwtag  DW_TAG_typedef
    2661                            .dwattr $C$DW$T$86, DW_AT_name("osal_event_hdr_t")
    2662                            .dwattr $C$DW$T$86, DW_AT_type(*$C$DW$T$85)
    2663                            .dwattr $C$DW$T$86, DW_AT_language(DW_LANG_C)
    2664                            .dwattr $C$DW$T$86, DW_AT_decl_file("C:/ti/simplelink_cc13x0_sdk_2_30_00_20/source/ti/ti154sta
    2665                            .dwattr $C$DW$T$86, DW_AT_decl_line(0x7b)
    2666                            .dwattr $C$DW$T$86, DW_AT_decl_column(0x03)
    2667                    
    2668                    
    2669                    $C$DW$T$87      .dwtag  DW_TAG_structure_type
    2670                            .dwattr $C$DW$T$87, DW_AT_byte_size(0x04)
    2671                    $C$DW$174       .dwtag  DW_TAG_member
    2672                            .dwattr $C$DW$174, DW_AT_type(*$C$DW$T$86)
    2673                            .dwattr $C$DW$174, DW_AT_name("hdr")
    2674                            .dwattr $C$DW$174, DW_AT_TI_symbol_name("hdr")
    2675                            .dwattr $C$DW$174, DW_AT_data_member_location[DW_OP_plus_uconst 0x0]
    2676                            .dwattr $C$DW$174, DW_AT_accessibility(DW_ACCESS_public)
    2677                            .dwattr $C$DW$174, DW_AT_decl_file("C:/ti/simplelink_cc13x0_sdk_2_30_00_20/examples/rtos/CC135
    2678                            .dwattr $C$DW$174, DW_AT_decl_line(0xbc)
    2679                            .dwattr $C$DW$174, DW_AT_decl_column(0x14)
    2680                    
    2681                    $C$DW$175       .dwtag  DW_TAG_member
    2682                            .dwattr $C$DW$175, DW_AT_type(*$C$DW$T$21)
    2683                            .dwattr $C$DW$175, DW_AT_name("state")
    2684                            .dwattr $C$DW$175, DW_AT_TI_symbol_name("state")
    2685                            .dwattr $C$DW$175, DW_AT_data_member_location[DW_OP_plus_uconst 0x2]
TI ARM Assembler PC v16.9.8 Mon Dec 10 17:47:35 2018

Tools Copyright (c) 1996-2017 Texas Instruments Incorporated
C:\Users\Einstein\AppData\Local\Temp\{D8717E8C-C6B2-43EB-B59B-6498A87373A3} PAGE   50

    2686                            .dwattr $C$DW$175, DW_AT_accessibility(DW_ACCESS_public)
    2687                            .dwattr $C$DW$175, DW_AT_decl_file("C:/ti/simplelink_cc13x0_sdk_2_30_00_20/examples/rtos/CC135
    2688                            .dwattr $C$DW$175, DW_AT_decl_line(0xbd)
    2689                            .dwattr $C$DW$175, DW_AT_decl_column(0x09)
    2690                    
    2691                    $C$DW$176       .dwtag  DW_TAG_member
    2692                            .dwattr $C$DW$176, DW_AT_type(*$C$DW$T$21)
    2693                            .dwattr $C$DW$176, DW_AT_name("keys")
    2694                            .dwattr $C$DW$176, DW_AT_TI_symbol_name("keys")
    2695                            .dwattr $C$DW$176, DW_AT_data_member_location[DW_OP_plus_uconst 0x3]
    2696                            .dwattr $C$DW$176, DW_AT_accessibility(DW_ACCESS_public)
    2697                            .dwattr $C$DW$176, DW_AT_decl_file("C:/ti/simplelink_cc13x0_sdk_2_30_00_20/examples/rtos/CC135
    2698                            .dwattr $C$DW$176, DW_AT_decl_line(0xbe)
    2699                            .dwattr $C$DW$176, DW_AT_decl_column(0x09)
    2700                    
    2701                            .dwattr $C$DW$T$87, DW_AT_decl_file("C:/ti/simplelink_cc13x0_sdk_2_30_00_20/examples/rtos/CC13
    2702                            .dwattr $C$DW$T$87, DW_AT_decl_line(0xbb)
    2703                            .dwattr $C$DW$T$87, DW_AT_decl_column(0x01)
    2704                            .dwendtag $C$DW$T$87
    2705                    
    2706                    $C$DW$T$197     .dwtag  DW_TAG_typedef
    2707                            .dwattr $C$DW$T$197, DW_AT_name("keyChange_t")
    2708                            .dwattr $C$DW$T$197, DW_AT_type(*$C$DW$T$87)
    2709                            .dwattr $C$DW$T$197, DW_AT_language(DW_LANG_C)
    2710                            .dwattr $C$DW$T$197, DW_AT_decl_file("C:/ti/simplelink_cc13x0_sdk_2_30_00_20/examples/rtos/CC1
    2711                            .dwattr $C$DW$T$197, DW_AT_decl_line(0xbf)
    2712                            .dwattr $C$DW$T$197, DW_AT_decl_column(0x03)
    2713                    
    2714                    
    2715                    $C$DW$T$90      .dwtag  DW_TAG_union_type
    2716                            .dwattr $C$DW$T$90, DW_AT_byte_size(0x04)
    2717                    $C$DW$177       .dwtag  DW_TAG_member
    2718                            .dwattr $C$DW$177, DW_AT_type(*$C$DW$T$22)
    2719                            .dwattr $C$DW$177, DW_AT_name("time32")
    2720                            .dwattr $C$DW$177, DW_AT_TI_symbol_name("time32")
    2721                            .dwattr $C$DW$177, DW_AT_data_member_location[DW_OP_plus_uconst 0x0]
    2722                            .dwattr $C$DW$177, DW_AT_accessibility(DW_ACCESS_public)
    2723                            .dwattr $C$DW$177, DW_AT_decl_file("../Application/MAC/OSAL/osal_timers.c")
    2724                            .dwattr $C$DW$177, DW_AT_decl_line(0x46)
    2725                            .dwattr $C$DW$177, DW_AT_decl_column(0x0a)
    2726                    
    2727                    $C$DW$178       .dwtag  DW_TAG_member
    2728                            .dwattr $C$DW$178, DW_AT_type(*$C$DW$T$88)
    2729                            .dwattr $C$DW$178, DW_AT_name("time16")
    2730                            .dwattr $C$DW$178, DW_AT_TI_symbol_name("time16")
    2731                            .dwattr $C$DW$178, DW_AT_data_member_location[DW_OP_plus_uconst 0x0]
    2732                            .dwattr $C$DW$178, DW_AT_accessibility(DW_ACCESS_public)
    2733                            .dwattr $C$DW$178, DW_AT_decl_file("../Application/MAC/OSAL/osal_timers.c")
    2734                            .dwattr $C$DW$178, DW_AT_decl_line(0x47)
    2735                            .dwattr $C$DW$178, DW_AT_decl_column(0x0a)
    2736                    
    2737                    $C$DW$179       .dwtag  DW_TAG_member
    2738                            .dwattr $C$DW$179, DW_AT_type(*$C$DW$T$89)
    2739                            .dwattr $C$DW$179, DW_AT_name("time8")
    2740                            .dwattr $C$DW$179, DW_AT_TI_symbol_name("time8")
TI ARM Assembler PC v16.9.8 Mon Dec 10 17:47:35 2018

Tools Copyright (c) 1996-2017 Texas Instruments Incorporated
C:\Users\Einstein\AppData\Local\Temp\{D8717E8C-C6B2-43EB-B59B-6498A87373A3} PAGE   51

    2741                            .dwattr $C$DW$179, DW_AT_data_member_location[DW_OP_plus_uconst 0x0]
    2742                            .dwattr $C$DW$179, DW_AT_accessibility(DW_ACCESS_public)
    2743                            .dwattr $C$DW$179, DW_AT_decl_file("../Application/MAC/OSAL/osal_timers.c")
    2744                            .dwattr $C$DW$179, DW_AT_decl_line(0x48)
    2745                            .dwattr $C$DW$179, DW_AT_decl_column(0x09)
    2746                    
    2747                            .dwattr $C$DW$T$90, DW_AT_decl_file("../Application/MAC/OSAL/osal_timers.c")
    2748                            .dwattr $C$DW$T$90, DW_AT_decl_line(0x45)
    2749                            .dwattr $C$DW$T$90, DW_AT_decl_column(0x0f)
    2750                            .dwendtag $C$DW$T$90
    2751                    
    2752                    $C$DW$T$19      .dwtag  DW_TAG_typedef
    2753                            .dwattr $C$DW$T$19, DW_AT_name("osalTime_t")
    2754                            .dwattr $C$DW$T$19, DW_AT_type(*$C$DW$T$90)
    2755                            .dwattr $C$DW$T$19, DW_AT_language(DW_LANG_C)
    2756                            .dwattr $C$DW$T$19, DW_AT_decl_file("../Application/MAC/OSAL/osal_timers.c")
    2757                            .dwattr $C$DW$T$19, DW_AT_decl_line(0x49)
    2758                            .dwattr $C$DW$T$19, DW_AT_decl_column(0x03)
    2759                    
    2760                    
    2761                    $C$DW$T$95      .dwtag  DW_TAG_union_type
    2762                            .dwattr $C$DW$T$95, DW_AT_byte_size(0x02)
    2763                    $C$DW$180       .dwtag  DW_TAG_member
    2764                            .dwattr $C$DW$180, DW_AT_type(*$C$DW$T$92)
    2765                            .dwattr $C$DW$180, DW_AT_name("entityId")
    2766                            .dwattr $C$DW$180, DW_AT_TI_symbol_name("entityId")
    2767                            .dwattr $C$DW$180, DW_AT_data_member_location[DW_OP_plus_uconst 0x0]
    2768                            .dwattr $C$DW$180, DW_AT_accessibility(DW_ACCESS_public)
    2769                            .dwattr $C$DW$180, DW_AT_decl_file("C:/ti/simplelink_cc13x0_sdk_2_30_00_20/source/ti/ti154stac
    2770                            .dwattr $C$DW$180, DW_AT_decl_line(0x1fe)
    2771                            .dwattr $C$DW$180, DW_AT_decl_column(0x14)
    2772                    
    2773                    $C$DW$181       .dwtag  DW_TAG_member
    2774                            .dwattr $C$DW$181, DW_AT_type(*$C$DW$T$94)
    2775                            .dwattr $C$DW$181, DW_AT_name("servId")
    2776                            .dwattr $C$DW$181, DW_AT_TI_symbol_name("servId")
    2777                            .dwattr $C$DW$181, DW_AT_data_member_location[DW_OP_plus_uconst 0x0]
    2778                            .dwattr $C$DW$181, DW_AT_accessibility(DW_ACCESS_public)
    2779                            .dwattr $C$DW$181, DW_AT_decl_file("C:/ti/simplelink_cc13x0_sdk_2_30_00_20/source/ti/ti154stac
    2780                            .dwattr $C$DW$181, DW_AT_decl_line(0x200)
    2781                            .dwattr $C$DW$181, DW_AT_decl_column(0x17)
    2782                    
    2783                            .dwattr $C$DW$T$95, DW_AT_decl_file("C:/ti/simplelink_cc13x0_sdk_2_30_00_20/source/ti/ti154sta
    2784                            .dwattr $C$DW$T$95, DW_AT_decl_line(0x1fc)
    2785                            .dwattr $C$DW$T$95, DW_AT_decl_column(0x03)
    2786                            .dwendtag $C$DW$T$95
    2787                    
    2788                    
    2789                    $C$DW$T$96      .dwtag  DW_TAG_union_type
    2790                            .dwattr $C$DW$T$96, DW_AT_byte_size(0x02)
    2791                    $C$DW$182       .dwtag  DW_TAG_member
    2792                            .dwattr $C$DW$182, DW_AT_type(*$C$DW$T$94)
    2793                            .dwattr $C$DW$182, DW_AT_name("servId")
    2794                            .dwattr $C$DW$182, DW_AT_TI_symbol_name("servId")
    2795                            .dwattr $C$DW$182, DW_AT_data_member_location[DW_OP_plus_uconst 0x0]
TI ARM Assembler PC v16.9.8 Mon Dec 10 17:47:35 2018

Tools Copyright (c) 1996-2017 Texas Instruments Incorporated
C:\Users\Einstein\AppData\Local\Temp\{D8717E8C-C6B2-43EB-B59B-6498A87373A3} PAGE   52

    2796                            .dwattr $C$DW$182, DW_AT_accessibility(DW_ACCESS_public)
    2797                            .dwattr $C$DW$182, DW_AT_decl_file("C:/ti/simplelink_cc13x0_sdk_2_30_00_20/source/ti/ti154stac
    2798                            .dwattr $C$DW$182, DW_AT_decl_line(0x211)
    2799                            .dwattr $C$DW$182, DW_AT_decl_column(0x17)
    2800                    
    2801                    $C$DW$183       .dwtag  DW_TAG_member
    2802                            .dwattr $C$DW$183, DW_AT_type(*$C$DW$T$92)
    2803                            .dwattr $C$DW$183, DW_AT_name("entityId")
    2804                            .dwattr $C$DW$183, DW_AT_TI_symbol_name("entityId")
    2805                            .dwattr $C$DW$183, DW_AT_data_member_location[DW_OP_plus_uconst 0x0]
    2806                            .dwattr $C$DW$183, DW_AT_accessibility(DW_ACCESS_public)
    2807                            .dwattr $C$DW$183, DW_AT_decl_file("C:/ti/simplelink_cc13x0_sdk_2_30_00_20/source/ti/ti154stac
    2808                            .dwattr $C$DW$183, DW_AT_decl_line(0x213)
    2809                            .dwattr $C$DW$183, DW_AT_decl_column(0x14)
    2810                    
    2811                            .dwattr $C$DW$T$96, DW_AT_decl_file("C:/ti/simplelink_cc13x0_sdk_2_30_00_20/source/ti/ti154sta
    2812                            .dwattr $C$DW$T$96, DW_AT_decl_line(0x20f)
    2813                            .dwattr $C$DW$T$96, DW_AT_decl_column(0x03)
    2814                            .dwendtag $C$DW$T$96
    2815                    
    2816                    
    2817                    $C$DW$T$97      .dwtag  DW_TAG_union_type
    2818                            .dwattr $C$DW$T$97, DW_AT_byte_size(0x02)
    2819                    $C$DW$184       .dwtag  DW_TAG_member
    2820                            .dwattr $C$DW$184, DW_AT_type(*$C$DW$T$79)
    2821                            .dwattr $C$DW$184, DW_AT_name("paramCTS")
    2822                            .dwattr $C$DW$184, DW_AT_TI_symbol_name("paramCTS")
    2823                            .dwattr $C$DW$184, DW_AT_data_member_location[DW_OP_plus_uconst 0x0]
    2824                            .dwattr $C$DW$184, DW_AT_accessibility(DW_ACCESS_public)
    2825                            .dwattr $C$DW$184, DW_AT_decl_file("C:/ti/simplelink_cc13x0_sdk_2_30_00_20/source/ti/ti154stac
    2826                            .dwattr $C$DW$184, DW_AT_decl_line(0x96)
    2827                            .dwattr $C$DW$184, DW_AT_decl_column(0x08)
    2828                    
    2829                    $C$DW$185       .dwtag  DW_TAG_member
    2830                            .dwattr $C$DW$185, DW_AT_type(*$C$DW$T$79)
    2831                            .dwattr $C$DW$185, DW_AT_name("paramRTS")
    2832                            .dwattr $C$DW$185, DW_AT_TI_symbol_name("paramRTS")
    2833                            .dwattr $C$DW$185, DW_AT_data_member_location[DW_OP_plus_uconst 0x0]
    2834                            .dwattr $C$DW$185, DW_AT_accessibility(DW_ACCESS_public)
    2835                            .dwattr $C$DW$185, DW_AT_decl_file("C:/ti/simplelink_cc13x0_sdk_2_30_00_20/source/ti/ti154stac
    2836                            .dwattr $C$DW$185, DW_AT_decl_line(0x97)
    2837                            .dwattr $C$DW$185, DW_AT_decl_column(0x08)
    2838                    
    2839                    $C$DW$186       .dwtag  DW_TAG_member
    2840                            .dwattr $C$DW$186, DW_AT_type(*$C$DW$T$79)
    2841                            .dwattr $C$DW$186, DW_AT_name("paramDSR")
    2842                            .dwattr $C$DW$186, DW_AT_TI_symbol_name("paramDSR")
    2843                            .dwattr $C$DW$186, DW_AT_data_member_location[DW_OP_plus_uconst 0x0]
    2844                            .dwattr $C$DW$186, DW_AT_accessibility(DW_ACCESS_public)
    2845                            .dwattr $C$DW$186, DW_AT_decl_file("C:/ti/simplelink_cc13x0_sdk_2_30_00_20/source/ti/ti154stac
    2846                            .dwattr $C$DW$186, DW_AT_decl_line(0x98)
    2847                            .dwattr $C$DW$186, DW_AT_decl_column(0x08)
    2848                    
    2849                    $C$DW$187       .dwtag  DW_TAG_member
    2850                            .dwattr $C$DW$187, DW_AT_type(*$C$DW$T$79)
TI ARM Assembler PC v16.9.8 Mon Dec 10 17:47:35 2018

Tools Copyright (c) 1996-2017 Texas Instruments Incorporated
C:\Users\Einstein\AppData\Local\Temp\{D8717E8C-C6B2-43EB-B59B-6498A87373A3} PAGE   53

    2851                            .dwattr $C$DW$187, DW_AT_name("paramDTR")
    2852                            .dwattr $C$DW$187, DW_AT_TI_symbol_name("paramDTR")
    2853                            .dwattr $C$DW$187, DW_AT_data_member_location[DW_OP_plus_uconst 0x0]
    2854                            .dwattr $C$DW$187, DW_AT_accessibility(DW_ACCESS_public)
    2855                            .dwattr $C$DW$187, DW_AT_decl_file("C:/ti/simplelink_cc13x0_sdk_2_30_00_20/source/ti/ti154stac
    2856                            .dwattr $C$DW$187, DW_AT_decl_line(0x99)
    2857                            .dwattr $C$DW$187, DW_AT_decl_column(0x08)
    2858                    
    2859                    $C$DW$188       .dwtag  DW_TAG_member
    2860                            .dwattr $C$DW$188, DW_AT_type(*$C$DW$T$79)
    2861                            .dwattr $C$DW$188, DW_AT_name("paramCD")
    2862                            .dwattr $C$DW$188, DW_AT_TI_symbol_name("paramCD")
    2863                            .dwattr $C$DW$188, DW_AT_data_member_location[DW_OP_plus_uconst 0x0]
    2864                            .dwattr $C$DW$188, DW_AT_accessibility(DW_ACCESS_public)
    2865                            .dwattr $C$DW$188, DW_AT_decl_file("C:/ti/simplelink_cc13x0_sdk_2_30_00_20/source/ti/ti154stac
    2866                            .dwattr $C$DW$188, DW_AT_decl_line(0x9a)
    2867                            .dwattr $C$DW$188, DW_AT_decl_column(0x08)
    2868                    
    2869                    $C$DW$189       .dwtag  DW_TAG_member
    2870                            .dwattr $C$DW$189, DW_AT_type(*$C$DW$T$79)
    2871                            .dwattr $C$DW$189, DW_AT_name("paramRI")
    2872                            .dwattr $C$DW$189, DW_AT_TI_symbol_name("paramRI")
    2873                            .dwattr $C$DW$189, DW_AT_data_member_location[DW_OP_plus_uconst 0x0]
    2874                            .dwattr $C$DW$189, DW_AT_accessibility(DW_ACCESS_public)
    2875                            .dwattr $C$DW$189, DW_AT_decl_file("C:/ti/simplelink_cc13x0_sdk_2_30_00_20/source/ti/ti154stac
    2876                            .dwattr $C$DW$189, DW_AT_decl_line(0x9b)
    2877                            .dwattr $C$DW$189, DW_AT_decl_column(0x08)
    2878                    
    2879                    $C$DW$190       .dwtag  DW_TAG_member
    2880                            .dwattr $C$DW$190, DW_AT_type(*$C$DW$T$20)
    2881                            .dwattr $C$DW$190, DW_AT_name("baudRate")
    2882                            .dwattr $C$DW$190, DW_AT_TI_symbol_name("baudRate")
    2883                            .dwattr $C$DW$190, DW_AT_data_member_location[DW_OP_plus_uconst 0x0]
    2884                            .dwattr $C$DW$190, DW_AT_accessibility(DW_ACCESS_public)
    2885                            .dwattr $C$DW$190, DW_AT_decl_file("C:/ti/simplelink_cc13x0_sdk_2_30_00_20/source/ti/ti154stac
    2886                            .dwattr $C$DW$190, DW_AT_decl_line(0x9c)
    2887                            .dwattr $C$DW$190, DW_AT_decl_column(0x0a)
    2888                    
    2889                    $C$DW$191       .dwtag  DW_TAG_member
    2890                            .dwattr $C$DW$191, DW_AT_type(*$C$DW$T$79)
    2891                            .dwattr $C$DW$191, DW_AT_name("flowControl")
    2892                            .dwattr $C$DW$191, DW_AT_TI_symbol_name("flowControl")
    2893                            .dwattr $C$DW$191, DW_AT_data_member_location[DW_OP_plus_uconst 0x0]
    2894                            .dwattr $C$DW$191, DW_AT_accessibility(DW_ACCESS_public)
    2895                            .dwattr $C$DW$191, DW_AT_decl_file("C:/ti/simplelink_cc13x0_sdk_2_30_00_20/source/ti/ti154stac
    2896                            .dwattr $C$DW$191, DW_AT_decl_line(0x9d)
    2897                            .dwattr $C$DW$191, DW_AT_decl_column(0x08)
    2898                    
    2899                    $C$DW$192       .dwtag  DW_TAG_member
    2900                            .dwattr $C$DW$192, DW_AT_type(*$C$DW$T$79)
    2901                            .dwattr $C$DW$192, DW_AT_name("flushControl")
    2902                            .dwattr $C$DW$192, DW_AT_TI_symbol_name("flushControl")
    2903                            .dwattr $C$DW$192, DW_AT_data_member_location[DW_OP_plus_uconst 0x0]
    2904                            .dwattr $C$DW$192, DW_AT_accessibility(DW_ACCESS_public)
    2905                            .dwattr $C$DW$192, DW_AT_decl_file("C:/ti/simplelink_cc13x0_sdk_2_30_00_20/source/ti/ti154stac
TI ARM Assembler PC v16.9.8 Mon Dec 10 17:47:35 2018

Tools Copyright (c) 1996-2017 Texas Instruments Incorporated
C:\Users\Einstein\AppData\Local\Temp\{D8717E8C-C6B2-43EB-B59B-6498A87373A3} PAGE   54

    2906                            .dwattr $C$DW$192, DW_AT_decl_line(0x9e)
    2907                            .dwattr $C$DW$192, DW_AT_decl_column(0x08)
    2908                    
    2909                            .dwattr $C$DW$T$97, DW_AT_decl_file("C:/ti/simplelink_cc13x0_sdk_2_30_00_20/source/ti/ti154sta
    2910                            .dwattr $C$DW$T$97, DW_AT_decl_line(0x95)
    2911                            .dwattr $C$DW$T$97, DW_AT_decl_column(0x01)
    2912                            .dwendtag $C$DW$T$97
    2913                    
    2914                    $C$DW$T$199     .dwtag  DW_TAG_typedef
    2915                            .dwattr $C$DW$T$199, DW_AT_name("halUARTIoctl_t")
    2916                            .dwattr $C$DW$T$199, DW_AT_type(*$C$DW$T$97)
    2917                            .dwattr $C$DW$T$199, DW_AT_language(DW_LANG_C)
    2918                            .dwattr $C$DW$T$199, DW_AT_decl_file("C:/ti/simplelink_cc13x0_sdk_2_30_00_20/source/ti/ti154st
    2919                            .dwattr $C$DW$T$199, DW_AT_decl_line(0x9f)
    2920                            .dwattr $C$DW$T$199, DW_AT_decl_column(0x02)
    2921                    
    2922                    
    2923                    $C$DW$T$99      .dwtag  DW_TAG_structure_type
    2924                            .dwattr $C$DW$T$99, DW_AT_name(".ggroup1")
    2925                            .dwattr $C$DW$T$99, DW_AT_byte_size(0x08)
    2926                    $C$DW$193       .dwtag  DW_TAG_member
    2927                            .dwattr $C$DW$193, DW_AT_type(*$C$DW$T$98)
    2928                            .dwattr $C$DW$193, DW_AT_name("timerHead")
    2929                            .dwattr $C$DW$193, DW_AT_TI_symbol_name("timerHead")
    2930                            .dwattr $C$DW$193, DW_AT_data_member_location[DW_OP_plus_uconst 0x0]
    2931                            .dwattr $C$DW$193, DW_AT_accessibility(DW_ACCESS_public)
    2932                    
    2933                    $C$DW$194       .dwtag  DW_TAG_member
    2934                            .dwattr $C$DW$194, DW_AT_type(*$C$DW$T$11)
    2935                            .dwattr $C$DW$194, DW_AT_name("osal_systemClock")
    2936                            .dwattr $C$DW$194, DW_AT_TI_symbol_name("osal_systemClock")
    2937                            .dwattr $C$DW$194, DW_AT_data_member_location[DW_OP_plus_uconst 0x4]
    2938                            .dwattr $C$DW$194, DW_AT_accessibility(DW_ACCESS_public)
    2939                    
    2940                            .dwendtag $C$DW$T$99
    2941                    
    2942                    
    2943                    $C$DW$T$100     .dwtag  DW_TAG_structure_type
    2944                            .dwattr $C$DW$T$100, DW_AT_name("_ICall_LiteCmdStatus_")
    2945                            .dwattr $C$DW$T$100, DW_AT_byte_size(0x01)
    2946                    $C$DW$195       .dwtag  DW_TAG_member
    2947                            .dwattr $C$DW$195, DW_AT_type(*$C$DW$T$91)
    2948                            .dwattr $C$DW$195, DW_AT_name("cmdId")
    2949                            .dwattr $C$DW$195, DW_AT_TI_symbol_name("cmdId")
    2950                            .dwattr $C$DW$195, DW_AT_data_member_location[DW_OP_plus_uconst 0x0]
    2951                            .dwattr $C$DW$195, DW_AT_accessibility(DW_ACCESS_public)
    2952                            .dwattr $C$DW$195, DW_AT_decl_file("C:/ti/simplelink_cc13x0_sdk_2_30_00_20/source/ti/ti154stac
    2953                            .dwattr $C$DW$195, DW_AT_decl_line(0x3f0)
    2954                            .dwattr $C$DW$195, DW_AT_decl_column(0x11)
    2955                    
    2956                            .dwattr $C$DW$T$100, DW_AT_decl_file("C:/ti/simplelink_cc13x0_sdk_2_30_00_20/source/ti/ti154st
    2957                            .dwattr $C$DW$T$100, DW_AT_decl_line(0x3ee)
    2958                            .dwattr $C$DW$T$100, DW_AT_decl_column(0x10)
    2959                            .dwendtag $C$DW$T$100
    2960                    
TI ARM Assembler PC v16.9.8 Mon Dec 10 17:47:35 2018

Tools Copyright (c) 1996-2017 Texas Instruments Incorporated
C:\Users\Einstein\AppData\Local\Temp\{D8717E8C-C6B2-43EB-B59B-6498A87373A3} PAGE   55

    2961                    $C$DW$T$201     .dwtag  DW_TAG_typedef
    2962                            .dwattr $C$DW$T$201, DW_AT_name("ICall_LiteCmdStatus")
    2963                            .dwattr $C$DW$T$201, DW_AT_type(*$C$DW$T$100)
    2964                            .dwattr $C$DW$T$201, DW_AT_language(DW_LANG_C)
    2965                            .dwattr $C$DW$T$201, DW_AT_decl_file("C:/ti/simplelink_cc13x0_sdk_2_30_00_20/source/ti/ti154st
    2966                            .dwattr $C$DW$T$201, DW_AT_decl_line(0x3f1)
    2967                            .dwattr $C$DW$T$201, DW_AT_decl_column(0x03)
    2968                    
    2969                    $C$DW$T$2       .dwtag  DW_TAG_unspecified_type
    2970                            .dwattr $C$DW$T$2, DW_AT_name("void")
    2971                    
    2972                    $C$DW$T$3       .dwtag  DW_TAG_pointer_type
    2973                            .dwattr $C$DW$T$3, DW_AT_type(*$C$DW$T$2)
    2974                            .dwattr $C$DW$T$3, DW_AT_address_class(0x20)
    2975                    
    2976                    $C$DW$T$202     .dwtag  DW_TAG_typedef
    2977                            .dwattr $C$DW$T$202, DW_AT_name("ICall_Semaphore")
    2978                            .dwattr $C$DW$T$202, DW_AT_type(*$C$DW$T$3)
    2979                            .dwattr $C$DW$T$202, DW_AT_language(DW_LANG_C)
    2980                            .dwattr $C$DW$T$202, DW_AT_decl_file("C:/ti/simplelink_cc13x0_sdk_2_30_00_20/source/ti/ti154st
    2981                            .dwattr $C$DW$T$202, DW_AT_decl_line(0x1ac)
    2982                            .dwattr $C$DW$T$202, DW_AT_decl_column(0x0f)
    2983                    
    2984                    $C$DW$T$114     .dwtag  DW_TAG_typedef
    2985                            .dwattr $C$DW$T$114, DW_AT_name("ICall_SyncHandle")
    2986                            .dwattr $C$DW$T$114, DW_AT_type(*$C$DW$T$3)
    2987                            .dwattr $C$DW$T$114, DW_AT_language(DW_LANG_C)
    2988                            .dwattr $C$DW$T$114, DW_AT_decl_file("C:/ti/simplelink_cc13x0_sdk_2_30_00_20/source/ti/ti154st
    2989                            .dwattr $C$DW$T$114, DW_AT_decl_line(0x1aa)
    2990                            .dwattr $C$DW$T$114, DW_AT_decl_column(0x0f)
    2991                    
    2992                    $C$DW$T$158     .dwtag  DW_TAG_typedef
    2993                            .dwattr $C$DW$T$158, DW_AT_name("ICall_TimerID")
    2994                            .dwattr $C$DW$T$158, DW_AT_type(*$C$DW$T$3)
    2995                            .dwattr $C$DW$T$158, DW_AT_language(DW_LANG_C)
    2996                            .dwattr $C$DW$T$158, DW_AT_decl_file("C:/ti/simplelink_cc13x0_sdk_2_30_00_20/source/ti/ti154st
    2997                            .dwattr $C$DW$T$158, DW_AT_decl_line(0x1b7)
    2998                            .dwattr $C$DW$T$158, DW_AT_decl_column(0x0f)
    2999                    
    3000                    $C$DW$T$206     .dwtag  DW_TAG_typedef
    3001                            .dwattr $C$DW$T$206, DW_AT_name("osal_msg_q_t")
    3002                            .dwattr $C$DW$T$206, DW_AT_type(*$C$DW$T$3)
    3003                            .dwattr $C$DW$T$206, DW_AT_language(DW_LANG_C)
    3004                            .dwattr $C$DW$T$206, DW_AT_decl_file("C:/ti/simplelink_cc13x0_sdk_2_30_00_20/source/ti/ti154st
    3005                            .dwattr $C$DW$T$206, DW_AT_decl_line(0x7d)
    3006                            .dwattr $C$DW$T$206, DW_AT_decl_column(0x10)
    3007                    
    3008                    
    3009                    $C$DW$T$39      .dwtag  DW_TAG_subroutine_type
    3010                            .dwattr $C$DW$T$39, DW_AT_language(DW_LANG_C)
    3011                            .dwendtag $C$DW$T$39
    3012                    
    3013                    $C$DW$T$40      .dwtag  DW_TAG_pointer_type
    3014                            .dwattr $C$DW$T$40, DW_AT_type(*$C$DW$T$39)
    3015                            .dwattr $C$DW$T$40, DW_AT_address_class(0x20)
TI ARM Assembler PC v16.9.8 Mon Dec 10 17:47:35 2018

Tools Copyright (c) 1996-2017 Texas Instruments Incorporated
C:\Users\Einstein\AppData\Local\Temp\{D8717E8C-C6B2-43EB-B59B-6498A87373A3} PAGE   56

    3016                    
    3017                    $C$DW$T$174     .dwtag  DW_TAG_typedef
    3018                            .dwattr $C$DW$T$174, DW_AT_name("APPASRTINTF_callAssrtHndler")
    3019                            .dwattr $C$DW$T$174, DW_AT_type(*$C$DW$T$40)
    3020                            .dwattr $C$DW$T$174, DW_AT_language(DW_LANG_C)
    3021                            .dwattr $C$DW$T$174, DW_AT_decl_file("C:/ti/simplelink_cc13x0_sdk_2_30_00_20/source/ti/ti154st
    3022                            .dwattr $C$DW$T$174, DW_AT_decl_line(0x43)
    3023                            .dwattr $C$DW$T$174, DW_AT_decl_column(0x10)
    3024                    
    3025                    $C$DW$T$58      .dwtag  DW_TAG_typedef
    3026                            .dwattr $C$DW$T$58, DW_AT_name("FPTR_HFSOURCESAFESWITCH_T")
    3027                            .dwattr $C$DW$T$58, DW_AT_type(*$C$DW$T$40)
    3028                            .dwattr $C$DW$T$58, DW_AT_language(DW_LANG_C)
    3029                            .dwattr $C$DW$T$58, DW_AT_decl_file("C:\ti\simplelink_cc13x0_sdk_2_30_00_20\source\ti\devices\
    3030                            .dwattr $C$DW$T$58, DW_AT_decl_line(0x5f)
    3031                            .dwattr $C$DW$T$58, DW_AT_decl_column(0x19)
    3032                    
    3033                    $C$DW$T$41      .dwtag  DW_TAG_typedef
    3034                            .dwattr $C$DW$T$41, DW_AT_name("FPTR_RESETDEV_T")
    3035                            .dwattr $C$DW$T$41, DW_AT_type(*$C$DW$T$40)
    3036                            .dwattr $C$DW$T$41, DW_AT_language(DW_LANG_C)
    3037                            .dwattr $C$DW$T$41, DW_AT_decl_file("C:\ti\simplelink_cc13x0_sdk_2_30_00_20\source\ti\devices\
    3038                            .dwattr $C$DW$T$41, DW_AT_decl_line(0x4d)
    3039                            .dwattr $C$DW$T$41, DW_AT_decl_column(0x19)
    3040                    
    3041                    $C$DW$T$207     .dwtag  DW_TAG_typedef
    3042                            .dwattr $C$DW$T$207, DW_AT_name("FPTR_VOID_VOID_T")
    3043                            .dwattr $C$DW$T$207, DW_AT_type(*$C$DW$T$40)
    3044                            .dwattr $C$DW$T$207, DW_AT_language(DW_LANG_C)
    3045                            .dwattr $C$DW$T$207, DW_AT_decl_file("C:/ti/simplelink_cc13x0_sdk_2_30_00_20/source/ti/devices
    3046                            .dwattr $C$DW$T$207, DW_AT_decl_line(0x33)
    3047                            .dwattr $C$DW$T$207, DW_AT_decl_column(0x11)
    3048                    
    3049                    $C$DW$T$208     .dwtag  DW_TAG_typedef
    3050                            .dwattr $C$DW$T$208, DW_AT_name("__TI_atexit_fn")
    3051                            .dwattr $C$DW$T$208, DW_AT_type(*$C$DW$T$40)
    3052                            .dwattr $C$DW$T$208, DW_AT_language(DW_LANG_C)
    3053                            .dwattr $C$DW$T$208, DW_AT_decl_file("C:/ti/ccsv7/tools/compiler/ti-cgt-arm_16.9.8.LTS/include
    3054                            .dwattr $C$DW$T$208, DW_AT_decl_line(0xb9)
    3055                            .dwattr $C$DW$T$208, DW_AT_decl_column(0x14)
    3056                    
    3057                    
    3058                    $C$DW$T$54      .dwtag  DW_TAG_subroutine_type
    3059                            .dwattr $C$DW$T$54, DW_AT_language(DW_LANG_C)
    3060                    $C$DW$196       .dwtag  DW_TAG_formal_parameter
    3061                            .dwattr $C$DW$196, DW_AT_type(*$C$DW$T$24)
    3062                    
    3063                            .dwendtag $C$DW$T$54
    3064                    
    3065                    $C$DW$T$55      .dwtag  DW_TAG_pointer_type
    3066                            .dwattr $C$DW$T$55, DW_AT_type(*$C$DW$T$54)
    3067                            .dwattr $C$DW$T$55, DW_AT_address_class(0x20)
    3068                    
    3069                    $C$DW$T$56      .dwtag  DW_TAG_typedef
    3070                            .dwattr $C$DW$T$56, DW_AT_name("FPTR_RESERVED4_T")
TI ARM Assembler PC v16.9.8 Mon Dec 10 17:47:35 2018

Tools Copyright (c) 1996-2017 Texas Instruments Incorporated
C:\Users\Einstein\AppData\Local\Temp\{D8717E8C-C6B2-43EB-B59B-6498A87373A3} PAGE   57

    3071                            .dwattr $C$DW$T$56, DW_AT_type(*$C$DW$T$55)
    3072                            .dwattr $C$DW$T$56, DW_AT_language(DW_LANG_C)
    3073                            .dwattr $C$DW$T$56, DW_AT_decl_file("C:\ti\simplelink_cc13x0_sdk_2_30_00_20\source\ti\devices\
    3074                            .dwattr $C$DW$T$56, DW_AT_decl_line(0x61)
    3075                            .dwattr $C$DW$T$56, DW_AT_decl_column(0x19)
    3076                    
    3077                    $C$DW$T$57      .dwtag  DW_TAG_typedef
    3078                            .dwattr $C$DW$T$57, DW_AT_name("FPTR_RESERVED5_T")
    3079                            .dwattr $C$DW$T$57, DW_AT_type(*$C$DW$T$55)
    3080                            .dwattr $C$DW$T$57, DW_AT_language(DW_LANG_C)
    3081                            .dwattr $C$DW$T$57, DW_AT_decl_file("C:\ti\simplelink_cc13x0_sdk_2_30_00_20\source\ti\devices\
    3082                            .dwattr $C$DW$T$57, DW_AT_decl_line(0x63)
    3083                            .dwattr $C$DW$T$57, DW_AT_decl_column(0x19)
    3084                    
    3085                    
    3086                    $C$DW$T$59      .dwtag  DW_TAG_subroutine_type
    3087                            .dwattr $C$DW$T$59, DW_AT_language(DW_LANG_C)
    3088                    $C$DW$197       .dwtag  DW_TAG_formal_parameter
    3089                            .dwattr $C$DW$197, DW_AT_type(*$C$DW$T$25)
    3090                    
    3091                            .dwendtag $C$DW$T$59
    3092                    
    3093                    $C$DW$T$60      .dwtag  DW_TAG_pointer_type
    3094                            .dwattr $C$DW$T$60, DW_AT_type(*$C$DW$T$59)
    3095                            .dwattr $C$DW$T$60, DW_AT_address_class(0x20)
    3096                    
    3097                    $C$DW$T$63      .dwtag  DW_TAG_typedef
    3098                            .dwattr $C$DW$T$63, DW_AT_name("FPTR_ADCCOMPBIN_T")
    3099                            .dwattr $C$DW$T$63, DW_AT_type(*$C$DW$T$60)
    3100                            .dwattr $C$DW$T$63, DW_AT_language(DW_LANG_C)
    3101                            .dwattr $C$DW$T$63, DW_AT_decl_file("C:\ti\simplelink_cc13x0_sdk_2_30_00_20\source\ti\devices\
    3102                            .dwattr $C$DW$T$63, DW_AT_decl_line(0x69)
    3103                            .dwattr $C$DW$T$63, DW_AT_decl_column(0x19)
    3104                    
    3105                    $C$DW$T$61      .dwtag  DW_TAG_typedef
    3106                            .dwattr $C$DW$T$61, DW_AT_name("FPTR_COMPAIN_T")
    3107                            .dwattr $C$DW$T$61, DW_AT_type(*$C$DW$T$60)
    3108                            .dwattr $C$DW$T$61, DW_AT_language(DW_LANG_C)
    3109                            .dwattr $C$DW$T$61, DW_AT_decl_file("C:\ti\simplelink_cc13x0_sdk_2_30_00_20\source\ti\devices\
    3110                            .dwattr $C$DW$T$61, DW_AT_decl_line(0x65)
    3111                            .dwattr $C$DW$T$61, DW_AT_decl_column(0x19)
    3112                    
    3113                    $C$DW$T$62      .dwtag  DW_TAG_typedef
    3114                            .dwattr $C$DW$T$62, DW_AT_name("FPTR_COMPAREF_T")
    3115                            .dwattr $C$DW$T$62, DW_AT_type(*$C$DW$T$60)
    3116                            .dwattr $C$DW$T$62, DW_AT_language(DW_LANG_C)
    3117                            .dwattr $C$DW$T$62, DW_AT_decl_file("C:\ti\simplelink_cc13x0_sdk_2_30_00_20\source\ti\devices\
    3118                            .dwattr $C$DW$T$62, DW_AT_decl_line(0x67)
    3119                            .dwattr $C$DW$T$62, DW_AT_decl_column(0x19)
    3120                    
    3121                    $C$DW$T$64      .dwtag  DW_TAG_typedef
    3122                            .dwattr $C$DW$T$64, DW_AT_name("FPTR_COMPBREF_T")
    3123                            .dwattr $C$DW$T$64, DW_AT_type(*$C$DW$T$60)
    3124                            .dwattr $C$DW$T$64, DW_AT_language(DW_LANG_C)
    3125                            .dwattr $C$DW$T$64, DW_AT_decl_file("C:\ti\simplelink_cc13x0_sdk_2_30_00_20\source\ti\devices\
TI ARM Assembler PC v16.9.8 Mon Dec 10 17:47:35 2018

Tools Copyright (c) 1996-2017 Texas Instruments Incorporated
C:\Users\Einstein\AppData\Local\Temp\{D8717E8C-C6B2-43EB-B59B-6498A87373A3} PAGE   58

    3126                            .dwattr $C$DW$T$64, DW_AT_decl_line(0x6b)
    3127                            .dwattr $C$DW$T$64, DW_AT_decl_column(0x19)
    3128                    
    3129                    $C$DW$T$209     .dwtag  DW_TAG_typedef
    3130                            .dwattr $C$DW$T$209, DW_AT_name("FPTR_VOID_UINT8_T")
    3131                            .dwattr $C$DW$T$209, DW_AT_type(*$C$DW$T$60)
    3132                            .dwattr $C$DW$T$209, DW_AT_language(DW_LANG_C)
    3133                            .dwattr $C$DW$T$209, DW_AT_decl_file("C:/ti/simplelink_cc13x0_sdk_2_30_00_20/source/ti/devices
    3134                            .dwattr $C$DW$T$209, DW_AT_decl_line(0x34)
    3135                            .dwattr $C$DW$T$209, DW_AT_decl_column(0x11)
    3136                    
    3137                    
    3138                    $C$DW$T$81      .dwtag  DW_TAG_subroutine_type
    3139                            .dwattr $C$DW$T$81, DW_AT_language(DW_LANG_C)
    3140                    $C$DW$198       .dwtag  DW_TAG_formal_parameter
    3141                            .dwattr $C$DW$198, DW_AT_type(*$C$DW$T$21)
    3142                    
    3143                    $C$DW$199       .dwtag  DW_TAG_formal_parameter
    3144                            .dwattr $C$DW$199, DW_AT_type(*$C$DW$T$21)
    3145                    
    3146                            .dwendtag $C$DW$T$81
    3147                    
    3148                    $C$DW$T$82      .dwtag  DW_TAG_pointer_type
    3149                            .dwattr $C$DW$T$82, DW_AT_type(*$C$DW$T$81)
    3150                            .dwattr $C$DW$T$82, DW_AT_address_class(0x20)
    3151                    
    3152                    $C$DW$T$210     .dwtag  DW_TAG_typedef
    3153                            .dwattr $C$DW$T$210, DW_AT_name("assertCback_t")
    3154                            .dwattr $C$DW$T$210, DW_AT_type(*$C$DW$T$82)
    3155                            .dwattr $C$DW$T$210, DW_AT_language(DW_LANG_C)
    3156                            .dwattr $C$DW$T$210, DW_AT_decl_file("C:/ti/simplelink_cc13x0_sdk_2_30_00_20/source/ti/ti154st
    3157                            .dwattr $C$DW$T$210, DW_AT_decl_line(0xd3)
    3158                            .dwattr $C$DW$T$210, DW_AT_decl_column(0x10)
    3159                    
    3160                    $C$DW$T$83      .dwtag  DW_TAG_typedef
    3161                            .dwattr $C$DW$T$83, DW_AT_name("halUARTCBack_t")
    3162                            .dwattr $C$DW$T$83, DW_AT_type(*$C$DW$T$82)
    3163                            .dwattr $C$DW$T$83, DW_AT_language(DW_LANG_C)
    3164                            .dwattr $C$DW$T$83, DW_AT_decl_file("C:/ti/simplelink_cc13x0_sdk_2_30_00_20/source/ti/ti154sta
    3165                            .dwattr $C$DW$T$83, DW_AT_decl_line(0x7b)
    3166                            .dwattr $C$DW$T$83, DW_AT_decl_column(0x10)
    3167                    
    3168                    
    3169                    $C$DW$T$104     .dwtag  DW_TAG_subroutine_type
    3170                            .dwattr $C$DW$T$104, DW_AT_language(DW_LANG_C)
    3171                    $C$DW$200       .dwtag  DW_TAG_formal_parameter
    3172                            .dwattr $C$DW$200, DW_AT_type(*$C$DW$T$102)
    3173                    
    3174                            .dwendtag $C$DW$T$104
    3175                    
    3176                    $C$DW$T$105     .dwtag  DW_TAG_pointer_type
    3177                            .dwattr $C$DW$T$105, DW_AT_type(*$C$DW$T$104)
    3178                            .dwattr $C$DW$T$105, DW_AT_address_class(0x20)
    3179                    
    3180                    
TI ARM Assembler PC v16.9.8 Mon Dec 10 17:47:35 2018

Tools Copyright (c) 1996-2017 Texas Instruments Incorporated
C:\Users\Einstein\AppData\Local\Temp\{D8717E8C-C6B2-43EB-B59B-6498A87373A3} PAGE   59

    3181                    $C$DW$T$136     .dwtag  DW_TAG_subroutine_type
    3182                            .dwattr $C$DW$T$136, DW_AT_language(DW_LANG_C)
    3183                    $C$DW$201       .dwtag  DW_TAG_formal_parameter
    3184                            .dwattr $C$DW$201, DW_AT_type(*$C$DW$T$134)
    3185                    
    3186                    $C$DW$202       .dwtag  DW_TAG_formal_parameter
    3187                            .dwattr $C$DW$202, DW_AT_type(*$C$DW$T$135)
    3188                    
    3189                            .dwendtag $C$DW$T$136
    3190                    
    3191                    $C$DW$T$137     .dwtag  DW_TAG_pointer_type
    3192                            .dwattr $C$DW$T$137, DW_AT_type(*$C$DW$T$136)
    3193                            .dwattr $C$DW$T$137, DW_AT_address_class(0x20)
    3194                    
    3195                    $C$DW$T$138     .dwtag  DW_TAG_typedef
    3196                            .dwattr $C$DW$T$138, DW_AT_name("ICall_PwrNotifyFn")
    3197                            .dwattr $C$DW$T$138, DW_AT_type(*$C$DW$T$137)
    3198                            .dwattr $C$DW$T$138, DW_AT_language(DW_LANG_C)
    3199                            .dwattr $C$DW$T$138, DW_AT_decl_file("C:/ti/simplelink_cc13x0_sdk_2_30_00_20/source/ti/ti154st
    3200                            .dwattr $C$DW$T$138, DW_AT_decl_line(0x333)
    3201                            .dwattr $C$DW$T$138, DW_AT_decl_column(0x10)
    3202                    
    3203                    
    3204                    $C$DW$T$152     .dwtag  DW_TAG_subroutine_type
    3205                            .dwattr $C$DW$T$152, DW_AT_language(DW_LANG_C)
    3206                    $C$DW$203       .dwtag  DW_TAG_formal_parameter
    3207                            .dwattr $C$DW$203, DW_AT_type(*$C$DW$T$148)
    3208                    
    3209                            .dwendtag $C$DW$T$152
    3210                    
    3211                    $C$DW$T$153     .dwtag  DW_TAG_pointer_type
    3212                            .dwattr $C$DW$T$153, DW_AT_type(*$C$DW$T$152)
    3213                            .dwattr $C$DW$T$153, DW_AT_address_class(0x20)
    3214                    
    3215                    $C$DW$T$154     .dwtag  DW_TAG_typedef
    3216                            .dwattr $C$DW$T$154, DW_AT_name("ICall_LeaveCS")
    3217                            .dwattr $C$DW$T$154, DW_AT_type(*$C$DW$T$153)
    3218                            .dwattr $C$DW$T$154, DW_AT_language(DW_LANG_C)
    3219                            .dwattr $C$DW$T$154, DW_AT_decl_file("C:/ti/simplelink_cc13x0_sdk_2_30_00_20/source/ti/ti154st
    3220                            .dwattr $C$DW$T$154, DW_AT_decl_line(0x37e)
    3221                            .dwattr $C$DW$T$154, DW_AT_decl_column(0x10)
    3222                    
    3223                    
    3224                    $C$DW$T$159     .dwtag  DW_TAG_subroutine_type
    3225                            .dwattr $C$DW$T$159, DW_AT_language(DW_LANG_C)
    3226                    $C$DW$204       .dwtag  DW_TAG_formal_parameter
    3227                            .dwattr $C$DW$204, DW_AT_type(*$C$DW$T$3)
    3228                    
    3229                            .dwendtag $C$DW$T$159
    3230                    
    3231                    $C$DW$T$160     .dwtag  DW_TAG_pointer_type
    3232                            .dwattr $C$DW$T$160, DW_AT_type(*$C$DW$T$159)
    3233                            .dwattr $C$DW$T$160, DW_AT_address_class(0x20)
    3234                    
    3235                    $C$DW$T$161     .dwtag  DW_TAG_typedef
TI ARM Assembler PC v16.9.8 Mon Dec 10 17:47:35 2018

Tools Copyright (c) 1996-2017 Texas Instruments Incorporated
C:\Users\Einstein\AppData\Local\Temp\{D8717E8C-C6B2-43EB-B59B-6498A87373A3} PAGE   60

    3236                            .dwattr $C$DW$T$161, DW_AT_name("ICall_TimerCback")
    3237                            .dwattr $C$DW$T$161, DW_AT_type(*$C$DW$T$160)
    3238                            .dwattr $C$DW$T$161, DW_AT_language(DW_LANG_C)
    3239                            .dwattr $C$DW$T$161, DW_AT_decl_file("C:/ti/simplelink_cc13x0_sdk_2_30_00_20/source/ti/ti154st
    3240                            .dwattr $C$DW$T$161, DW_AT_decl_line(0x1c8)
    3241                            .dwattr $C$DW$T$161, DW_AT_decl_column(0x10)
    3242                    
    3243                    $C$DW$T$212     .dwtag  DW_TAG_typedef
    3244                            .dwattr $C$DW$T$212, DW_AT_name("osal_highres_timer_cback_t")
    3245                            .dwattr $C$DW$T$212, DW_AT_type(*$C$DW$T$160)
    3246                            .dwattr $C$DW$T$212, DW_AT_language(DW_LANG_C)
    3247                            .dwattr $C$DW$T$212, DW_AT_decl_file("C:/ti/simplelink_cc13x0_sdk_2_30_00_20/source/ti/ti154st
    3248                            .dwattr $C$DW$T$212, DW_AT_decl_line(0x81)
    3249                            .dwattr $C$DW$T$212, DW_AT_decl_column(0x10)
    3250                    
    3251                    $C$DW$T$213     .dwtag  DW_TAG_typedef
    3252                            .dwattr $C$DW$T$213, DW_AT_name("osal_icallMsg_hook_t")
    3253                            .dwattr $C$DW$T$213, DW_AT_type(*$C$DW$T$160)
    3254                            .dwattr $C$DW$T$213, DW_AT_language(DW_LANG_C)
    3255                            .dwattr $C$DW$T$213, DW_AT_decl_file("C:/ti/simplelink_cc13x0_sdk_2_30_00_20/source/ti/ti154st
    3256                            .dwattr $C$DW$T$213, DW_AT_decl_line(0x85)
    3257                            .dwattr $C$DW$T$213, DW_AT_decl_column(0x10)
    3258                    
    3259                    $C$DW$T$168     .dwtag  DW_TAG_const_type
    3260                            .dwattr $C$DW$T$168, DW_AT_type(*$C$DW$T$2)
    3261                    
    3262                    $C$DW$T$169     .dwtag  DW_TAG_pointer_type
    3263                            .dwattr $C$DW$T$169, DW_AT_type(*$C$DW$T$168)
    3264                            .dwattr $C$DW$T$169, DW_AT_address_class(0x20)
    3265                    
    3266                    
    3267                    $C$DW$T$220     .dwtag  DW_TAG_subroutine_type
    3268                            .dwattr $C$DW$T$220, DW_AT_language(DW_LANG_C)
    3269                    $C$DW$205       .dwtag  DW_TAG_formal_parameter
    3270                            .dwattr $C$DW$205, DW_AT_type(*$C$DW$T$219)
    3271                    
    3272                    $C$DW$206       .dwtag  DW_TAG_formal_parameter
    3273                            .dwattr $C$DW$206, DW_AT_type(*$C$DW$T$3)
    3274                    
    3275                            .dwendtag $C$DW$T$220
    3276                    
    3277                    $C$DW$T$221     .dwtag  DW_TAG_pointer_type
    3278                            .dwattr $C$DW$T$221, DW_AT_type(*$C$DW$T$220)
    3279                            .dwattr $C$DW$T$221, DW_AT_address_class(0x20)
    3280                    
    3281                    $C$DW$T$222     .dwtag  DW_TAG_typedef
    3282                            .dwattr $C$DW$T$222, DW_AT_name("ICall_RemoteTaskEntry")
    3283                            .dwattr $C$DW$T$222, DW_AT_type(*$C$DW$T$221)
    3284                            .dwattr $C$DW$T$222, DW_AT_language(DW_LANG_C)
    3285                            .dwattr $C$DW$T$222, DW_AT_decl_file("C:/ti/simplelink_cc13x0_sdk_2_30_00_20/source/ti/ti154st
    3286                            .dwattr $C$DW$T$222, DW_AT_decl_line(0x39b)
    3287                            .dwattr $C$DW$T$222, DW_AT_decl_column(0x10)
    3288                    
    3289                    
    3290                    $C$DW$T$223     .dwtag  DW_TAG_subroutine_type
TI ARM Assembler PC v16.9.8 Mon Dec 10 17:47:35 2018

Tools Copyright (c) 1996-2017 Texas Instruments Incorporated
C:\Users\Einstein\AppData\Local\Temp\{D8717E8C-C6B2-43EB-B59B-6498A87373A3} PAGE   61

    3291                            .dwattr $C$DW$T$223, DW_AT_language(DW_LANG_C)
    3292                    $C$DW$207       .dwtag  DW_TAG_formal_parameter
    3293                            .dwattr $C$DW$207, DW_AT_type(*$C$DW$T$21)
    3294                    
    3295                    $C$DW$208       .dwtag  DW_TAG_formal_parameter
    3296                            .dwattr $C$DW$208, DW_AT_type(*$C$DW$T$21)
    3297                    
    3298                    $C$DW$209       .dwtag  DW_TAG_formal_parameter
    3299                            .dwattr $C$DW$209, DW_AT_type(*$C$DW$T$21)
    3300                    
    3301                            .dwendtag $C$DW$T$223
    3302                    
    3303                    $C$DW$T$224     .dwtag  DW_TAG_pointer_type
    3304                            .dwattr $C$DW$T$224, DW_AT_type(*$C$DW$T$223)
    3305                            .dwattr $C$DW$T$224, DW_AT_address_class(0x20)
    3306                    
    3307                    $C$DW$T$225     .dwtag  DW_TAG_typedef
    3308                            .dwattr $C$DW$T$225, DW_AT_name("halTimerCBack_t")
    3309                            .dwattr $C$DW$T$225, DW_AT_type(*$C$DW$T$224)
    3310                            .dwattr $C$DW$T$225, DW_AT_language(DW_LANG_C)
    3311                            .dwattr $C$DW$T$225, DW_AT_decl_file("C:/ti/simplelink_cc13x0_sdk_2_30_00_20/source/ti/ti154st
    3312                            .dwattr $C$DW$T$225, DW_AT_decl_line(0xb6)
    3313                            .dwattr $C$DW$T$225, DW_AT_decl_column(0x10)
    3314                    
    3315                    $C$DW$T$4       .dwtag  DW_TAG_base_type
    3316                            .dwattr $C$DW$T$4, DW_AT_encoding(DW_ATE_boolean)
    3317                            .dwattr $C$DW$T$4, DW_AT_name("bool")
    3318                            .dwattr $C$DW$T$4, DW_AT_byte_size(0x01)
    3319                    
    3320                    $C$DW$T$5       .dwtag  DW_TAG_base_type
    3321                            .dwattr $C$DW$T$5, DW_AT_encoding(DW_ATE_signed_char)
    3322                            .dwattr $C$DW$T$5, DW_AT_name("signed char")
    3323                            .dwattr $C$DW$T$5, DW_AT_byte_size(0x01)
    3324                    
    3325                    $C$DW$T$226     .dwtag  DW_TAG_typedef
    3326                            .dwattr $C$DW$T$226, DW_AT_name("int8")
    3327                            .dwattr $C$DW$T$226, DW_AT_type(*$C$DW$T$5)
    3328                            .dwattr $C$DW$T$226, DW_AT_language(DW_LANG_C)
    3329                            .dwattr $C$DW$T$226, DW_AT_decl_file("C:\ti\simplelink_cc13x0_sdk_2_30_00_20\source\ti\ti154st
    3330                            .dwattr $C$DW$T$226, DW_AT_decl_line(0x38)
    3331                            .dwattr $C$DW$T$226, DW_AT_decl_column(0x19)
    3332                    
    3333                    $C$DW$T$227     .dwtag  DW_TAG_typedef
    3334                            .dwattr $C$DW$T$227, DW_AT_name("int8_t")
    3335                            .dwattr $C$DW$T$227, DW_AT_type(*$C$DW$T$5)
    3336                            .dwattr $C$DW$T$227, DW_AT_language(DW_LANG_C)
    3337                            .dwattr $C$DW$T$227, DW_AT_decl_file("C:/ti/ccsv7/tools/compiler/ti-cgt-arm_16.9.8.LTS/include
    3338                            .dwattr $C$DW$T$227, DW_AT_decl_line(0x2a)
    3339                            .dwattr $C$DW$T$227, DW_AT_decl_column(0x1d)
    3340                    
    3341                    $C$DW$T$228     .dwtag  DW_TAG_typedef
    3342                            .dwattr $C$DW$T$228, DW_AT_name("int_least8_t")
    3343                            .dwattr $C$DW$T$228, DW_AT_type(*$C$DW$T$227)
    3344                            .dwattr $C$DW$T$228, DW_AT_language(DW_LANG_C)
    3345                            .dwattr $C$DW$T$228, DW_AT_decl_file("C:/ti/ccsv7/tools/compiler/ti-cgt-arm_16.9.8.LTS/include
TI ARM Assembler PC v16.9.8 Mon Dec 10 17:47:35 2018

Tools Copyright (c) 1996-2017 Texas Instruments Incorporated
C:\Users\Einstein\AppData\Local\Temp\{D8717E8C-C6B2-43EB-B59B-6498A87373A3} PAGE   62

    3346                            .dwattr $C$DW$T$228, DW_AT_decl_line(0x37)
    3347                            .dwattr $C$DW$T$228, DW_AT_decl_column(0x17)
    3348                    
    3349                    $C$DW$T$6       .dwtag  DW_TAG_base_type
    3350                            .dwattr $C$DW$T$6, DW_AT_encoding(DW_ATE_unsigned_char)
    3351                            .dwattr $C$DW$T$6, DW_AT_name("unsigned char")
    3352                            .dwattr $C$DW$T$6, DW_AT_byte_size(0x01)
    3353                    
    3354                    $C$DW$T$21      .dwtag  DW_TAG_typedef
    3355                            .dwattr $C$DW$T$21, DW_AT_name("uint8")
    3356                            .dwattr $C$DW$T$21, DW_AT_type(*$C$DW$T$6)
    3357                            .dwattr $C$DW$T$21, DW_AT_language(DW_LANG_C)
    3358                            .dwattr $C$DW$T$21, DW_AT_decl_file("C:\ti\simplelink_cc13x0_sdk_2_30_00_20\source\ti\ti154sta
    3359                            .dwattr $C$DW$T$21, DW_AT_decl_line(0x39)
    3360                            .dwattr $C$DW$T$21, DW_AT_decl_column(0x19)
    3361                    
    3362                    $C$DW$T$235     .dwtag  DW_TAG_typedef
    3363                            .dwattr $C$DW$T$235, DW_AT_name("Status_t")
    3364                            .dwattr $C$DW$T$235, DW_AT_type(*$C$DW$T$21)
    3365                            .dwattr $C$DW$T$235, DW_AT_language(DW_LANG_C)
    3366                            .dwattr $C$DW$T$235, DW_AT_decl_file("..\Application\MAC\OSAL\comdef.h")
    3367                            .dwattr $C$DW$T$235, DW_AT_decl_line(0x77)
    3368                            .dwattr $C$DW$T$235, DW_AT_decl_column(0x0f)
    3369                    
    3370                    $C$DW$T$77      .dwtag  DW_TAG_pointer_type
    3371                            .dwattr $C$DW$T$77, DW_AT_type(*$C$DW$T$21)
    3372                            .dwattr $C$DW$T$77, DW_AT_address_class(0x20)
    3373                    
    3374                    
    3375                    $C$DW$T$89      .dwtag  DW_TAG_array_type
    3376                            .dwattr $C$DW$T$89, DW_AT_type(*$C$DW$T$21)
    3377                            .dwattr $C$DW$T$89, DW_AT_language(DW_LANG_C)
    3378                            .dwattr $C$DW$T$89, DW_AT_byte_size(0x04)
    3379                    $C$DW$210       .dwtag  DW_TAG_subrange_type
    3380                            .dwattr $C$DW$210, DW_AT_upper_bound(0x03)
    3381                    
    3382                            .dwendtag $C$DW$T$89
    3383                    
    3384                    $C$DW$T$239     .dwtag  DW_TAG_const_type
    3385                            .dwattr $C$DW$T$239, DW_AT_type(*$C$DW$T$21)
    3386                    
    3387                    $C$DW$T$25      .dwtag  DW_TAG_typedef
    3388                            .dwattr $C$DW$T$25, DW_AT_name("uint8_t")
    3389                            .dwattr $C$DW$T$25, DW_AT_type(*$C$DW$T$6)
    3390                            .dwattr $C$DW$T$25, DW_AT_language(DW_LANG_C)
    3391                            .dwattr $C$DW$T$25, DW_AT_decl_file("C:/ti/ccsv7/tools/compiler/ti-cgt-arm_16.9.8.LTS/include/
    3392                            .dwattr $C$DW$T$25, DW_AT_decl_line(0x2b)
    3393                            .dwattr $C$DW$T$25, DW_AT_decl_column(0x1c)
    3394                    
    3395                    $C$DW$T$26      .dwtag  DW_TAG_pointer_type
    3396                            .dwattr $C$DW$T$26, DW_AT_type(*$C$DW$T$25)
    3397                            .dwattr $C$DW$T$26, DW_AT_address_class(0x20)
    3398                    
    3399                    $C$DW$T$240     .dwtag  DW_TAG_volatile_type
    3400                            .dwattr $C$DW$T$240, DW_AT_type(*$C$DW$T$25)
TI ARM Assembler PC v16.9.8 Mon Dec 10 17:47:35 2018

Tools Copyright (c) 1996-2017 Texas Instruments Incorporated
C:\Users\Einstein\AppData\Local\Temp\{D8717E8C-C6B2-43EB-B59B-6498A87373A3} PAGE   63

    3401                    
    3402                    $C$DW$T$241     .dwtag  DW_TAG_typedef
    3403                            .dwattr $C$DW$T$241, DW_AT_name("tFwpWriteByte")
    3404                            .dwattr $C$DW$T$241, DW_AT_type(*$C$DW$T$240)
    3405                            .dwattr $C$DW$T$241, DW_AT_language(DW_LANG_C)
    3406                            .dwattr $C$DW$T$241, DW_AT_decl_file("C:/ti/simplelink_cc13x0_sdk_2_30_00_20/source/ti/devices
    3407                            .dwattr $C$DW$T$241, DW_AT_decl_line(0xde)
    3408                            .dwattr $C$DW$T$241, DW_AT_decl_column(0x1a)
    3409                    
    3410                    $C$DW$T$91      .dwtag  DW_TAG_typedef
    3411                            .dwattr $C$DW$T$91, DW_AT_name("uint_least8_t")
    3412                            .dwattr $C$DW$T$91, DW_AT_type(*$C$DW$T$25)
    3413                            .dwattr $C$DW$T$91, DW_AT_language(DW_LANG_C)
    3414                            .dwattr $C$DW$T$91, DW_AT_decl_file("C:/ti/ccsv7/tools/compiler/ti-cgt-arm_16.9.8.LTS/include/
    3415                            .dwattr $C$DW$T$91, DW_AT_decl_line(0x38)
    3416                            .dwattr $C$DW$T$91, DW_AT_decl_column(0x16)
    3417                    
    3418                    $C$DW$T$92      .dwtag  DW_TAG_typedef
    3419                            .dwattr $C$DW$T$92, DW_AT_name("ICall_EntityID")
    3420                            .dwattr $C$DW$T$92, DW_AT_type(*$C$DW$T$91)
    3421                            .dwattr $C$DW$T$92, DW_AT_language(DW_LANG_C)
    3422                            .dwattr $C$DW$T$92, DW_AT_decl_file("C:/ti/simplelink_cc13x0_sdk_2_30_00_20/source/ti/ti154sta
    3423                            .dwattr $C$DW$T$92, DW_AT_decl_line(0x1b4)
    3424                            .dwattr $C$DW$T$92, DW_AT_decl_column(0x17)
    3425                    
    3426                    $C$DW$T$156     .dwtag  DW_TAG_typedef
    3427                            .dwattr $C$DW$T$156, DW_AT_name("ICall_MSGFormat")
    3428                            .dwattr $C$DW$T$156, DW_AT_type(*$C$DW$T$91)
    3429                            .dwattr $C$DW$T$156, DW_AT_language(DW_LANG_C)
    3430                            .dwattr $C$DW$T$156, DW_AT_decl_file("C:/ti/simplelink_cc13x0_sdk_2_30_00_20/source/ti/ti154st
    3431                            .dwattr $C$DW$T$156, DW_AT_decl_line(0x1a4)
    3432                            .dwattr $C$DW$T$156, DW_AT_decl_column(0x17)
    3433                    
    3434                    $C$DW$T$7       .dwtag  DW_TAG_base_type
    3435                            .dwattr $C$DW$T$7, DW_AT_encoding(DW_ATE_signed_char)
    3436                            .dwattr $C$DW$T$7, DW_AT_name("wchar_t")
    3437                            .dwattr $C$DW$T$7, DW_AT_byte_size(0x02)
    3438                    
    3439                    $C$DW$T$8       .dwtag  DW_TAG_base_type
    3440                            .dwattr $C$DW$T$8, DW_AT_encoding(DW_ATE_signed)
    3441                            .dwattr $C$DW$T$8, DW_AT_name("short")
    3442                            .dwattr $C$DW$T$8, DW_AT_byte_size(0x02)
    3443                    
    3444                    $C$DW$T$242     .dwtag  DW_TAG_typedef
    3445                            .dwattr $C$DW$T$242, DW_AT_name("int16")
    3446                            .dwattr $C$DW$T$242, DW_AT_type(*$C$DW$T$8)
    3447                            .dwattr $C$DW$T$242, DW_AT_language(DW_LANG_C)
    3448                            .dwattr $C$DW$T$242, DW_AT_decl_file("C:\ti\simplelink_cc13x0_sdk_2_30_00_20\source\ti\ti154st
    3449                            .dwattr $C$DW$T$242, DW_AT_decl_line(0x3b)
    3450                            .dwattr $C$DW$T$242, DW_AT_decl_column(0x19)
    3451                    
    3452                    $C$DW$T$243     .dwtag  DW_TAG_typedef
    3453                            .dwattr $C$DW$T$243, DW_AT_name("int16_t")
    3454                            .dwattr $C$DW$T$243, DW_AT_type(*$C$DW$T$8)
    3455                            .dwattr $C$DW$T$243, DW_AT_language(DW_LANG_C)
TI ARM Assembler PC v16.9.8 Mon Dec 10 17:47:35 2018

Tools Copyright (c) 1996-2017 Texas Instruments Incorporated
C:\Users\Einstein\AppData\Local\Temp\{D8717E8C-C6B2-43EB-B59B-6498A87373A3} PAGE   64

    3456                            .dwattr $C$DW$T$243, DW_AT_decl_file("C:/ti/ccsv7/tools/compiler/ti-cgt-arm_16.9.8.LTS/include
    3457                            .dwattr $C$DW$T$243, DW_AT_decl_line(0x2c)
    3458                            .dwattr $C$DW$T$243, DW_AT_decl_column(0x1d)
    3459                    
    3460                    $C$DW$T$244     .dwtag  DW_TAG_typedef
    3461                            .dwattr $C$DW$T$244, DW_AT_name("int_least16_t")
    3462                            .dwattr $C$DW$T$244, DW_AT_type(*$C$DW$T$243)
    3463                            .dwattr $C$DW$T$244, DW_AT_language(DW_LANG_C)
    3464                            .dwattr $C$DW$T$244, DW_AT_decl_file("C:/ti/ccsv7/tools/compiler/ti-cgt-arm_16.9.8.LTS/include
    3465                            .dwattr $C$DW$T$244, DW_AT_decl_line(0x3a)
    3466                            .dwattr $C$DW$T$244, DW_AT_decl_column(0x17)
    3467                    
    3468                    $C$DW$T$9       .dwtag  DW_TAG_base_type
    3469                            .dwattr $C$DW$T$9, DW_AT_encoding(DW_ATE_unsigned)
    3470                            .dwattr $C$DW$T$9, DW_AT_name("unsigned short")
    3471                            .dwattr $C$DW$T$9, DW_AT_byte_size(0x02)
    3472                    
    3473                    $C$DW$T$20      .dwtag  DW_TAG_typedef
    3474                            .dwattr $C$DW$T$20, DW_AT_name("uint16")
    3475                            .dwattr $C$DW$T$20, DW_AT_type(*$C$DW$T$9)
    3476                            .dwattr $C$DW$T$20, DW_AT_language(DW_LANG_C)
    3477                            .dwattr $C$DW$T$20, DW_AT_decl_file("C:\ti\simplelink_cc13x0_sdk_2_30_00_20\source\ti\ti154sta
    3478                            .dwattr $C$DW$T$20, DW_AT_decl_line(0x3c)
    3479                            .dwattr $C$DW$T$20, DW_AT_decl_column(0x19)
    3480                    
    3481                    
    3482                    $C$DW$T$88      .dwtag  DW_TAG_array_type
    3483                            .dwattr $C$DW$T$88, DW_AT_type(*$C$DW$T$20)
    3484                            .dwattr $C$DW$T$88, DW_AT_language(DW_LANG_C)
    3485                            .dwattr $C$DW$T$88, DW_AT_byte_size(0x04)
    3486                    $C$DW$211       .dwtag  DW_TAG_subrange_type
    3487                            .dwattr $C$DW$211, DW_AT_upper_bound(0x01)
    3488                    
    3489                            .dwendtag $C$DW$T$88
    3490                    
    3491                    $C$DW$T$76      .dwtag  DW_TAG_volatile_type
    3492                            .dwattr $C$DW$T$76, DW_AT_type(*$C$DW$T$20)
    3493                    
    3494                    $C$DW$T$248     .dwtag  DW_TAG_const_type
    3495                            .dwattr $C$DW$T$248, DW_AT_type(*$C$DW$T$20)
    3496                    
    3497                    $C$DW$T$42      .dwtag  DW_TAG_typedef
    3498                            .dwattr $C$DW$T$42, DW_AT_name("uint16_t")
    3499                            .dwattr $C$DW$T$42, DW_AT_type(*$C$DW$T$9)
    3500                            .dwattr $C$DW$T$42, DW_AT_language(DW_LANG_C)
    3501                            .dwattr $C$DW$T$42, DW_AT_decl_file("C:/ti/ccsv7/tools/compiler/ti-cgt-arm_16.9.8.LTS/include/
    3502                            .dwattr $C$DW$T$42, DW_AT_decl_line(0x2d)
    3503                            .dwattr $C$DW$T$42, DW_AT_decl_column(0x1c)
    3504                    
    3505                    $C$DW$T$43      .dwtag  DW_TAG_pointer_type
    3506                            .dwattr $C$DW$T$43, DW_AT_type(*$C$DW$T$42)
    3507                            .dwattr $C$DW$T$43, DW_AT_address_class(0x20)
    3508                    
    3509                    $C$DW$T$93      .dwtag  DW_TAG_typedef
    3510                            .dwattr $C$DW$T$93, DW_AT_name("uint_least16_t")
TI ARM Assembler PC v16.9.8 Mon Dec 10 17:47:35 2018

Tools Copyright (c) 1996-2017 Texas Instruments Incorporated
C:\Users\Einstein\AppData\Local\Temp\{D8717E8C-C6B2-43EB-B59B-6498A87373A3} PAGE   65

    3511                            .dwattr $C$DW$T$93, DW_AT_type(*$C$DW$T$42)
    3512                            .dwattr $C$DW$T$93, DW_AT_language(DW_LANG_C)
    3513                            .dwattr $C$DW$T$93, DW_AT_decl_file("C:/ti/ccsv7/tools/compiler/ti-cgt-arm_16.9.8.LTS/include/
    3514                            .dwattr $C$DW$T$93, DW_AT_decl_line(0x3b)
    3515                            .dwattr $C$DW$T$93, DW_AT_decl_column(0x16)
    3516                    
    3517                    $C$DW$T$119     .dwtag  DW_TAG_typedef
    3518                            .dwattr $C$DW$T$119, DW_AT_name("ICall_FuncID")
    3519                            .dwattr $C$DW$T$119, DW_AT_type(*$C$DW$T$93)
    3520                            .dwattr $C$DW$T$119, DW_AT_language(DW_LANG_C)
    3521                            .dwattr $C$DW$T$119, DW_AT_decl_file("C:/ti/simplelink_cc13x0_sdk_2_30_00_20/source/ti/ti154st
    3522                            .dwattr $C$DW$T$119, DW_AT_decl_line(0x1a7)
    3523                            .dwattr $C$DW$T$119, DW_AT_decl_column(0x18)
    3524                    
    3525                    $C$DW$T$94      .dwtag  DW_TAG_typedef
    3526                            .dwattr $C$DW$T$94, DW_AT_name("ICall_ServiceEnum")
    3527                            .dwattr $C$DW$T$94, DW_AT_type(*$C$DW$T$93)
    3528                            .dwattr $C$DW$T$94, DW_AT_language(DW_LANG_C)
    3529                            .dwattr $C$DW$T$94, DW_AT_decl_file("C:/ti/simplelink_cc13x0_sdk_2_30_00_20/source/ti/ti154sta
    3530                            .dwattr $C$DW$T$94, DW_AT_decl_line(0x1a1)
    3531                            .dwattr $C$DW$T$94, DW_AT_decl_column(0x18)
    3532                    
    3533                    $C$DW$T$249     .dwtag  DW_TAG_typedef
    3534                            .dwattr $C$DW$T$249, DW_AT_name("wchar_t")
    3535                            .dwattr $C$DW$T$249, DW_AT_type(*$C$DW$T$9)
    3536                            .dwattr $C$DW$T$249, DW_AT_language(DW_LANG_C)
    3537                            .dwattr $C$DW$T$249, DW_AT_decl_file("C:/ti/ccsv7/tools/compiler/ti-cgt-arm_16.9.8.LTS/include
    3538                            .dwattr $C$DW$T$249, DW_AT_decl_line(0x78)
    3539                            .dwattr $C$DW$T$249, DW_AT_decl_column(0x1a)
    3540                    
    3541                    $C$DW$T$10      .dwtag  DW_TAG_base_type
    3542                            .dwattr $C$DW$T$10, DW_AT_encoding(DW_ATE_signed)
    3543                            .dwattr $C$DW$T$10, DW_AT_name("int")
    3544                            .dwattr $C$DW$T$10, DW_AT_byte_size(0x04)
    3545                    
    3546                    
    3547                    $C$DW$T$250     .dwtag  DW_TAG_subroutine_type
    3548                            .dwattr $C$DW$T$250, DW_AT_type(*$C$DW$T$10)
    3549                            .dwattr $C$DW$T$250, DW_AT_language(DW_LANG_C)
    3550                    $C$DW$212       .dwtag  DW_TAG_formal_parameter
    3551                            .dwattr $C$DW$212, DW_AT_type(*$C$DW$T$169)
    3552                    
    3553                    $C$DW$213       .dwtag  DW_TAG_formal_parameter
    3554                            .dwattr $C$DW$213, DW_AT_type(*$C$DW$T$169)
    3555                    
    3556                            .dwendtag $C$DW$T$250
    3557                    
    3558                    $C$DW$T$251     .dwtag  DW_TAG_pointer_type
    3559                            .dwattr $C$DW$T$251, DW_AT_type(*$C$DW$T$250)
    3560                            .dwattr $C$DW$T$251, DW_AT_address_class(0x20)
    3561                    
    3562                    $C$DW$T$252     .dwtag  DW_TAG_typedef
    3563                            .dwattr $C$DW$T$252, DW_AT_name("__TI_compar_fn")
    3564                            .dwattr $C$DW$T$252, DW_AT_type(*$C$DW$T$251)
    3565                            .dwattr $C$DW$T$252, DW_AT_language(DW_LANG_C)
TI ARM Assembler PC v16.9.8 Mon Dec 10 17:47:35 2018

Tools Copyright (c) 1996-2017 Texas Instruments Incorporated
C:\Users\Einstein\AppData\Local\Temp\{D8717E8C-C6B2-43EB-B59B-6498A87373A3} PAGE   66

    3566                            .dwattr $C$DW$T$252, DW_AT_decl_file("C:/ti/ccsv7/tools/compiler/ti-cgt-arm_16.9.8.LTS/include
    3567                            .dwattr $C$DW$T$252, DW_AT_decl_line(0xbc)
    3568                            .dwattr $C$DW$T$252, DW_AT_decl_column(0x13)
    3569                    
    3570                    $C$DW$T$107     .dwtag  DW_TAG_typedef
    3571                            .dwattr $C$DW$T$107, DW_AT_name("int32_t")
    3572                            .dwattr $C$DW$T$107, DW_AT_type(*$C$DW$T$10)
    3573                            .dwattr $C$DW$T$107, DW_AT_language(DW_LANG_C)
    3574                            .dwattr $C$DW$T$107, DW_AT_decl_file("C:/ti/ccsv7/tools/compiler/ti-cgt-arm_16.9.8.LTS/include
    3575                            .dwattr $C$DW$T$107, DW_AT_decl_line(0x2e)
    3576                            .dwattr $C$DW$T$107, DW_AT_decl_column(0x1d)
    3577                    
    3578                    $C$DW$T$108     .dwtag  DW_TAG_typedef
    3579                            .dwattr $C$DW$T$108, DW_AT_name("int_fast16_t")
    3580                            .dwattr $C$DW$T$108, DW_AT_type(*$C$DW$T$107)
    3581                            .dwattr $C$DW$T$108, DW_AT_language(DW_LANG_C)
    3582                            .dwattr $C$DW$T$108, DW_AT_decl_file("C:/ti/ccsv7/tools/compiler/ti-cgt-arm_16.9.8.LTS/include
    3583                            .dwattr $C$DW$T$108, DW_AT_decl_line(0x47)
    3584                            .dwattr $C$DW$T$108, DW_AT_decl_column(0x17)
    3585                    
    3586                    $C$DW$T$109     .dwtag  DW_TAG_typedef
    3587                            .dwattr $C$DW$T$109, DW_AT_name("ICall_Errno")
    3588                            .dwattr $C$DW$T$109, DW_AT_type(*$C$DW$T$108)
    3589                            .dwattr $C$DW$T$109, DW_AT_language(DW_LANG_C)
    3590                            .dwattr $C$DW$T$109, DW_AT_decl_file("C:/ti/simplelink_cc13x0_sdk_2_30_00_20/source/ti/ti154st
    3591                            .dwattr $C$DW$T$109, DW_AT_decl_line(0x19e)
    3592                            .dwattr $C$DW$T$109, DW_AT_decl_column(0x16)
    3593                    
    3594                    
    3595                    $C$DW$T$111     .dwtag  DW_TAG_subroutine_type
    3596                            .dwattr $C$DW$T$111, DW_AT_type(*$C$DW$T$109)
    3597                            .dwattr $C$DW$T$111, DW_AT_language(DW_LANG_C)
    3598                    $C$DW$214       .dwtag  DW_TAG_formal_parameter
    3599                            .dwattr $C$DW$214, DW_AT_type(*$C$DW$T$110)
    3600                    
    3601                            .dwendtag $C$DW$T$111
    3602                    
    3603                    $C$DW$T$112     .dwtag  DW_TAG_pointer_type
    3604                            .dwattr $C$DW$T$112, DW_AT_type(*$C$DW$T$111)
    3605                            .dwattr $C$DW$T$112, DW_AT_address_class(0x20)
    3606                    
    3607                    $C$DW$T$147     .dwtag  DW_TAG_typedef
    3608                            .dwattr $C$DW$T$147, DW_AT_name("ICall_Dispatcher")
    3609                            .dwattr $C$DW$T$147, DW_AT_type(*$C$DW$T$112)
    3610                            .dwattr $C$DW$T$147, DW_AT_language(DW_LANG_C)
    3611                            .dwattr $C$DW$T$147, DW_AT_decl_file("C:/ti/simplelink_cc13x0_sdk_2_30_00_20/source/ti/ti154st
    3612                            .dwattr $C$DW$T$147, DW_AT_decl_line(0x36c)
    3613                            .dwattr $C$DW$T$147, DW_AT_decl_column(0x17)
    3614                    
    3615                    $C$DW$T$113     .dwtag  DW_TAG_typedef
    3616                            .dwattr $C$DW$T$113, DW_AT_name("ICall_ServiceFunc")
    3617                            .dwattr $C$DW$T$113, DW_AT_type(*$C$DW$T$112)
    3618                            .dwattr $C$DW$T$113, DW_AT_language(DW_LANG_C)
    3619                            .dwattr $C$DW$T$113, DW_AT_decl_file("C:/ti/simplelink_cc13x0_sdk_2_30_00_20/source/ti/ti154st
    3620                            .dwattr $C$DW$T$113, DW_AT_decl_line(0x3a3)
TI ARM Assembler PC v16.9.8 Mon Dec 10 17:47:35 2018

Tools Copyright (c) 1996-2017 Texas Instruments Incorporated
C:\Users\Einstein\AppData\Local\Temp\{D8717E8C-C6B2-43EB-B59B-6498A87373A3} PAGE   67

    3621                            .dwattr $C$DW$T$113, DW_AT_decl_column(0x17)
    3622                    
    3623                    $C$DW$T$253     .dwtag  DW_TAG_typedef
    3624                            .dwattr $C$DW$T$253, DW_AT_name("int_fast32_t")
    3625                            .dwattr $C$DW$T$253, DW_AT_type(*$C$DW$T$107)
    3626                            .dwattr $C$DW$T$253, DW_AT_language(DW_LANG_C)
    3627                            .dwattr $C$DW$T$253, DW_AT_decl_file("C:/ti/ccsv7/tools/compiler/ti-cgt-arm_16.9.8.LTS/include
    3628                            .dwattr $C$DW$T$253, DW_AT_decl_line(0x4a)
    3629                            .dwattr $C$DW$T$253, DW_AT_decl_column(0x17)
    3630                    
    3631                    $C$DW$T$254     .dwtag  DW_TAG_typedef
    3632                            .dwattr $C$DW$T$254, DW_AT_name("int_fast8_t")
    3633                            .dwattr $C$DW$T$254, DW_AT_type(*$C$DW$T$107)
    3634                            .dwattr $C$DW$T$254, DW_AT_language(DW_LANG_C)
    3635                            .dwattr $C$DW$T$254, DW_AT_decl_file("C:/ti/ccsv7/tools/compiler/ti-cgt-arm_16.9.8.LTS/include
    3636                            .dwattr $C$DW$T$254, DW_AT_decl_line(0x45)
    3637                            .dwattr $C$DW$T$254, DW_AT_decl_column(0x17)
    3638                    
    3639                    $C$DW$T$125     .dwtag  DW_TAG_typedef
    3640                            .dwattr $C$DW$T$125, DW_AT_name("int_least32_t")
    3641                            .dwattr $C$DW$T$125, DW_AT_type(*$C$DW$T$107)
    3642                            .dwattr $C$DW$T$125, DW_AT_language(DW_LANG_C)
    3643                            .dwattr $C$DW$T$125, DW_AT_decl_file("C:/ti/ccsv7/tools/compiler/ti-cgt-arm_16.9.8.LTS/include
    3644                            .dwattr $C$DW$T$125, DW_AT_decl_line(0x3c)
    3645                            .dwattr $C$DW$T$125, DW_AT_decl_column(0x17)
    3646                    
    3647                    $C$DW$T$255     .dwtag  DW_TAG_typedef
    3648                            .dwattr $C$DW$T$255, DW_AT_name("intptr_t")
    3649                            .dwattr $C$DW$T$255, DW_AT_type(*$C$DW$T$10)
    3650                            .dwattr $C$DW$T$255, DW_AT_language(DW_LANG_C)
    3651                            .dwattr $C$DW$T$255, DW_AT_decl_file("C:/ti/ccsv7/tools/compiler/ti-cgt-arm_16.9.8.LTS/include
    3652                            .dwattr $C$DW$T$255, DW_AT_decl_line(0x52)
    3653                            .dwattr $C$DW$T$255, DW_AT_decl_column(0x1a)
    3654                    
    3655                    $C$DW$T$11      .dwtag  DW_TAG_base_type
    3656                            .dwattr $C$DW$T$11, DW_AT_encoding(DW_ATE_unsigned)
    3657                            .dwattr $C$DW$T$11, DW_AT_name("unsigned int")
    3658                            .dwattr $C$DW$T$11, DW_AT_byte_size(0x04)
    3659                    
    3660                    $C$DW$T$256     .dwtag  DW_TAG_typedef
    3661                            .dwattr $C$DW$T$256, DW_AT_name("__UINT32")
    3662                            .dwattr $C$DW$T$256, DW_AT_type(*$C$DW$T$11)
    3663                            .dwattr $C$DW$T$256, DW_AT_language(DW_LANG_C)
    3664                            .dwattr $C$DW$T$256, DW_AT_decl_file("C:/ti/simplelink_cc13x0_sdk_2_30_00_20/source/ti/devices
    3665                            .dwattr $C$DW$T$256, DW_AT_decl_line(0x45)
    3666                            .dwattr $C$DW$T$256, DW_AT_decl_column(0x17)
    3667                    
    3668                    $C$DW$T$102     .dwtag  DW_TAG_typedef
    3669                            .dwattr $C$DW$T$102, DW_AT_name("size_t")
    3670                            .dwattr $C$DW$T$102, DW_AT_type(*$C$DW$T$11)
    3671                            .dwattr $C$DW$T$102, DW_AT_language(DW_LANG_C)
    3672                            .dwattr $C$DW$T$102, DW_AT_decl_file("C:/ti/ccsv7/tools/compiler/ti-cgt-arm_16.9.8.LTS/include
    3673                            .dwattr $C$DW$T$102, DW_AT_decl_line(0x72)
    3674                            .dwattr $C$DW$T$102, DW_AT_decl_column(0x19)
    3675                    
TI ARM Assembler PC v16.9.8 Mon Dec 10 17:47:35 2018

Tools Copyright (c) 1996-2017 Texas Instruments Incorporated
C:\Users\Einstein\AppData\Local\Temp\{D8717E8C-C6B2-43EB-B59B-6498A87373A3} PAGE   68

    3676                    $C$DW$T$24      .dwtag  DW_TAG_typedef
    3677                            .dwattr $C$DW$T$24, DW_AT_name("uint32_t")
    3678                            .dwattr $C$DW$T$24, DW_AT_type(*$C$DW$T$11)
    3679                            .dwattr $C$DW$T$24, DW_AT_language(DW_LANG_C)
    3680                            .dwattr $C$DW$T$24, DW_AT_decl_file("C:/ti/ccsv7/tools/compiler/ti-cgt-arm_16.9.8.LTS/include/
    3681                            .dwattr $C$DW$T$24, DW_AT_decl_line(0x2f)
    3682                            .dwattr $C$DW$T$24, DW_AT_decl_column(0x1c)
    3683                    
    3684                    
    3685                    $C$DW$T$27      .dwtag  DW_TAG_subroutine_type
    3686                            .dwattr $C$DW$T$27, DW_AT_type(*$C$DW$T$24)
    3687                            .dwattr $C$DW$T$27, DW_AT_language(DW_LANG_C)
    3688                    $C$DW$215       .dwtag  DW_TAG_formal_parameter
    3689                            .dwattr $C$DW$215, DW_AT_type(*$C$DW$T$26)
    3690                    
    3691                    $C$DW$216       .dwtag  DW_TAG_formal_parameter
    3692                            .dwattr $C$DW$216, DW_AT_type(*$C$DW$T$24)
    3693                    
    3694                    $C$DW$217       .dwtag  DW_TAG_formal_parameter
    3695                            .dwattr $C$DW$217, DW_AT_type(*$C$DW$T$24)
    3696                    
    3697                            .dwendtag $C$DW$T$27
    3698                    
    3699                    $C$DW$T$28      .dwtag  DW_TAG_pointer_type
    3700                            .dwattr $C$DW$T$28, DW_AT_type(*$C$DW$T$27)
    3701                            .dwattr $C$DW$T$28, DW_AT_address_class(0x20)
    3702                    
    3703                    $C$DW$T$29      .dwtag  DW_TAG_typedef
    3704                            .dwattr $C$DW$T$29, DW_AT_name("FPTR_CRC32_T")
    3705                            .dwattr $C$DW$T$29, DW_AT_type(*$C$DW$T$28)
    3706                            .dwattr $C$DW$T$29, DW_AT_language(DW_LANG_C)
    3707                            .dwattr $C$DW$T$29, DW_AT_decl_file("C:\ti\simplelink_cc13x0_sdk_2_30_00_20\source\ti\devices\
    3708                            .dwattr $C$DW$T$29, DW_AT_decl_line(0x3e)
    3709                            .dwattr $C$DW$T$29, DW_AT_decl_column(0x19)
    3710                    
    3711                    $C$DW$T$38      .dwtag  DW_TAG_typedef
    3712                            .dwattr $C$DW$T$38, DW_AT_name("FPTR_RESERVED3_T")
    3713                            .dwattr $C$DW$T$38, DW_AT_type(*$C$DW$T$28)
    3714                            .dwattr $C$DW$T$38, DW_AT_language(DW_LANG_C)
    3715                            .dwattr $C$DW$T$38, DW_AT_decl_file("C:\ti\simplelink_cc13x0_sdk_2_30_00_20\source\ti\devices\
    3716                            .dwattr $C$DW$T$38, DW_AT_decl_line(0x4a)
    3717                            .dwattr $C$DW$T$38, DW_AT_decl_column(0x19)
    3718                    
    3719                    
    3720                    $C$DW$T$30      .dwtag  DW_TAG_subroutine_type
    3721                            .dwattr $C$DW$T$30, DW_AT_type(*$C$DW$T$24)
    3722                            .dwattr $C$DW$T$30, DW_AT_language(DW_LANG_C)
    3723                            .dwendtag $C$DW$T$30
    3724                    
    3725                    $C$DW$T$31      .dwtag  DW_TAG_pointer_type
    3726                            .dwattr $C$DW$T$31, DW_AT_type(*$C$DW$T$30)
    3727                            .dwattr $C$DW$T$31, DW_AT_address_class(0x20)
    3728                    
    3729                    $C$DW$T$33      .dwtag  DW_TAG_typedef
    3730                            .dwattr $C$DW$T$33, DW_AT_name("FPTR_GETCHIPID_T")
TI ARM Assembler PC v16.9.8 Mon Dec 10 17:47:35 2018

Tools Copyright (c) 1996-2017 Texas Instruments Incorporated
C:\Users\Einstein\AppData\Local\Temp\{D8717E8C-C6B2-43EB-B59B-6498A87373A3} PAGE   69

    3731                            .dwattr $C$DW$T$33, DW_AT_type(*$C$DW$T$31)
    3732                            .dwattr $C$DW$T$33, DW_AT_language(DW_LANG_C)
    3733                            .dwattr $C$DW$T$33, DW_AT_decl_file("C:\ti\simplelink_cc13x0_sdk_2_30_00_20\source\ti\devices\
    3734                            .dwattr $C$DW$T$33, DW_AT_decl_line(0x44)
    3735                            .dwattr $C$DW$T$33, DW_AT_decl_column(0x19)
    3736                    
    3737                    $C$DW$T$32      .dwtag  DW_TAG_typedef
    3738                            .dwattr $C$DW$T$32, DW_AT_name("FPTR_GETFLSIZE_T")
    3739                            .dwattr $C$DW$T$32, DW_AT_type(*$C$DW$T$31)
    3740                            .dwattr $C$DW$T$32, DW_AT_language(DW_LANG_C)
    3741                            .dwattr $C$DW$T$32, DW_AT_decl_file("C:\ti\simplelink_cc13x0_sdk_2_30_00_20\source\ti\devices\
    3742                            .dwattr $C$DW$T$32, DW_AT_decl_line(0x42)
    3743                            .dwattr $C$DW$T$32, DW_AT_decl_column(0x19)
    3744                    
    3745                    $C$DW$T$37      .dwtag  DW_TAG_typedef
    3746                            .dwattr $C$DW$T$37, DW_AT_name("FPTR_RESERVED2_T")
    3747                            .dwattr $C$DW$T$37, DW_AT_type(*$C$DW$T$31)
    3748                            .dwattr $C$DW$T$37, DW_AT_language(DW_LANG_C)
    3749                            .dwattr $C$DW$T$37, DW_AT_decl_file("C:\ti\simplelink_cc13x0_sdk_2_30_00_20\source\ti\devices\
    3750                            .dwattr $C$DW$T$37, DW_AT_decl_line(0x48)
    3751                            .dwattr $C$DW$T$37, DW_AT_decl_column(0x19)
    3752                    
    3753                    
    3754                    $C$DW$T$34      .dwtag  DW_TAG_subroutine_type
    3755                            .dwattr $C$DW$T$34, DW_AT_type(*$C$DW$T$24)
    3756                            .dwattr $C$DW$T$34, DW_AT_language(DW_LANG_C)
    3757                    $C$DW$218       .dwtag  DW_TAG_formal_parameter
    3758                            .dwattr $C$DW$218, DW_AT_type(*$C$DW$T$24)
    3759                    
    3760                            .dwendtag $C$DW$T$34
    3761                    
    3762                    $C$DW$T$35      .dwtag  DW_TAG_pointer_type
    3763                            .dwattr $C$DW$T$35, DW_AT_type(*$C$DW$T$34)
    3764                            .dwattr $C$DW$T$35, DW_AT_address_class(0x20)
    3765                    
    3766                    $C$DW$T$36      .dwtag  DW_TAG_typedef
    3767                            .dwattr $C$DW$T$36, DW_AT_name("FPTR_RESERVED1_T")
    3768                            .dwattr $C$DW$T$36, DW_AT_type(*$C$DW$T$35)
    3769                            .dwattr $C$DW$T$36, DW_AT_language(DW_LANG_C)
    3770                            .dwattr $C$DW$T$36, DW_AT_decl_file("C:\ti\simplelink_cc13x0_sdk_2_30_00_20\source\ti\devices\
    3771                            .dwattr $C$DW$T$36, DW_AT_decl_line(0x46)
    3772                            .dwattr $C$DW$T$36, DW_AT_decl_column(0x19)
    3773                    
    3774                    
    3775                    $C$DW$T$44      .dwtag  DW_TAG_subroutine_type
    3776                            .dwattr $C$DW$T$44, DW_AT_type(*$C$DW$T$24)
    3777                            .dwattr $C$DW$T$44, DW_AT_language(DW_LANG_C)
    3778                    $C$DW$219       .dwtag  DW_TAG_formal_parameter
    3779                            .dwattr $C$DW$219, DW_AT_type(*$C$DW$T$43)
    3780                    
    3781                    $C$DW$220       .dwtag  DW_TAG_formal_parameter
    3782                            .dwattr $C$DW$220, DW_AT_type(*$C$DW$T$42)
    3783                    
    3784                    $C$DW$221       .dwtag  DW_TAG_formal_parameter
    3785                            .dwattr $C$DW$221, DW_AT_type(*$C$DW$T$42)
TI ARM Assembler PC v16.9.8 Mon Dec 10 17:47:35 2018

Tools Copyright (c) 1996-2017 Texas Instruments Incorporated
C:\Users\Einstein\AppData\Local\Temp\{D8717E8C-C6B2-43EB-B59B-6498A87373A3} PAGE   70

    3786                    
    3787                            .dwendtag $C$DW$T$44
    3788                    
    3789                    $C$DW$T$45      .dwtag  DW_TAG_pointer_type
    3790                            .dwattr $C$DW$T$45, DW_AT_type(*$C$DW$T$44)
    3791                            .dwattr $C$DW$T$45, DW_AT_address_class(0x20)
    3792                    
    3793                    $C$DW$T$46      .dwtag  DW_TAG_typedef
    3794                            .dwattr $C$DW$T$46, DW_AT_name("FPTR_FLETCHER32_T")
    3795                            .dwattr $C$DW$T$46, DW_AT_type(*$C$DW$T$45)
    3796                            .dwattr $C$DW$T$46, DW_AT_language(DW_LANG_C)
    3797                            .dwattr $C$DW$T$46, DW_AT_decl_file("C:\ti\simplelink_cc13x0_sdk_2_30_00_20\source\ti\devices\
    3798                            .dwattr $C$DW$T$46, DW_AT_decl_line(0x4f)
    3799                            .dwattr $C$DW$T$46, DW_AT_decl_column(0x19)
    3800                    
    3801                    $C$DW$T$47      .dwtag  DW_TAG_pointer_type
    3802                            .dwattr $C$DW$T$47, DW_AT_type(*$C$DW$T$24)
    3803                            .dwattr $C$DW$T$47, DW_AT_address_class(0x20)
    3804                    
    3805                    
    3806                    $C$DW$T$48      .dwtag  DW_TAG_subroutine_type
    3807                            .dwattr $C$DW$T$48, DW_AT_type(*$C$DW$T$24)
    3808                            .dwattr $C$DW$T$48, DW_AT_language(DW_LANG_C)
    3809                    $C$DW$222       .dwtag  DW_TAG_formal_parameter
    3810                            .dwattr $C$DW$222, DW_AT_type(*$C$DW$T$47)
    3811                    
    3812                    $C$DW$223       .dwtag  DW_TAG_formal_parameter
    3813                            .dwattr $C$DW$223, DW_AT_type(*$C$DW$T$24)
    3814                    
    3815                            .dwendtag $C$DW$T$48
    3816                    
    3817                    $C$DW$T$49      .dwtag  DW_TAG_pointer_type
    3818                            .dwattr $C$DW$T$49, DW_AT_type(*$C$DW$T$48)
    3819                            .dwattr $C$DW$T$49, DW_AT_address_class(0x20)
    3820                    
    3821                    $C$DW$T$51      .dwtag  DW_TAG_typedef
    3822                            .dwattr $C$DW$T$51, DW_AT_name("FPTR_MAXVAL_T")
    3823                            .dwattr $C$DW$T$51, DW_AT_type(*$C$DW$T$49)
    3824                            .dwattr $C$DW$T$51, DW_AT_language(DW_LANG_C)
    3825                            .dwattr $C$DW$T$51, DW_AT_decl_file("C:\ti\simplelink_cc13x0_sdk_2_30_00_20\source\ti\devices\
    3826                            .dwattr $C$DW$T$51, DW_AT_decl_line(0x56)
    3827                            .dwattr $C$DW$T$51, DW_AT_decl_column(0x19)
    3828                    
    3829                    $C$DW$T$52      .dwtag  DW_TAG_typedef
    3830                            .dwattr $C$DW$T$52, DW_AT_name("FPTR_MEANVAL_T")
    3831                            .dwattr $C$DW$T$52, DW_AT_type(*$C$DW$T$49)
    3832                            .dwattr $C$DW$T$52, DW_AT_language(DW_LANG_C)
    3833                            .dwattr $C$DW$T$52, DW_AT_decl_file("C:\ti\simplelink_cc13x0_sdk_2_30_00_20\source\ti\devices\
    3834                            .dwattr $C$DW$T$52, DW_AT_decl_line(0x59)
    3835                            .dwattr $C$DW$T$52, DW_AT_decl_column(0x19)
    3836                    
    3837                    $C$DW$T$50      .dwtag  DW_TAG_typedef
    3838                            .dwattr $C$DW$T$50, DW_AT_name("FPTR_MINVAL_T")
    3839                            .dwattr $C$DW$T$50, DW_AT_type(*$C$DW$T$49)
    3840                            .dwattr $C$DW$T$50, DW_AT_language(DW_LANG_C)
TI ARM Assembler PC v16.9.8 Mon Dec 10 17:47:35 2018

Tools Copyright (c) 1996-2017 Texas Instruments Incorporated
C:\Users\Einstein\AppData\Local\Temp\{D8717E8C-C6B2-43EB-B59B-6498A87373A3} PAGE   71

    3841                            .dwattr $C$DW$T$50, DW_AT_decl_file("C:\ti\simplelink_cc13x0_sdk_2_30_00_20\source\ti\devices\
    3842                            .dwattr $C$DW$T$50, DW_AT_decl_line(0x53)
    3843                            .dwattr $C$DW$T$50, DW_AT_decl_column(0x19)
    3844                    
    3845                    $C$DW$T$53      .dwtag  DW_TAG_typedef
    3846                            .dwattr $C$DW$T$53, DW_AT_name("FPTR_STDDVAL_T")
    3847                            .dwattr $C$DW$T$53, DW_AT_type(*$C$DW$T$49)
    3848                            .dwattr $C$DW$T$53, DW_AT_language(DW_LANG_C)
    3849                            .dwattr $C$DW$T$53, DW_AT_decl_file("C:\ti\simplelink_cc13x0_sdk_2_30_00_20\source\ti\devices\
    3850                            .dwattr $C$DW$T$53, DW_AT_decl_line(0x5c)
    3851                            .dwattr $C$DW$T$53, DW_AT_decl_column(0x19)
    3852                    
    3853                    $C$DW$T$263     .dwtag  DW_TAG_typedef
    3854                            .dwattr $C$DW$T$263, DW_AT_name("uint_fast16_t")
    3855                            .dwattr $C$DW$T$263, DW_AT_type(*$C$DW$T$24)
    3856                            .dwattr $C$DW$T$263, DW_AT_language(DW_LANG_C)
    3857                            .dwattr $C$DW$T$263, DW_AT_decl_file("C:/ti/ccsv7/tools/compiler/ti-cgt-arm_16.9.8.LTS/include
    3858                            .dwattr $C$DW$T$263, DW_AT_decl_line(0x48)
    3859                            .dwattr $C$DW$T$263, DW_AT_decl_column(0x16)
    3860                    
    3861                    $C$DW$T$128     .dwtag  DW_TAG_typedef
    3862                            .dwattr $C$DW$T$128, DW_AT_name("uint_fast32_t")
    3863                            .dwattr $C$DW$T$128, DW_AT_type(*$C$DW$T$24)
    3864                            .dwattr $C$DW$T$128, DW_AT_language(DW_LANG_C)
    3865                            .dwattr $C$DW$T$128, DW_AT_decl_file("C:/ti/ccsv7/tools/compiler/ti-cgt-arm_16.9.8.LTS/include
    3866                            .dwattr $C$DW$T$128, DW_AT_decl_line(0x4b)
    3867                            .dwattr $C$DW$T$128, DW_AT_decl_column(0x16)
    3868                    
    3869                    $C$DW$T$129     .dwtag  DW_TAG_typedef
    3870                            .dwattr $C$DW$T$129, DW_AT_name("ICall_PwrBitmap_t")
    3871                            .dwattr $C$DW$T$129, DW_AT_type(*$C$DW$T$128)
    3872                            .dwattr $C$DW$T$129, DW_AT_language(DW_LANG_C)
    3873                            .dwattr $C$DW$T$129, DW_AT_decl_file("C:/ti/simplelink_cc13x0_sdk_2_30_00_20/source/ti/ti154st
    3874                            .dwattr $C$DW$T$129, DW_AT_decl_line(0x287)
    3875                            .dwattr $C$DW$T$129, DW_AT_decl_column(0x17)
    3876                    
    3877                    $C$DW$T$131     .dwtag  DW_TAG_typedef
    3878                            .dwattr $C$DW$T$131, DW_AT_name("uint_fast8_t")
    3879                            .dwattr $C$DW$T$131, DW_AT_type(*$C$DW$T$24)
    3880                            .dwattr $C$DW$T$131, DW_AT_language(DW_LANG_C)
    3881                            .dwattr $C$DW$T$131, DW_AT_decl_file("C:/ti/ccsv7/tools/compiler/ti-cgt-arm_16.9.8.LTS/include
    3882                            .dwattr $C$DW$T$131, DW_AT_decl_line(0x46)
    3883                            .dwattr $C$DW$T$131, DW_AT_decl_column(0x16)
    3884                    
    3885                    $C$DW$T$134     .dwtag  DW_TAG_typedef
    3886                            .dwattr $C$DW$T$134, DW_AT_name("ICall_PwrTransition")
    3887                            .dwattr $C$DW$T$134, DW_AT_type(*$C$DW$T$131)
    3888                            .dwattr $C$DW$T$134, DW_AT_language(DW_LANG_C)
    3889                            .dwattr $C$DW$T$134, DW_AT_decl_file("C:/ti/simplelink_cc13x0_sdk_2_30_00_20/source/ti/ti154st
    3890                            .dwattr $C$DW$T$134, DW_AT_decl_line(0x326)
    3891                            .dwattr $C$DW$T$134, DW_AT_decl_column(0x16)
    3892                    
    3893                    $C$DW$T$69      .dwtag  DW_TAG_typedef
    3894                            .dwattr $C$DW$T$69, DW_AT_name("uint_least32_t")
    3895                            .dwattr $C$DW$T$69, DW_AT_type(*$C$DW$T$24)
TI ARM Assembler PC v16.9.8 Mon Dec 10 17:47:35 2018

Tools Copyright (c) 1996-2017 Texas Instruments Incorporated
C:\Users\Einstein\AppData\Local\Temp\{D8717E8C-C6B2-43EB-B59B-6498A87373A3} PAGE   72

    3896                            .dwattr $C$DW$T$69, DW_AT_language(DW_LANG_C)
    3897                            .dwattr $C$DW$T$69, DW_AT_decl_file("C:/ti/ccsv7/tools/compiler/ti-cgt-arm_16.9.8.LTS/include/
    3898                            .dwattr $C$DW$T$69, DW_AT_decl_line(0x3d)
    3899                            .dwattr $C$DW$T$69, DW_AT_decl_column(0x16)
    3900                    
    3901                    $C$DW$T$148     .dwtag  DW_TAG_typedef
    3902                            .dwattr $C$DW$T$148, DW_AT_name("ICall_CSState")
    3903                            .dwattr $C$DW$T$148, DW_AT_type(*$C$DW$T$69)
    3904                            .dwattr $C$DW$T$148, DW_AT_language(DW_LANG_C)
    3905                            .dwattr $C$DW$T$148, DW_AT_decl_file("C:/ti/simplelink_cc13x0_sdk_2_30_00_20/source/ti/ti154st
    3906                            .dwattr $C$DW$T$148, DW_AT_decl_line(0x371)
    3907                            .dwattr $C$DW$T$148, DW_AT_decl_column(0x18)
    3908                    
    3909                    
    3910                    $C$DW$T$149     .dwtag  DW_TAG_subroutine_type
    3911                            .dwattr $C$DW$T$149, DW_AT_type(*$C$DW$T$148)
    3912                            .dwattr $C$DW$T$149, DW_AT_language(DW_LANG_C)
    3913                            .dwendtag $C$DW$T$149
    3914                    
    3915                    $C$DW$T$150     .dwtag  DW_TAG_pointer_type
    3916                            .dwattr $C$DW$T$150, DW_AT_type(*$C$DW$T$149)
    3917                            .dwattr $C$DW$T$150, DW_AT_address_class(0x20)
    3918                    
    3919                    $C$DW$T$151     .dwtag  DW_TAG_typedef
    3920                            .dwattr $C$DW$T$151, DW_AT_name("ICall_EnterCS")
    3921                            .dwattr $C$DW$T$151, DW_AT_type(*$C$DW$T$150)
    3922                            .dwattr $C$DW$T$151, DW_AT_language(DW_LANG_C)
    3923                            .dwattr $C$DW$T$151, DW_AT_decl_file("C:/ti/simplelink_cc13x0_sdk_2_30_00_20/source/ti/ti154st
    3924                            .dwattr $C$DW$T$151, DW_AT_decl_line(0x377)
    3925                            .dwattr $C$DW$T$151, DW_AT_decl_column(0x19)
    3926                    
    3927                    $C$DW$T$264     .dwtag  DW_TAG_typedef
    3928                            .dwattr $C$DW$T$264, DW_AT_name("halIntState_t")
    3929                            .dwattr $C$DW$T$264, DW_AT_type(*$C$DW$T$148)
    3930                            .dwattr $C$DW$T$264, DW_AT_language(DW_LANG_C)
    3931                            .dwattr $C$DW$T$264, DW_AT_decl_file("C:/ti/simplelink_cc13x0_sdk_2_30_00_20/source/ti/ti154st
    3932                            .dwattr $C$DW$T$264, DW_AT_decl_line(0x6f)
    3933                            .dwattr $C$DW$T$264, DW_AT_decl_column(0x17)
    3934                    
    3935                    $C$DW$T$70      .dwtag  DW_TAG_pointer_type
    3936                            .dwattr $C$DW$T$70, DW_AT_type(*$C$DW$T$69)
    3937                            .dwattr $C$DW$T$70, DW_AT_address_class(0x20)
    3938                    
    3939                    $C$DW$T$71      .dwtag  DW_TAG_typedef
    3940                            .dwattr $C$DW$T$71, DW_AT_name("icall_lite_id_t")
    3941                            .dwattr $C$DW$T$71, DW_AT_type(*$C$DW$T$69)
    3942                            .dwattr $C$DW$T$71, DW_AT_language(DW_LANG_C)
    3943                            .dwattr $C$DW$T$71, DW_AT_decl_file("C:/ti/simplelink_cc13x0_sdk_2_30_00_20/source/ti/ti154sta
    3944                            .dwattr $C$DW$T$71, DW_AT_decl_line(0x3ec)
    3945                            .dwattr $C$DW$T$71, DW_AT_decl_column(0x18)
    3946                    
    3947                    $C$DW$T$265     .dwtag  DW_TAG_typedef
    3948                            .dwattr $C$DW$T$265, DW_AT_name("uintptr_t")
    3949                            .dwattr $C$DW$T$265, DW_AT_type(*$C$DW$T$11)
    3950                            .dwattr $C$DW$T$265, DW_AT_language(DW_LANG_C)
TI ARM Assembler PC v16.9.8 Mon Dec 10 17:47:35 2018

Tools Copyright (c) 1996-2017 Texas Instruments Incorporated
C:\Users\Einstein\AppData\Local\Temp\{D8717E8C-C6B2-43EB-B59B-6498A87373A3} PAGE   73

    3951                            .dwattr $C$DW$T$265, DW_AT_decl_file("C:/ti/ccsv7/tools/compiler/ti-cgt-arm_16.9.8.LTS/include
    3952                            .dwattr $C$DW$T$265, DW_AT_decl_line(0x53)
    3953                            .dwattr $C$DW$T$265, DW_AT_decl_column(0x1a)
    3954                    
    3955                    $C$DW$T$12      .dwtag  DW_TAG_base_type
    3956                            .dwattr $C$DW$T$12, DW_AT_encoding(DW_ATE_signed)
    3957                            .dwattr $C$DW$T$12, DW_AT_name("long")
    3958                            .dwattr $C$DW$T$12, DW_AT_byte_size(0x04)
    3959                    
    3960                    $C$DW$T$266     .dwtag  DW_TAG_typedef
    3961                            .dwattr $C$DW$T$266, DW_AT_name("int32")
    3962                            .dwattr $C$DW$T$266, DW_AT_type(*$C$DW$T$12)
    3963                            .dwattr $C$DW$T$266, DW_AT_language(DW_LANG_C)
    3964                            .dwattr $C$DW$T$266, DW_AT_decl_file("C:\ti\simplelink_cc13x0_sdk_2_30_00_20\source\ti\ti154st
    3965                            .dwattr $C$DW$T$266, DW_AT_decl_line(0x3e)
    3966                            .dwattr $C$DW$T$266, DW_AT_decl_column(0x19)
    3967                    
    3968                    $C$DW$T$267     .dwtag  DW_TAG_typedef
    3969                            .dwattr $C$DW$T$267, DW_AT_name("int24")
    3970                            .dwattr $C$DW$T$267, DW_AT_type(*$C$DW$T$266)
    3971                            .dwattr $C$DW$T$267, DW_AT_language(DW_LANG_C)
    3972                            .dwattr $C$DW$T$267, DW_AT_decl_file("..\Application\MAC\OSAL\comdef.h")
    3973                            .dwattr $C$DW$T$267, DW_AT_decl_line(0x7a)
    3974                            .dwattr $C$DW$T$267, DW_AT_decl_column(0x11)
    3975                    
    3976                    $C$DW$T$13      .dwtag  DW_TAG_base_type
    3977                            .dwattr $C$DW$T$13, DW_AT_encoding(DW_ATE_unsigned)
    3978                            .dwattr $C$DW$T$13, DW_AT_name("unsigned long")
    3979                            .dwattr $C$DW$T$13, DW_AT_byte_size(0x04)
    3980                    
    3981                    $C$DW$T$22      .dwtag  DW_TAG_typedef
    3982                            .dwattr $C$DW$T$22, DW_AT_name("uint32")
    3983                            .dwattr $C$DW$T$22, DW_AT_type(*$C$DW$T$13)
    3984                            .dwattr $C$DW$T$22, DW_AT_language(DW_LANG_C)
    3985                            .dwattr $C$DW$T$22, DW_AT_decl_file("C:\ti\simplelink_cc13x0_sdk_2_30_00_20\source\ti\ti154sta
    3986                            .dwattr $C$DW$T$22, DW_AT_decl_line(0x3f)
    3987                            .dwattr $C$DW$T$22, DW_AT_decl_column(0x19)
    3988                    
    3989                    $C$DW$T$270     .dwtag  DW_TAG_typedef
    3990                            .dwattr $C$DW$T$270, DW_AT_name("halDataAlign_t")
    3991                            .dwattr $C$DW$T$270, DW_AT_type(*$C$DW$T$22)
    3992                            .dwattr $C$DW$T$270, DW_AT_language(DW_LANG_C)
    3993                            .dwattr $C$DW$T$270, DW_AT_decl_file("C:\ti\simplelink_cc13x0_sdk_2_30_00_20\source\ti\ti154st
    3994                            .dwattr $C$DW$T$270, DW_AT_decl_line(0x43)
    3995                            .dwattr $C$DW$T$270, DW_AT_decl_column(0x19)
    3996                    
    3997                    $C$DW$T$271     .dwtag  DW_TAG_typedef
    3998                            .dwattr $C$DW$T$271, DW_AT_name("uint24")
    3999                            .dwattr $C$DW$T$271, DW_AT_type(*$C$DW$T$22)
    4000                            .dwattr $C$DW$T$271, DW_AT_language(DW_LANG_C)
    4001                            .dwattr $C$DW$T$271, DW_AT_decl_file("..\Application\MAC\OSAL\comdef.h")
    4002                            .dwattr $C$DW$T$271, DW_AT_decl_line(0x7b)
    4003                            .dwattr $C$DW$T$271, DW_AT_decl_column(0x11)
    4004                    
    4005                    $C$DW$T$272     .dwtag  DW_TAG_const_type
TI ARM Assembler PC v16.9.8 Mon Dec 10 17:47:35 2018

Tools Copyright (c) 1996-2017 Texas Instruments Incorporated
C:\Users\Einstein\AppData\Local\Temp\{D8717E8C-C6B2-43EB-B59B-6498A87373A3} PAGE   74

    4006                            .dwattr $C$DW$T$272, DW_AT_type(*$C$DW$T$22)
    4007                    
    4008                    $C$DW$T$14      .dwtag  DW_TAG_base_type
    4009                            .dwattr $C$DW$T$14, DW_AT_encoding(DW_ATE_signed)
    4010                            .dwattr $C$DW$T$14, DW_AT_name("long long")
    4011                            .dwattr $C$DW$T$14, DW_AT_byte_size(0x08)
    4012                    
    4013                    $C$DW$T$273     .dwtag  DW_TAG_typedef
    4014                            .dwattr $C$DW$T$273, DW_AT_name("int64_t")
    4015                            .dwattr $C$DW$T$273, DW_AT_type(*$C$DW$T$14)
    4016                            .dwattr $C$DW$T$273, DW_AT_language(DW_LANG_C)
    4017                            .dwattr $C$DW$T$273, DW_AT_decl_file("C:/ti/ccsv7/tools/compiler/ti-cgt-arm_16.9.8.LTS/include
    4018                            .dwattr $C$DW$T$273, DW_AT_decl_line(0x32)
    4019                            .dwattr $C$DW$T$273, DW_AT_decl_column(0x21)
    4020                    
    4021                    $C$DW$T$274     .dwtag  DW_TAG_typedef
    4022                            .dwattr $C$DW$T$274, DW_AT_name("int_fast64_t")
    4023                            .dwattr $C$DW$T$274, DW_AT_type(*$C$DW$T$273)
    4024                            .dwattr $C$DW$T$274, DW_AT_language(DW_LANG_C)
    4025                            .dwattr $C$DW$T$274, DW_AT_decl_file("C:/ti/ccsv7/tools/compiler/ti-cgt-arm_16.9.8.LTS/include
    4026                            .dwattr $C$DW$T$274, DW_AT_decl_line(0x4e)
    4027                            .dwattr $C$DW$T$274, DW_AT_decl_column(0x17)
    4028                    
    4029                    $C$DW$T$275     .dwtag  DW_TAG_typedef
    4030                            .dwattr $C$DW$T$275, DW_AT_name("int_least64_t")
    4031                            .dwattr $C$DW$T$275, DW_AT_type(*$C$DW$T$273)
    4032                            .dwattr $C$DW$T$275, DW_AT_language(DW_LANG_C)
    4033                            .dwattr $C$DW$T$275, DW_AT_decl_file("C:/ti/ccsv7/tools/compiler/ti-cgt-arm_16.9.8.LTS/include
    4034                            .dwattr $C$DW$T$275, DW_AT_decl_line(0x40)
    4035                            .dwattr $C$DW$T$275, DW_AT_decl_column(0x17)
    4036                    
    4037                    $C$DW$T$276     .dwtag  DW_TAG_typedef
    4038                            .dwattr $C$DW$T$276, DW_AT_name("intmax_t")
    4039                            .dwattr $C$DW$T$276, DW_AT_type(*$C$DW$T$14)
    4040                            .dwattr $C$DW$T$276, DW_AT_language(DW_LANG_C)
    4041                            .dwattr $C$DW$T$276, DW_AT_decl_file("C:/ti/ccsv7/tools/compiler/ti-cgt-arm_16.9.8.LTS/include
    4042                            .dwattr $C$DW$T$276, DW_AT_decl_line(0x56)
    4043                            .dwattr $C$DW$T$276, DW_AT_decl_column(0x20)
    4044                    
    4045                    $C$DW$T$15      .dwtag  DW_TAG_base_type
    4046                            .dwattr $C$DW$T$15, DW_AT_encoding(DW_ATE_unsigned)
    4047                            .dwattr $C$DW$T$15, DW_AT_name("unsigned long long")
    4048                            .dwattr $C$DW$T$15, DW_AT_byte_size(0x08)
    4049                    
    4050                    $C$DW$T$277     .dwtag  DW_TAG_typedef
    4051                            .dwattr $C$DW$T$277, DW_AT_name("uint64_t")
    4052                            .dwattr $C$DW$T$277, DW_AT_type(*$C$DW$T$15)
    4053                            .dwattr $C$DW$T$277, DW_AT_language(DW_LANG_C)
    4054                            .dwattr $C$DW$T$277, DW_AT_decl_file("C:/ti/ccsv7/tools/compiler/ti-cgt-arm_16.9.8.LTS/include
    4055                            .dwattr $C$DW$T$277, DW_AT_decl_line(0x33)
    4056                            .dwattr $C$DW$T$277, DW_AT_decl_column(0x20)
    4057                    
    4058                    $C$DW$T$278     .dwtag  DW_TAG_typedef
    4059                            .dwattr $C$DW$T$278, DW_AT_name("uint_fast64_t")
    4060                            .dwattr $C$DW$T$278, DW_AT_type(*$C$DW$T$277)
TI ARM Assembler PC v16.9.8 Mon Dec 10 17:47:35 2018

Tools Copyright (c) 1996-2017 Texas Instruments Incorporated
C:\Users\Einstein\AppData\Local\Temp\{D8717E8C-C6B2-43EB-B59B-6498A87373A3} PAGE   75

    4061                            .dwattr $C$DW$T$278, DW_AT_language(DW_LANG_C)
    4062                            .dwattr $C$DW$T$278, DW_AT_decl_file("C:/ti/ccsv7/tools/compiler/ti-cgt-arm_16.9.8.LTS/include
    4063                            .dwattr $C$DW$T$278, DW_AT_decl_line(0x4f)
    4064                            .dwattr $C$DW$T$278, DW_AT_decl_column(0x16)
    4065                    
    4066                    $C$DW$T$279     .dwtag  DW_TAG_typedef
    4067                            .dwattr $C$DW$T$279, DW_AT_name("uint_least64_t")
    4068                            .dwattr $C$DW$T$279, DW_AT_type(*$C$DW$T$277)
    4069                            .dwattr $C$DW$T$279, DW_AT_language(DW_LANG_C)
    4070                            .dwattr $C$DW$T$279, DW_AT_decl_file("C:/ti/ccsv7/tools/compiler/ti-cgt-arm_16.9.8.LTS/include
    4071                            .dwattr $C$DW$T$279, DW_AT_decl_line(0x41)
    4072                            .dwattr $C$DW$T$279, DW_AT_decl_column(0x16)
    4073                    
    4074                    $C$DW$T$280     .dwtag  DW_TAG_typedef
    4075                            .dwattr $C$DW$T$280, DW_AT_name("uintmax_t")
    4076                            .dwattr $C$DW$T$280, DW_AT_type(*$C$DW$T$15)
    4077                            .dwattr $C$DW$T$280, DW_AT_language(DW_LANG_C)
    4078                            .dwattr $C$DW$T$280, DW_AT_decl_file("C:/ti/ccsv7/tools/compiler/ti-cgt-arm_16.9.8.LTS/include
    4079                            .dwattr $C$DW$T$280, DW_AT_decl_line(0x57)
    4080                            .dwattr $C$DW$T$280, DW_AT_decl_column(0x20)
    4081                    
    4082                    $C$DW$T$16      .dwtag  DW_TAG_base_type
    4083                            .dwattr $C$DW$T$16, DW_AT_encoding(DW_ATE_float)
    4084                            .dwattr $C$DW$T$16, DW_AT_name("float")
    4085                            .dwattr $C$DW$T$16, DW_AT_byte_size(0x04)
    4086                    
    4087                    $C$DW$T$17      .dwtag  DW_TAG_base_type
    4088                            .dwattr $C$DW$T$17, DW_AT_encoding(DW_ATE_float)
    4089                            .dwattr $C$DW$T$17, DW_AT_name("double")
    4090                            .dwattr $C$DW$T$17, DW_AT_byte_size(0x08)
    4091                    
    4092                    $C$DW$T$18      .dwtag  DW_TAG_base_type
    4093                            .dwattr $C$DW$T$18, DW_AT_encoding(DW_ATE_float)
    4094                            .dwattr $C$DW$T$18, DW_AT_name("long double")
    4095                            .dwattr $C$DW$T$18, DW_AT_byte_size(0x08)
    4096                    
    4097                    $C$DW$T$79      .dwtag  DW_TAG_base_type
    4098                            .dwattr $C$DW$T$79, DW_AT_encoding(DW_ATE_unsigned_char)
    4099                            .dwattr $C$DW$T$79, DW_AT_name("unsigned char")
    4100                            .dwattr $C$DW$T$79, DW_AT_byte_size(0x01)
    4101                    
    4102                    
    4103                    $C$DW$T$170     .dwtag  DW_TAG_subroutine_type
    4104                            .dwattr $C$DW$T$170, DW_AT_type(*$C$DW$T$79)
    4105                            .dwattr $C$DW$T$170, DW_AT_language(DW_LANG_C)
    4106                    $C$DW$224       .dwtag  DW_TAG_formal_parameter
    4107                            .dwattr $C$DW$224, DW_AT_type(*$C$DW$T$94)
    4108                    
    4109                    $C$DW$225       .dwtag  DW_TAG_formal_parameter
    4110                            .dwattr $C$DW$225, DW_AT_type(*$C$DW$T$92)
    4111                    
    4112                    $C$DW$226       .dwtag  DW_TAG_formal_parameter
    4113                            .dwattr $C$DW$226, DW_AT_type(*$C$DW$T$169)
    4114                    
    4115                            .dwendtag $C$DW$T$170
TI ARM Assembler PC v16.9.8 Mon Dec 10 17:47:35 2018

Tools Copyright (c) 1996-2017 Texas Instruments Incorporated
C:\Users\Einstein\AppData\Local\Temp\{D8717E8C-C6B2-43EB-B59B-6498A87373A3} PAGE   76

    4116                    
    4117                    $C$DW$T$171     .dwtag  DW_TAG_pointer_type
    4118                            .dwattr $C$DW$T$171, DW_AT_type(*$C$DW$T$170)
    4119                            .dwattr $C$DW$T$171, DW_AT_address_class(0x20)
    4120                    
    4121                    $C$DW$T$172     .dwtag  DW_TAG_typedef
    4122                            .dwattr $C$DW$T$172, DW_AT_name("ICall_MsgMatchFn")
    4123                            .dwattr $C$DW$T$172, DW_AT_type(*$C$DW$T$171)
    4124                            .dwattr $C$DW$T$172, DW_AT_language(DW_LANG_C)
    4125                            .dwattr $C$DW$T$172, DW_AT_decl_file("C:/ti/simplelink_cc13x0_sdk_2_30_00_20/source/ti/ti154st
    4126                            .dwattr $C$DW$T$172, DW_AT_decl_line(0x1c1)
    4127                            .dwattr $C$DW$T$172, DW_AT_decl_column(0x10)
    4128                    
    4129                    
    4130                    $C$DW$T$103     .dwtag  DW_TAG_structure_type
    4131                            .dwattr $C$DW$T$103, DW_AT_name("_icall_alloc_args_t")
    4132                            .dwattr $C$DW$T$103, DW_AT_byte_size(0x0c)
    4133                    $C$DW$227       .dwtag  DW_TAG_member
    4134                            .dwattr $C$DW$227, DW_AT_type(*$C$DW$T$101)
    4135                            .dwattr $C$DW$227, DW_AT_name("hdr")
    4136                            .dwattr $C$DW$227, DW_AT_TI_symbol_name("hdr")
    4137                            .dwattr $C$DW$227, DW_AT_data_member_location[DW_OP_plus_uconst 0x0]
    4138                            .dwattr $C$DW$227, DW_AT_accessibility(DW_ACCESS_public)
    4139                            .dwattr $C$DW$227, DW_AT_decl_file("C:/ti/simplelink_cc13x0_sdk_2_30_00_20/source/ti/ti154stac
    4140                            .dwattr $C$DW$227, DW_AT_decl_line(0x1e3)
    4141                            .dwattr $C$DW$227, DW_AT_decl_column(0x15)
    4142                    
    4143                    $C$DW$228       .dwtag  DW_TAG_member
    4144                            .dwattr $C$DW$228, DW_AT_type(*$C$DW$T$102)
    4145                            .dwattr $C$DW$228, DW_AT_name("size")
    4146                            .dwattr $C$DW$228, DW_AT_TI_symbol_name("size")
    4147                            .dwattr $C$DW$228, DW_AT_data_member_location[DW_OP_plus_uconst 0x4]
    4148                            .dwattr $C$DW$228, DW_AT_accessibility(DW_ACCESS_public)
    4149                            .dwattr $C$DW$228, DW_AT_decl_file("C:/ti/simplelink_cc13x0_sdk_2_30_00_20/source/ti/ti154stac
    4150                            .dwattr $C$DW$228, DW_AT_decl_line(0x1e5)
    4151                            .dwattr $C$DW$228, DW_AT_decl_column(0x0a)
    4152                    
    4153                    $C$DW$229       .dwtag  DW_TAG_member
    4154                            .dwattr $C$DW$229, DW_AT_type(*$C$DW$T$3)
    4155                            .dwattr $C$DW$229, DW_AT_name("ptr")
    4156                            .dwattr $C$DW$229, DW_AT_TI_symbol_name("ptr")
    4157                            .dwattr $C$DW$229, DW_AT_data_member_location[DW_OP_plus_uconst 0x8]
    4158                            .dwattr $C$DW$229, DW_AT_accessibility(DW_ACCESS_public)
    4159                            .dwattr $C$DW$229, DW_AT_decl_file("C:/ti/simplelink_cc13x0_sdk_2_30_00_20/source/ti/ti154stac
    4160                            .dwattr $C$DW$229, DW_AT_decl_line(0x1e7)
    4161                            .dwattr $C$DW$229, DW_AT_decl_column(0x0a)
    4162                    
    4163                            .dwattr $C$DW$T$103, DW_AT_decl_file("C:/ti/simplelink_cc13x0_sdk_2_30_00_20/source/ti/ti154st
    4164                            .dwattr $C$DW$T$103, DW_AT_decl_line(0x1e0)
    4165                            .dwattr $C$DW$T$103, DW_AT_decl_column(0x10)
    4166                            .dwendtag $C$DW$T$103
    4167                    
    4168                    $C$DW$T$281     .dwtag  DW_TAG_typedef
    4169                            .dwattr $C$DW$T$281, DW_AT_name("ICall_AllocArgs")
    4170                            .dwattr $C$DW$T$281, DW_AT_type(*$C$DW$T$103)
TI ARM Assembler PC v16.9.8 Mon Dec 10 17:47:35 2018

Tools Copyright (c) 1996-2017 Texas Instruments Incorporated
C:\Users\Einstein\AppData\Local\Temp\{D8717E8C-C6B2-43EB-B59B-6498A87373A3} PAGE   77

    4171                            .dwattr $C$DW$T$281, DW_AT_language(DW_LANG_C)
    4172                            .dwattr $C$DW$T$281, DW_AT_decl_file("C:/ti/simplelink_cc13x0_sdk_2_30_00_20/source/ti/ti154st
    4173                            .dwattr $C$DW$T$281, DW_AT_decl_line(0x1e8)
    4174                            .dwattr $C$DW$T$281, DW_AT_decl_column(0x03)
    4175                    
    4176                    
    4177                    $C$DW$T$106     .dwtag  DW_TAG_structure_type
    4178                            .dwattr $C$DW$T$106, DW_AT_name("_icall_create_task_args_t")
    4179                            .dwattr $C$DW$T$106, DW_AT_byte_size(0x10)
    4180                    $C$DW$230       .dwtag  DW_TAG_member
    4181                            .dwattr $C$DW$230, DW_AT_type(*$C$DW$T$101)
    4182                            .dwattr $C$DW$230, DW_AT_name("hdr")
    4183                            .dwattr $C$DW$230, DW_AT_TI_symbol_name("hdr")
    4184                            .dwattr $C$DW$230, DW_AT_data_member_location[DW_OP_plus_uconst 0x0]
    4185                            .dwattr $C$DW$230, DW_AT_accessibility(DW_ACCESS_public)
    4186                            .dwattr $C$DW$230, DW_AT_decl_file("C:/ti/simplelink_cc13x0_sdk_2_30_00_20/source/ti/ti154stac
    4187                            .dwattr $C$DW$230, DW_AT_decl_line(0x2bc)
    4188                            .dwattr $C$DW$230, DW_AT_decl_column(0x15)
    4189                    
    4190                    $C$DW$231       .dwtag  DW_TAG_member
    4191                            .dwattr $C$DW$231, DW_AT_type(*$C$DW$T$105)
    4192                            .dwattr $C$DW$231, DW_AT_name("entryfn")
    4193                            .dwattr $C$DW$231, DW_AT_TI_symbol_name("entryfn")
    4194                            .dwattr $C$DW$231, DW_AT_data_member_location[DW_OP_plus_uconst 0x4]
    4195                            .dwattr $C$DW$231, DW_AT_accessibility(DW_ACCESS_public)
    4196                            .dwattr $C$DW$231, DW_AT_decl_file("C:/ti/simplelink_cc13x0_sdk_2_30_00_20/source/ti/ti154stac
    4197                            .dwattr $C$DW$231, DW_AT_decl_line(0x2be)
    4198                            .dwattr $C$DW$231, DW_AT_decl_column(0x0a)
    4199                    
    4200                    $C$DW$232       .dwtag  DW_TAG_member
    4201                            .dwattr $C$DW$232, DW_AT_type(*$C$DW$T$91)
    4202                            .dwattr $C$DW$232, DW_AT_name("priority")
    4203                            .dwattr $C$DW$232, DW_AT_TI_symbol_name("priority")
    4204                            .dwattr $C$DW$232, DW_AT_data_member_location[DW_OP_plus_uconst 0x8]
    4205                            .dwattr $C$DW$232, DW_AT_accessibility(DW_ACCESS_public)
    4206                            .dwattr $C$DW$232, DW_AT_decl_file("C:/ti/simplelink_cc13x0_sdk_2_30_00_20/source/ti/ti154stac
    4207                            .dwattr $C$DW$232, DW_AT_decl_line(0x2c0)
    4208                            .dwattr $C$DW$232, DW_AT_decl_column(0x11)
    4209                    
    4210                    $C$DW$233       .dwtag  DW_TAG_member
    4211                            .dwattr $C$DW$233, DW_AT_type(*$C$DW$T$93)
    4212                            .dwattr $C$DW$233, DW_AT_name("stacksize")
    4213                            .dwattr $C$DW$233, DW_AT_TI_symbol_name("stacksize")
    4214                            .dwattr $C$DW$233, DW_AT_data_member_location[DW_OP_plus_uconst 0xa]
    4215                            .dwattr $C$DW$233, DW_AT_accessibility(DW_ACCESS_public)
    4216                            .dwattr $C$DW$233, DW_AT_decl_file("C:/ti/simplelink_cc13x0_sdk_2_30_00_20/source/ti/ti154stac
    4217                            .dwattr $C$DW$233, DW_AT_decl_line(0x2c2)
    4218                            .dwattr $C$DW$233, DW_AT_decl_column(0x12)
    4219                    
    4220                    $C$DW$234       .dwtag  DW_TAG_member
    4221                            .dwattr $C$DW$234, DW_AT_type(*$C$DW$T$102)
    4222                            .dwattr $C$DW$234, DW_AT_name("arg")
    4223                            .dwattr $C$DW$234, DW_AT_TI_symbol_name("arg")
    4224                            .dwattr $C$DW$234, DW_AT_data_member_location[DW_OP_plus_uconst 0xc]
    4225                            .dwattr $C$DW$234, DW_AT_accessibility(DW_ACCESS_public)
TI ARM Assembler PC v16.9.8 Mon Dec 10 17:47:35 2018

Tools Copyright (c) 1996-2017 Texas Instruments Incorporated
C:\Users\Einstein\AppData\Local\Temp\{D8717E8C-C6B2-43EB-B59B-6498A87373A3} PAGE   78

    4226                            .dwattr $C$DW$234, DW_AT_decl_file("C:/ti/simplelink_cc13x0_sdk_2_30_00_20/source/ti/ti154stac
    4227                            .dwattr $C$DW$234, DW_AT_decl_line(0x2c4)
    4228                            .dwattr $C$DW$234, DW_AT_decl_column(0x0a)
    4229                    
    4230                            .dwattr $C$DW$T$106, DW_AT_decl_file("C:/ti/simplelink_cc13x0_sdk_2_30_00_20/source/ti/ti154st
    4231                            .dwattr $C$DW$T$106, DW_AT_decl_line(0x2b9)
    4232                            .dwattr $C$DW$T$106, DW_AT_decl_column(0x10)
    4233                            .dwendtag $C$DW$T$106
    4234                    
    4235                    $C$DW$T$282     .dwtag  DW_TAG_typedef
    4236                            .dwattr $C$DW$T$282, DW_AT_name("ICall_CreateTaskArgs")
    4237                            .dwattr $C$DW$T$282, DW_AT_type(*$C$DW$T$106)
    4238                            .dwattr $C$DW$T$282, DW_AT_language(DW_LANG_C)
    4239                            .dwattr $C$DW$T$282, DW_AT_decl_file("C:/ti/simplelink_cc13x0_sdk_2_30_00_20/source/ti/ti154st
    4240                            .dwattr $C$DW$T$282, DW_AT_decl_line(0x2c5)
    4241                            .dwattr $C$DW$T$282, DW_AT_decl_column(0x03)
    4242                    
    4243                    
    4244                    $C$DW$T$115     .dwtag  DW_TAG_structure_type
    4245                            .dwattr $C$DW$T$115, DW_AT_name("_icall_enroll_service_args_t")
    4246                            .dwattr $C$DW$T$115, DW_AT_byte_size(0x14)
    4247                    $C$DW$235       .dwtag  DW_TAG_member
    4248                            .dwattr $C$DW$235, DW_AT_type(*$C$DW$T$101)
    4249                            .dwattr $C$DW$235, DW_AT_name("hdr")
    4250                            .dwattr $C$DW$235, DW_AT_TI_symbol_name("hdr")
    4251                            .dwattr $C$DW$235, DW_AT_data_member_location[DW_OP_plus_uconst 0x0]
    4252                            .dwattr $C$DW$235, DW_AT_accessibility(DW_ACCESS_public)
    4253                            .dwattr $C$DW$235, DW_AT_decl_file("C:/ti/simplelink_cc13x0_sdk_2_30_00_20/source/ti/ti154stac
    4254                            .dwattr $C$DW$235, DW_AT_decl_line(0x3a9)
    4255                            .dwattr $C$DW$235, DW_AT_decl_column(0x15)
    4256                    
    4257                    $C$DW$236       .dwtag  DW_TAG_member
    4258                            .dwattr $C$DW$236, DW_AT_type(*$C$DW$T$94)
    4259                            .dwattr $C$DW$236, DW_AT_name("service")
    4260                            .dwattr $C$DW$236, DW_AT_TI_symbol_name("service")
    4261                            .dwattr $C$DW$236, DW_AT_data_member_location[DW_OP_plus_uconst 0x4]
    4262                            .dwattr $C$DW$236, DW_AT_accessibility(DW_ACCESS_public)
    4263                            .dwattr $C$DW$236, DW_AT_decl_file("C:/ti/simplelink_cc13x0_sdk_2_30_00_20/source/ti/ti154stac
    4264                            .dwattr $C$DW$236, DW_AT_decl_line(0x3ab)
    4265                            .dwattr $C$DW$236, DW_AT_decl_column(0x15)
    4266                    
    4267                    $C$DW$237       .dwtag  DW_TAG_member
    4268                            .dwattr $C$DW$237, DW_AT_type(*$C$DW$T$113)
    4269                            .dwattr $C$DW$237, DW_AT_name("fn")
    4270                            .dwattr $C$DW$237, DW_AT_TI_symbol_name("fn")
    4271                            .dwattr $C$DW$237, DW_AT_data_member_location[DW_OP_plus_uconst 0x8]
    4272                            .dwattr $C$DW$237, DW_AT_accessibility(DW_ACCESS_public)
    4273                            .dwattr $C$DW$237, DW_AT_decl_file("C:/ti/simplelink_cc13x0_sdk_2_30_00_20/source/ti/ti154stac
    4274                            .dwattr $C$DW$237, DW_AT_decl_line(0x3ad)
    4275                            .dwattr $C$DW$237, DW_AT_decl_column(0x15)
    4276                    
    4277                    $C$DW$238       .dwtag  DW_TAG_member
    4278                            .dwattr $C$DW$238, DW_AT_type(*$C$DW$T$92)
    4279                            .dwattr $C$DW$238, DW_AT_name("entity")
    4280                            .dwattr $C$DW$238, DW_AT_TI_symbol_name("entity")
TI ARM Assembler PC v16.9.8 Mon Dec 10 17:47:35 2018

Tools Copyright (c) 1996-2017 Texas Instruments Incorporated
C:\Users\Einstein\AppData\Local\Temp\{D8717E8C-C6B2-43EB-B59B-6498A87373A3} PAGE   79

    4281                            .dwattr $C$DW$238, DW_AT_data_member_location[DW_OP_plus_uconst 0xc]
    4282                            .dwattr $C$DW$238, DW_AT_accessibility(DW_ACCESS_public)
    4283                            .dwattr $C$DW$238, DW_AT_decl_file("C:/ti/simplelink_cc13x0_sdk_2_30_00_20/source/ti/ti154stac
    4284                            .dwattr $C$DW$238, DW_AT_decl_line(0x3af)
    4285                            .dwattr $C$DW$238, DW_AT_decl_column(0x12)
    4286                    
    4287                    $C$DW$239       .dwtag  DW_TAG_member
    4288                            .dwattr $C$DW$239, DW_AT_type(*$C$DW$T$114)
    4289                            .dwattr $C$DW$239, DW_AT_name("msgSyncHdl")
    4290                            .dwattr $C$DW$239, DW_AT_TI_symbol_name("msgSyncHdl")
    4291                            .dwattr $C$DW$239, DW_AT_data_member_location[DW_OP_plus_uconst 0x10]
    4292                            .dwattr $C$DW$239, DW_AT_accessibility(DW_ACCESS_public)
    4293                            .dwattr $C$DW$239, DW_AT_decl_file("C:/ti/simplelink_cc13x0_sdk_2_30_00_20/source/ti/ti154stac
    4294                            .dwattr $C$DW$239, DW_AT_decl_line(0x3b2)
    4295                            .dwattr $C$DW$239, DW_AT_decl_column(0x14)
    4296                    
    4297                            .dwattr $C$DW$T$115, DW_AT_decl_file("C:/ti/simplelink_cc13x0_sdk_2_30_00_20/source/ti/ti154st
    4298                            .dwattr $C$DW$T$115, DW_AT_decl_line(0x3a6)
    4299                            .dwattr $C$DW$T$115, DW_AT_decl_column(0x10)
    4300                            .dwendtag $C$DW$T$115
    4301                    
    4302                    $C$DW$T$283     .dwtag  DW_TAG_typedef
    4303                            .dwattr $C$DW$T$283, DW_AT_name("ICall_EnrollServiceArgs")
    4304                            .dwattr $C$DW$T$283, DW_AT_type(*$C$DW$T$115)
    4305                            .dwattr $C$DW$T$283, DW_AT_language(DW_LANG_C)
    4306                            .dwattr $C$DW$T$283, DW_AT_decl_file("C:/ti/simplelink_cc13x0_sdk_2_30_00_20/source/ti/ti154st
    4307                            .dwattr $C$DW$T$283, DW_AT_decl_line(0x3b3)
    4308                            .dwattr $C$DW$T$283, DW_AT_decl_column(0x03)
    4309                    
    4310                    
    4311                    $C$DW$T$116     .dwtag  DW_TAG_structure_type
    4312                            .dwattr $C$DW$T$116, DW_AT_name("_icall_entity2service_args_t")
    4313                            .dwattr $C$DW$T$116, DW_AT_byte_size(0x08)
    4314                    $C$DW$240       .dwtag  DW_TAG_member
    4315                            .dwattr $C$DW$240, DW_AT_type(*$C$DW$T$101)
    4316                            .dwattr $C$DW$240, DW_AT_name("hdr")
    4317                            .dwattr $C$DW$240, DW_AT_TI_symbol_name("hdr")
    4318                            .dwattr $C$DW$240, DW_AT_data_member_location[DW_OP_plus_uconst 0x0]
    4319                            .dwattr $C$DW$240, DW_AT_accessibility(DW_ACCESS_public)
    4320                            .dwattr $C$DW$240, DW_AT_decl_file("C:/ti/simplelink_cc13x0_sdk_2_30_00_20/source/ti/ti154stac
    4321                            .dwattr $C$DW$240, DW_AT_decl_line(0x23e)
    4322                            .dwattr $C$DW$240, DW_AT_decl_column(0x15)
    4323                    
    4324                    $C$DW$241       .dwtag  DW_TAG_member
    4325                            .dwattr $C$DW$241, DW_AT_type(*$C$DW$T$92)
    4326                            .dwattr $C$DW$241, DW_AT_name("entityId")
    4327                            .dwattr $C$DW$241, DW_AT_TI_symbol_name("entityId")
    4328                            .dwattr $C$DW$241, DW_AT_data_member_location[DW_OP_plus_uconst 0x4]
    4329                            .dwattr $C$DW$241, DW_AT_accessibility(DW_ACCESS_public)
    4330                            .dwattr $C$DW$241, DW_AT_decl_file("C:/ti/simplelink_cc13x0_sdk_2_30_00_20/source/ti/ti154stac
    4331                            .dwattr $C$DW$241, DW_AT_decl_line(0x240)
    4332                            .dwattr $C$DW$241, DW_AT_decl_column(0x12)
    4333                    
    4334                    $C$DW$242       .dwtag  DW_TAG_member
    4335                            .dwattr $C$DW$242, DW_AT_type(*$C$DW$T$94)
TI ARM Assembler PC v16.9.8 Mon Dec 10 17:47:35 2018

Tools Copyright (c) 1996-2017 Texas Instruments Incorporated
C:\Users\Einstein\AppData\Local\Temp\{D8717E8C-C6B2-43EB-B59B-6498A87373A3} PAGE   80

    4336                            .dwattr $C$DW$242, DW_AT_name("servId")
    4337                            .dwattr $C$DW$242, DW_AT_TI_symbol_name("servId")
    4338                            .dwattr $C$DW$242, DW_AT_data_member_location[DW_OP_plus_uconst 0x6]
    4339                            .dwattr $C$DW$242, DW_AT_accessibility(DW_ACCESS_public)
    4340                            .dwattr $C$DW$242, DW_AT_decl_file("C:/ti/simplelink_cc13x0_sdk_2_30_00_20/source/ti/ti154stac
    4341                            .dwattr $C$DW$242, DW_AT_decl_line(0x242)
    4342                            .dwattr $C$DW$242, DW_AT_decl_column(0x15)
    4343                    
    4344                            .dwattr $C$DW$T$116, DW_AT_decl_file("C:/ti/simplelink_cc13x0_sdk_2_30_00_20/source/ti/ti154st
    4345                            .dwattr $C$DW$T$116, DW_AT_decl_line(0x23b)
    4346                            .dwattr $C$DW$T$116, DW_AT_decl_column(0x10)
    4347                            .dwendtag $C$DW$T$116
    4348                    
    4349                    $C$DW$T$284     .dwtag  DW_TAG_typedef
    4350                            .dwattr $C$DW$T$284, DW_AT_name("ICall_EntityId2ServiceIdArgs")
    4351                            .dwattr $C$DW$T$284, DW_AT_type(*$C$DW$T$116)
    4352                            .dwattr $C$DW$T$284, DW_AT_language(DW_LANG_C)
    4353                            .dwattr $C$DW$T$284, DW_AT_decl_file("C:/ti/simplelink_cc13x0_sdk_2_30_00_20/source/ti/ti154st
    4354                            .dwattr $C$DW$T$284, DW_AT_decl_line(0x243)
    4355                            .dwattr $C$DW$T$284, DW_AT_decl_column(0x03)
    4356                    
    4357                    
    4358                    $C$DW$T$117     .dwtag  DW_TAG_structure_type
    4359                            .dwattr $C$DW$T$117, DW_AT_name("_icall_fetch_msg_args_t")
    4360                            .dwattr $C$DW$T$117, DW_AT_byte_size(0x0c)
    4361                    $C$DW$243       .dwtag  DW_TAG_member
    4362                            .dwattr $C$DW$243, DW_AT_type(*$C$DW$T$101)
    4363                            .dwattr $C$DW$243, DW_AT_name("hdr")
    4364                            .dwattr $C$DW$243, DW_AT_TI_symbol_name("hdr")
    4365                            .dwattr $C$DW$243, DW_AT_data_member_location[DW_OP_plus_uconst 0x0]
    4366                            .dwattr $C$DW$243, DW_AT_accessibility(DW_ACCESS_public)
    4367                            .dwattr $C$DW$243, DW_AT_decl_file("C:/ti/simplelink_cc13x0_sdk_2_30_00_20/source/ti/ti154stac
    4368                            .dwattr $C$DW$243, DW_AT_decl_line(0x20c)
    4369                            .dwattr $C$DW$243, DW_AT_decl_column(0x15)
    4370                    
    4371                    $C$DW$244       .dwtag  DW_TAG_member
    4372                            .dwattr $C$DW$244, DW_AT_type(*$C$DW$T$96)
    4373                            .dwattr $C$DW$244, DW_AT_name("src")
    4374                            .dwattr $C$DW$244, DW_AT_TI_symbol_name("src")
    4375                            .dwattr $C$DW$244, DW_AT_data_member_location[DW_OP_plus_uconst 0x4]
    4376                            .dwattr $C$DW$244, DW_AT_accessibility(DW_ACCESS_public)
    4377                            .dwattr $C$DW$244, DW_AT_decl_file("C:/ti/simplelink_cc13x0_sdk_2_30_00_20/source/ti/ti154stac
    4378                            .dwattr $C$DW$244, DW_AT_decl_line(0x214)
    4379                            .dwattr $C$DW$244, DW_AT_decl_column(0x05)
    4380                    
    4381                    $C$DW$245       .dwtag  DW_TAG_member
    4382                            .dwattr $C$DW$245, DW_AT_type(*$C$DW$T$92)
    4383                            .dwattr $C$DW$245, DW_AT_name("dest")
    4384                            .dwattr $C$DW$245, DW_AT_TI_symbol_name("dest")
    4385                            .dwattr $C$DW$245, DW_AT_data_member_location[DW_OP_plus_uconst 0x6]
    4386                            .dwattr $C$DW$245, DW_AT_accessibility(DW_ACCESS_public)
    4387                            .dwattr $C$DW$245, DW_AT_decl_file("C:/ti/simplelink_cc13x0_sdk_2_30_00_20/source/ti/ti154stac
    4388                            .dwattr $C$DW$245, DW_AT_decl_line(0x216)
    4389                            .dwattr $C$DW$245, DW_AT_decl_column(0x12)
    4390                    
TI ARM Assembler PC v16.9.8 Mon Dec 10 17:47:35 2018

Tools Copyright (c) 1996-2017 Texas Instruments Incorporated
C:\Users\Einstein\AppData\Local\Temp\{D8717E8C-C6B2-43EB-B59B-6498A87373A3} PAGE   81

    4391                    $C$DW$246       .dwtag  DW_TAG_member
    4392                            .dwattr $C$DW$246, DW_AT_type(*$C$DW$T$3)
    4393                            .dwattr $C$DW$246, DW_AT_name("msg")
    4394                            .dwattr $C$DW$246, DW_AT_TI_symbol_name("msg")
    4395                            .dwattr $C$DW$246, DW_AT_data_member_location[DW_OP_plus_uconst 0x8]
    4396                            .dwattr $C$DW$246, DW_AT_accessibility(DW_ACCESS_public)
    4397                            .dwattr $C$DW$246, DW_AT_decl_file("C:/ti/simplelink_cc13x0_sdk_2_30_00_20/source/ti/ti154stac
    4398                            .dwattr $C$DW$246, DW_AT_decl_line(0x218)
    4399                            .dwattr $C$DW$246, DW_AT_decl_column(0x09)
    4400                    
    4401                            .dwattr $C$DW$T$117, DW_AT_decl_file("C:/ti/simplelink_cc13x0_sdk_2_30_00_20/source/ti/ti154st
    4402                            .dwattr $C$DW$T$117, DW_AT_decl_line(0x209)
    4403                            .dwattr $C$DW$T$117, DW_AT_decl_column(0x10)
    4404                            .dwendtag $C$DW$T$117
    4405                    
    4406                    $C$DW$T$285     .dwtag  DW_TAG_typedef
    4407                            .dwattr $C$DW$T$285, DW_AT_name("ICall_FetchMsgArgs")
    4408                            .dwattr $C$DW$T$285, DW_AT_type(*$C$DW$T$117)
    4409                            .dwattr $C$DW$T$285, DW_AT_language(DW_LANG_C)
    4410                            .dwattr $C$DW$T$285, DW_AT_decl_file("C:/ti/simplelink_cc13x0_sdk_2_30_00_20/source/ti/ti154st
    4411                            .dwattr $C$DW$T$285, DW_AT_decl_line(0x219)
    4412                            .dwattr $C$DW$T$285, DW_AT_decl_column(0x03)
    4413                    
    4414                    
    4415                    $C$DW$T$118     .dwtag  DW_TAG_structure_type
    4416                            .dwattr $C$DW$T$118, DW_AT_name("_icall_free_args_t")
    4417                            .dwattr $C$DW$T$118, DW_AT_byte_size(0x08)
    4418                    $C$DW$247       .dwtag  DW_TAG_member
    4419                            .dwattr $C$DW$247, DW_AT_type(*$C$DW$T$101)
    4420                            .dwattr $C$DW$247, DW_AT_name("hdr")
    4421                            .dwattr $C$DW$247, DW_AT_TI_symbol_name("hdr")
    4422                            .dwattr $C$DW$247, DW_AT_data_member_location[DW_OP_plus_uconst 0x0]
    4423                            .dwattr $C$DW$247, DW_AT_accessibility(DW_ACCESS_public)
    4424                            .dwattr $C$DW$247, DW_AT_decl_file("C:/ti/simplelink_cc13x0_sdk_2_30_00_20/source/ti/ti154stac
    4425                            .dwattr $C$DW$247, DW_AT_decl_line(0x1ee)
    4426                            .dwattr $C$DW$247, DW_AT_decl_column(0x15)
    4427                    
    4428                    $C$DW$248       .dwtag  DW_TAG_member
    4429                            .dwattr $C$DW$248, DW_AT_type(*$C$DW$T$3)
    4430                            .dwattr $C$DW$248, DW_AT_name("ptr")
    4431                            .dwattr $C$DW$248, DW_AT_TI_symbol_name("ptr")
    4432                            .dwattr $C$DW$248, DW_AT_data_member_location[DW_OP_plus_uconst 0x4]
    4433                            .dwattr $C$DW$248, DW_AT_accessibility(DW_ACCESS_public)
    4434                            .dwattr $C$DW$248, DW_AT_decl_file("C:/ti/simplelink_cc13x0_sdk_2_30_00_20/source/ti/ti154stac
    4435                            .dwattr $C$DW$248, DW_AT_decl_line(0x1f0)
    4436                            .dwattr $C$DW$248, DW_AT_decl_column(0x0a)
    4437                    
    4438                            .dwattr $C$DW$T$118, DW_AT_decl_file("C:/ti/simplelink_cc13x0_sdk_2_30_00_20/source/ti/ti154st
    4439                            .dwattr $C$DW$T$118, DW_AT_decl_line(0x1eb)
    4440                            .dwattr $C$DW$T$118, DW_AT_decl_column(0x10)
    4441                            .dwendtag $C$DW$T$118
    4442                    
    4443                    $C$DW$T$286     .dwtag  DW_TAG_typedef
    4444                            .dwattr $C$DW$T$286, DW_AT_name("ICall_FreeArgs")
    4445                            .dwattr $C$DW$T$286, DW_AT_type(*$C$DW$T$118)
TI ARM Assembler PC v16.9.8 Mon Dec 10 17:47:35 2018

Tools Copyright (c) 1996-2017 Texas Instruments Incorporated
C:\Users\Einstein\AppData\Local\Temp\{D8717E8C-C6B2-43EB-B59B-6498A87373A3} PAGE   82

    4446                            .dwattr $C$DW$T$286, DW_AT_language(DW_LANG_C)
    4447                            .dwattr $C$DW$T$286, DW_AT_decl_file("C:/ti/simplelink_cc13x0_sdk_2_30_00_20/source/ti/ti154st
    4448                            .dwattr $C$DW$T$286, DW_AT_decl_line(0x1f1)
    4449                            .dwattr $C$DW$T$286, DW_AT_decl_column(0x03)
    4450                    
    4451                    
    4452                    $C$DW$T$120     .dwtag  DW_TAG_structure_type
    4453                            .dwattr $C$DW$T$120, DW_AT_name("_icall_func_args_hdr_t")
    4454                            .dwattr $C$DW$T$120, DW_AT_byte_size(0x04)
    4455                    $C$DW$249       .dwtag  DW_TAG_member
    4456                            .dwattr $C$DW$249, DW_AT_type(*$C$DW$T$94)
    4457                            .dwattr $C$DW$249, DW_AT_name("service")
    4458                            .dwattr $C$DW$249, DW_AT_TI_symbol_name("service")
    4459                            .dwattr $C$DW$249, DW_AT_data_member_location[DW_OP_plus_uconst 0x0]
    4460                            .dwattr $C$DW$249, DW_AT_accessibility(DW_ACCESS_public)
    4461                            .dwattr $C$DW$249, DW_AT_decl_file("C:/ti/simplelink_cc13x0_sdk_2_30_00_20/source/ti/ti154stac
    4462                            .dwattr $C$DW$249, DW_AT_decl_line(0x1ce)
    4463                            .dwattr $C$DW$249, DW_AT_decl_column(0x15)
    4464                    
    4465                    $C$DW$250       .dwtag  DW_TAG_member
    4466                            .dwattr $C$DW$250, DW_AT_type(*$C$DW$T$119)
    4467                            .dwattr $C$DW$250, DW_AT_name("func")
    4468                            .dwattr $C$DW$250, DW_AT_TI_symbol_name("func")
    4469                            .dwattr $C$DW$250, DW_AT_data_member_location[DW_OP_plus_uconst 0x2]
    4470                            .dwattr $C$DW$250, DW_AT_accessibility(DW_ACCESS_public)
    4471                            .dwattr $C$DW$250, DW_AT_decl_file("C:/ti/simplelink_cc13x0_sdk_2_30_00_20/source/ti/ti154stac
    4472                            .dwattr $C$DW$250, DW_AT_decl_line(0x1d0)
    4473                            .dwattr $C$DW$250, DW_AT_decl_column(0x10)
    4474                    
    4475                            .dwattr $C$DW$T$120, DW_AT_decl_file("C:/ti/simplelink_cc13x0_sdk_2_30_00_20/source/ti/ti154st
    4476                            .dwattr $C$DW$T$120, DW_AT_decl_line(0x1cb)
    4477                            .dwattr $C$DW$T$120, DW_AT_decl_column(0x10)
    4478                            .dwendtag $C$DW$T$120
    4479                    
    4480                    $C$DW$T$101     .dwtag  DW_TAG_typedef
    4481                            .dwattr $C$DW$T$101, DW_AT_name("ICall_FuncArgsHdr")
    4482                            .dwattr $C$DW$T$101, DW_AT_type(*$C$DW$T$120)
    4483                            .dwattr $C$DW$T$101, DW_AT_language(DW_LANG_C)
    4484                            .dwattr $C$DW$T$101, DW_AT_decl_file("C:/ti/simplelink_cc13x0_sdk_2_30_00_20/source/ti/ti154st
    4485                            .dwattr $C$DW$T$101, DW_AT_decl_line(0x1d1)
    4486                            .dwattr $C$DW$T$101, DW_AT_decl_column(0x03)
    4487                    
    4488                    $C$DW$T$110     .dwtag  DW_TAG_pointer_type
    4489                            .dwattr $C$DW$T$110, DW_AT_type(*$C$DW$T$101)
    4490                            .dwattr $C$DW$T$110, DW_AT_address_class(0x20)
    4491                    
    4492                    
    4493                    $C$DW$T$121     .dwtag  DW_TAG_structure_type
    4494                            .dwattr $C$DW$T$121, DW_AT_name("_icall_get_entity_id_args_t")
    4495                            .dwattr $C$DW$T$121, DW_AT_byte_size(0x06)
    4496                    $C$DW$251       .dwtag  DW_TAG_member
    4497                            .dwattr $C$DW$251, DW_AT_type(*$C$DW$T$101)
    4498                            .dwattr $C$DW$251, DW_AT_name("hdr")
    4499                            .dwattr $C$DW$251, DW_AT_TI_symbol_name("hdr")
    4500                            .dwattr $C$DW$251, DW_AT_data_member_location[DW_OP_plus_uconst 0x0]
TI ARM Assembler PC v16.9.8 Mon Dec 10 17:47:35 2018

Tools Copyright (c) 1996-2017 Texas Instruments Incorporated
C:\Users\Einstein\AppData\Local\Temp\{D8717E8C-C6B2-43EB-B59B-6498A87373A3} PAGE   83

    4501                            .dwattr $C$DW$251, DW_AT_accessibility(DW_ACCESS_public)
    4502                            .dwattr $C$DW$251, DW_AT_decl_file("C:/ti/simplelink_cc13x0_sdk_2_30_00_20/source/ti/ti154stac
    4503                            .dwattr $C$DW$251, DW_AT_decl_line(0x362)
    4504                            .dwattr $C$DW$251, DW_AT_decl_column(0x15)
    4505                    
    4506                    $C$DW$252       .dwtag  DW_TAG_member
    4507                            .dwattr $C$DW$252, DW_AT_type(*$C$DW$T$92)
    4508                            .dwattr $C$DW$252, DW_AT_name("entity")
    4509                            .dwattr $C$DW$252, DW_AT_TI_symbol_name("entity")
    4510                            .dwattr $C$DW$252, DW_AT_data_member_location[DW_OP_plus_uconst 0x4]
    4511                            .dwattr $C$DW$252, DW_AT_accessibility(DW_ACCESS_public)
    4512                            .dwattr $C$DW$252, DW_AT_decl_file("C:/ti/simplelink_cc13x0_sdk_2_30_00_20/source/ti/ti154stac
    4513                            .dwattr $C$DW$252, DW_AT_decl_line(0x364)
    4514                            .dwattr $C$DW$252, DW_AT_decl_column(0x12)
    4515                    
    4516                            .dwattr $C$DW$T$121, DW_AT_decl_file("C:/ti/simplelink_cc13x0_sdk_2_30_00_20/source/ti/ti154st
    4517                            .dwattr $C$DW$T$121, DW_AT_decl_line(0x35f)
    4518                            .dwattr $C$DW$T$121, DW_AT_decl_column(0x10)
    4519                            .dwendtag $C$DW$T$121
    4520                    
    4521                    $C$DW$T$287     .dwtag  DW_TAG_typedef
    4522                            .dwattr $C$DW$T$287, DW_AT_name("ICall_GetEntityIdArgs")
    4523                            .dwattr $C$DW$T$287, DW_AT_type(*$C$DW$T$121)
    4524                            .dwattr $C$DW$T$287, DW_AT_language(DW_LANG_C)
    4525                            .dwattr $C$DW$T$287, DW_AT_decl_file("C:/ti/simplelink_cc13x0_sdk_2_30_00_20/source/ti/ti154st
    4526                            .dwattr $C$DW$T$287, DW_AT_decl_line(0x365)
    4527                            .dwattr $C$DW$T$287, DW_AT_decl_column(0x03)
    4528                    
    4529                    
    4530                    $C$DW$T$122     .dwtag  DW_TAG_structure_type
    4531                            .dwattr $C$DW$T$122, DW_AT_name("_icall_get_local_msg_entity_id_args_t")
    4532                            .dwattr $C$DW$T$122, DW_AT_byte_size(0x08)
    4533                    $C$DW$253       .dwtag  DW_TAG_member
    4534                            .dwattr $C$DW$253, DW_AT_type(*$C$DW$T$101)
    4535                            .dwattr $C$DW$253, DW_AT_name("hdr")
    4536                            .dwattr $C$DW$253, DW_AT_TI_symbol_name("hdr")
    4537                            .dwattr $C$DW$253, DW_AT_data_member_location[DW_OP_plus_uconst 0x0]
    4538                            .dwattr $C$DW$253, DW_AT_accessibility(DW_ACCESS_public)
    4539                            .dwattr $C$DW$253, DW_AT_decl_file("C:/ti/simplelink_cc13x0_sdk_2_30_00_20/source/ti/ti154stac
    4540                            .dwattr $C$DW$253, DW_AT_decl_line(0x3d1)
    4541                            .dwattr $C$DW$253, DW_AT_decl_column(0x15)
    4542                    
    4543                    $C$DW$254       .dwtag  DW_TAG_member
    4544                            .dwattr $C$DW$254, DW_AT_type(*$C$DW$T$94)
    4545                            .dwattr $C$DW$254, DW_AT_name("service")
    4546                            .dwattr $C$DW$254, DW_AT_TI_symbol_name("service")
    4547                            .dwattr $C$DW$254, DW_AT_data_member_location[DW_OP_plus_uconst 0x4]
    4548                            .dwattr $C$DW$254, DW_AT_accessibility(DW_ACCESS_public)
    4549                            .dwattr $C$DW$254, DW_AT_decl_file("C:/ti/simplelink_cc13x0_sdk_2_30_00_20/source/ti/ti154stac
    4550                            .dwattr $C$DW$254, DW_AT_decl_line(0x3d3)
    4551                            .dwattr $C$DW$254, DW_AT_decl_column(0x15)
    4552                    
    4553                    $C$DW$255       .dwtag  DW_TAG_member
    4554                            .dwattr $C$DW$255, DW_AT_type(*$C$DW$T$92)
    4555                            .dwattr $C$DW$255, DW_AT_name("entity")
TI ARM Assembler PC v16.9.8 Mon Dec 10 17:47:35 2018

Tools Copyright (c) 1996-2017 Texas Instruments Incorporated
C:\Users\Einstein\AppData\Local\Temp\{D8717E8C-C6B2-43EB-B59B-6498A87373A3} PAGE   84

    4556                            .dwattr $C$DW$255, DW_AT_TI_symbol_name("entity")
    4557                            .dwattr $C$DW$255, DW_AT_data_member_location[DW_OP_plus_uconst 0x6]
    4558                            .dwattr $C$DW$255, DW_AT_accessibility(DW_ACCESS_public)
    4559                            .dwattr $C$DW$255, DW_AT_decl_file("C:/ti/simplelink_cc13x0_sdk_2_30_00_20/source/ti/ti154stac
    4560                            .dwattr $C$DW$255, DW_AT_decl_line(0x3d5)
    4561                            .dwattr $C$DW$255, DW_AT_decl_column(0x12)
    4562                    
    4563                    $C$DW$256       .dwtag  DW_TAG_member
    4564                            .dwattr $C$DW$256, DW_AT_type(*$C$DW$T$91)
    4565                            .dwattr $C$DW$256, DW_AT_name("localId")
    4566                            .dwattr $C$DW$256, DW_AT_TI_symbol_name("localId")
    4567                            .dwattr $C$DW$256, DW_AT_data_member_location[DW_OP_plus_uconst 0x7]
    4568                            .dwattr $C$DW$256, DW_AT_accessibility(DW_ACCESS_public)
    4569                            .dwattr $C$DW$256, DW_AT_decl_file("C:/ti/simplelink_cc13x0_sdk_2_30_00_20/source/ti/ti154stac
    4570                            .dwattr $C$DW$256, DW_AT_decl_line(0x3d7)
    4571                            .dwattr $C$DW$256, DW_AT_decl_column(0x11)
    4572                    
    4573                            .dwattr $C$DW$T$122, DW_AT_decl_file("C:/ti/simplelink_cc13x0_sdk_2_30_00_20/source/ti/ti154st
    4574                            .dwattr $C$DW$T$122, DW_AT_decl_line(0x3ce)
    4575                            .dwattr $C$DW$T$122, DW_AT_decl_column(0x10)
    4576                            .dwendtag $C$DW$T$122
    4577                    
    4578                    $C$DW$T$288     .dwtag  DW_TAG_typedef
    4579                            .dwattr $C$DW$T$288, DW_AT_name("ICall_GetLocalMsgEntityIdArgs")
    4580                            .dwattr $C$DW$T$288, DW_AT_type(*$C$DW$T$122)
    4581                            .dwattr $C$DW$T$288, DW_AT_language(DW_LANG_C)
    4582                            .dwattr $C$DW$T$288, DW_AT_decl_file("C:/ti/simplelink_cc13x0_sdk_2_30_00_20/source/ti/ti154st
    4583                            .dwattr $C$DW$T$288, DW_AT_decl_line(0x3d8)
    4584                            .dwattr $C$DW$T$288, DW_AT_decl_column(0x03)
    4585                    
    4586                    
    4587                    $C$DW$T$123     .dwtag  DW_TAG_structure_type
    4588                            .dwattr $C$DW$T$123, DW_AT_name("_icall_getbool_args_t")
    4589                            .dwattr $C$DW$T$123, DW_AT_byte_size(0x06)
    4590                    $C$DW$257       .dwtag  DW_TAG_member
    4591                            .dwattr $C$DW$257, DW_AT_type(*$C$DW$T$101)
    4592                            .dwattr $C$DW$257, DW_AT_name("hdr")
    4593                            .dwattr $C$DW$257, DW_AT_TI_symbol_name("hdr")
    4594                            .dwattr $C$DW$257, DW_AT_data_member_location[DW_OP_plus_uconst 0x0]
    4595                            .dwattr $C$DW$257, DW_AT_accessibility(DW_ACCESS_public)
    4596                            .dwattr $C$DW$257, DW_AT_decl_file("C:/ti/simplelink_cc13x0_sdk_2_30_00_20/source/ti/ti154stac
    4597                            .dwattr $C$DW$257, DW_AT_decl_line(0x274)
    4598                            .dwattr $C$DW$257, DW_AT_decl_column(0x15)
    4599                    
    4600                    $C$DW$258       .dwtag  DW_TAG_member
    4601                            .dwattr $C$DW$258, DW_AT_type(*$C$DW$T$79)
    4602                            .dwattr $C$DW$258, DW_AT_name("value")
    4603                            .dwattr $C$DW$258, DW_AT_TI_symbol_name("value")
    4604                            .dwattr $C$DW$258, DW_AT_data_member_location[DW_OP_plus_uconst 0x4]
    4605                            .dwattr $C$DW$258, DW_AT_accessibility(DW_ACCESS_public)
    4606                            .dwattr $C$DW$258, DW_AT_decl_file("C:/ti/simplelink_cc13x0_sdk_2_30_00_20/source/ti/ti154stac
    4607                            .dwattr $C$DW$258, DW_AT_decl_line(0x276)
    4608                            .dwattr $C$DW$258, DW_AT_decl_column(0x08)
    4609                    
    4610                            .dwattr $C$DW$T$123, DW_AT_decl_file("C:/ti/simplelink_cc13x0_sdk_2_30_00_20/source/ti/ti154st
TI ARM Assembler PC v16.9.8 Mon Dec 10 17:47:35 2018

Tools Copyright (c) 1996-2017 Texas Instruments Incorporated
C:\Users\Einstein\AppData\Local\Temp\{D8717E8C-C6B2-43EB-B59B-6498A87373A3} PAGE   85

    4611                            .dwattr $C$DW$T$123, DW_AT_decl_line(0x271)
    4612                            .dwattr $C$DW$T$123, DW_AT_decl_column(0x10)
    4613                            .dwendtag $C$DW$T$123
    4614                    
    4615                    $C$DW$T$289     .dwtag  DW_TAG_typedef
    4616                            .dwattr $C$DW$T$289, DW_AT_name("ICall_GetBoolArgs")
    4617                            .dwattr $C$DW$T$289, DW_AT_type(*$C$DW$T$123)
    4618                            .dwattr $C$DW$T$289, DW_AT_language(DW_LANG_C)
    4619                            .dwattr $C$DW$T$289, DW_AT_decl_file("C:/ti/simplelink_cc13x0_sdk_2_30_00_20/source/ti/ti154st
    4620                            .dwattr $C$DW$T$289, DW_AT_decl_line(0x277)
    4621                            .dwattr $C$DW$T$289, DW_AT_decl_column(0x03)
    4622                    
    4623                    
    4624                    $C$DW$T$124     .dwtag  DW_TAG_structure_type
    4625                            .dwattr $C$DW$T$124, DW_AT_name("_icall_getuint32_args_t")
    4626                            .dwattr $C$DW$T$124, DW_AT_byte_size(0x08)
    4627                    $C$DW$259       .dwtag  DW_TAG_member
    4628                            .dwattr $C$DW$259, DW_AT_type(*$C$DW$T$101)
    4629                            .dwattr $C$DW$259, DW_AT_name("hdr")
    4630                            .dwattr $C$DW$259, DW_AT_TI_symbol_name("hdr")
    4631                            .dwattr $C$DW$259, DW_AT_data_member_location[DW_OP_plus_uconst 0x0]
    4632                            .dwattr $C$DW$259, DW_AT_accessibility(DW_ACCESS_public)
    4633                            .dwattr $C$DW$259, DW_AT_decl_file("C:/ti/simplelink_cc13x0_sdk_2_30_00_20/source/ti/ti154stac
    4634                            .dwattr $C$DW$259, DW_AT_decl_line(0x269)
    4635                            .dwattr $C$DW$259, DW_AT_decl_column(0x15)
    4636                    
    4637                    $C$DW$260       .dwtag  DW_TAG_member
    4638                            .dwattr $C$DW$260, DW_AT_type(*$C$DW$T$69)
    4639                            .dwattr $C$DW$260, DW_AT_name("value")
    4640                            .dwattr $C$DW$260, DW_AT_TI_symbol_name("value")
    4641                            .dwattr $C$DW$260, DW_AT_data_member_location[DW_OP_plus_uconst 0x4]
    4642                            .dwattr $C$DW$260, DW_AT_accessibility(DW_ACCESS_public)
    4643                            .dwattr $C$DW$260, DW_AT_decl_file("C:/ti/simplelink_cc13x0_sdk_2_30_00_20/source/ti/ti154stac
    4644                            .dwattr $C$DW$260, DW_AT_decl_line(0x26b)
    4645                            .dwattr $C$DW$260, DW_AT_decl_column(0x12)
    4646                    
    4647                            .dwattr $C$DW$T$124, DW_AT_decl_file("C:/ti/simplelink_cc13x0_sdk_2_30_00_20/source/ti/ti154st
    4648                            .dwattr $C$DW$T$124, DW_AT_decl_line(0x266)
    4649                            .dwattr $C$DW$T$124, DW_AT_decl_column(0x10)
    4650                            .dwendtag $C$DW$T$124
    4651                    
    4652                    $C$DW$T$290     .dwtag  DW_TAG_typedef
    4653                            .dwattr $C$DW$T$290, DW_AT_name("ICall_GetUint32Args")
    4654                            .dwattr $C$DW$T$290, DW_AT_type(*$C$DW$T$124)
    4655                            .dwattr $C$DW$T$290, DW_AT_language(DW_LANG_C)
    4656                            .dwattr $C$DW$T$290, DW_AT_decl_file("C:/ti/simplelink_cc13x0_sdk_2_30_00_20/source/ti/ti154st
    4657                            .dwattr $C$DW$T$290, DW_AT_decl_line(0x26c)
    4658                            .dwattr $C$DW$T$290, DW_AT_decl_column(0x03)
    4659                    
    4660                    
    4661                    $C$DW$T$126     .dwtag  DW_TAG_structure_type
    4662                            .dwattr $C$DW$T$126, DW_AT_name("_icall_intnum_args_t")
    4663                            .dwattr $C$DW$T$126, DW_AT_byte_size(0x08)
    4664                    $C$DW$261       .dwtag  DW_TAG_member
    4665                            .dwattr $C$DW$261, DW_AT_type(*$C$DW$T$101)
TI ARM Assembler PC v16.9.8 Mon Dec 10 17:47:35 2018

Tools Copyright (c) 1996-2017 Texas Instruments Incorporated
C:\Users\Einstein\AppData\Local\Temp\{D8717E8C-C6B2-43EB-B59B-6498A87373A3} PAGE   86

    4666                            .dwattr $C$DW$261, DW_AT_name("hdr")
    4667                            .dwattr $C$DW$261, DW_AT_TI_symbol_name("hdr")
    4668                            .dwattr $C$DW$261, DW_AT_data_member_location[DW_OP_plus_uconst 0x0]
    4669                            .dwattr $C$DW$261, DW_AT_accessibility(DW_ACCESS_public)
    4670                            .dwattr $C$DW$261, DW_AT_decl_file("C:/ti/simplelink_cc13x0_sdk_2_30_00_20/source/ti/ti154stac
    4671                            .dwattr $C$DW$261, DW_AT_decl_line(0x249)
    4672                            .dwattr $C$DW$261, DW_AT_decl_column(0x15)
    4673                    
    4674                    $C$DW$262       .dwtag  DW_TAG_member
    4675                            .dwattr $C$DW$262, DW_AT_type(*$C$DW$T$125)
    4676                            .dwattr $C$DW$262, DW_AT_name("intnum")
    4677                            .dwattr $C$DW$262, DW_AT_TI_symbol_name("intnum")
    4678                            .dwattr $C$DW$262, DW_AT_data_member_location[DW_OP_plus_uconst 0x4]
    4679                            .dwattr $C$DW$262, DW_AT_accessibility(DW_ACCESS_public)
    4680                            .dwattr $C$DW$262, DW_AT_decl_file("C:/ti/simplelink_cc13x0_sdk_2_30_00_20/source/ti/ti154stac
    4681                            .dwattr $C$DW$262, DW_AT_decl_line(0x24b)
    4682                            .dwattr $C$DW$262, DW_AT_decl_column(0x11)
    4683                    
    4684                            .dwattr $C$DW$T$126, DW_AT_decl_file("C:/ti/simplelink_cc13x0_sdk_2_30_00_20/source/ti/ti154st
    4685                            .dwattr $C$DW$T$126, DW_AT_decl_line(0x246)
    4686                            .dwattr $C$DW$T$126, DW_AT_decl_column(0x10)
    4687                            .dwendtag $C$DW$T$126
    4688                    
    4689                    $C$DW$T$291     .dwtag  DW_TAG_typedef
    4690                            .dwattr $C$DW$T$291, DW_AT_name("ICall_IntNumArgs")
    4691                            .dwattr $C$DW$T$291, DW_AT_type(*$C$DW$T$126)
    4692                            .dwattr $C$DW$T$291, DW_AT_language(DW_LANG_C)
    4693                            .dwattr $C$DW$T$291, DW_AT_decl_file("C:/ti/simplelink_cc13x0_sdk_2_30_00_20/source/ti/ti154st
    4694                            .dwattr $C$DW$T$291, DW_AT_decl_line(0x24c)
    4695                            .dwattr $C$DW$T$291, DW_AT_decl_column(0x03)
    4696                    
    4697                    
    4698                    $C$DW$T$127     .dwtag  DW_TAG_structure_type
    4699                            .dwattr $C$DW$T$127, DW_AT_name("_icall_msg_hdr_t")
    4700                            .dwattr $C$DW$T$127, DW_AT_byte_size(0x0c)
    4701                    $C$DW$263       .dwtag  DW_TAG_member
    4702                            .dwattr $C$DW$263, DW_AT_type(*$C$DW$T$3)
    4703                            .dwattr $C$DW$263, DW_AT_name("next")
    4704                            .dwattr $C$DW$263, DW_AT_TI_symbol_name("next")
    4705                            .dwattr $C$DW$263, DW_AT_data_member_location[DW_OP_plus_uconst 0x0]
    4706                            .dwattr $C$DW$263, DW_AT_accessibility(DW_ACCESS_public)
    4707                            .dwattr $C$DW$263, DW_AT_decl_file("C:/ti/simplelink_cc13x0_sdk_2_30_00_20/source/ti/ti154stac
    4708                            .dwattr $C$DW$263, DW_AT_decl_line(0x317)
    4709                            .dwattr $C$DW$263, DW_AT_decl_column(0x0c)
    4710                    
    4711                    $C$DW$264       .dwtag  DW_TAG_member
    4712                            .dwattr $C$DW$264, DW_AT_type(*$C$DW$T$25)
    4713                            .dwattr $C$DW$264, DW_AT_name("srcentity")
    4714                            .dwattr $C$DW$264, DW_AT_TI_symbol_name("srcentity")
    4715                            .dwattr $C$DW$264, DW_AT_data_member_location[DW_OP_plus_uconst 0x4]
    4716                            .dwattr $C$DW$264, DW_AT_accessibility(DW_ACCESS_public)
    4717                            .dwattr $C$DW$264, DW_AT_decl_file("C:/ti/simplelink_cc13x0_sdk_2_30_00_20/source/ti/ti154stac
    4718                            .dwattr $C$DW$264, DW_AT_decl_line(0x318)
    4719                            .dwattr $C$DW$264, DW_AT_decl_column(0x0c)
    4720                    
TI ARM Assembler PC v16.9.8 Mon Dec 10 17:47:35 2018

Tools Copyright (c) 1996-2017 Texas Instruments Incorporated
C:\Users\Einstein\AppData\Local\Temp\{D8717E8C-C6B2-43EB-B59B-6498A87373A3} PAGE   87

    4721                    $C$DW$265       .dwtag  DW_TAG_member
    4722                            .dwattr $C$DW$265, DW_AT_type(*$C$DW$T$25)
    4723                            .dwattr $C$DW$265, DW_AT_name("dstentity")
    4724                            .dwattr $C$DW$265, DW_AT_TI_symbol_name("dstentity")
    4725                            .dwattr $C$DW$265, DW_AT_data_member_location[DW_OP_plus_uconst 0x5]
    4726                            .dwattr $C$DW$265, DW_AT_accessibility(DW_ACCESS_public)
    4727                            .dwattr $C$DW$265, DW_AT_decl_file("C:/ti/simplelink_cc13x0_sdk_2_30_00_20/source/ti/ti154stac
    4728                            .dwattr $C$DW$265, DW_AT_decl_line(0x319)
    4729                            .dwattr $C$DW$265, DW_AT_decl_column(0x0c)
    4730                    
    4731                    $C$DW$266       .dwtag  DW_TAG_member
    4732                            .dwattr $C$DW$266, DW_AT_type(*$C$DW$T$25)
    4733                            .dwattr $C$DW$266, DW_AT_name("format")
    4734                            .dwattr $C$DW$266, DW_AT_TI_symbol_name("format")
    4735                            .dwattr $C$DW$266, DW_AT_data_member_location[DW_OP_plus_uconst 0x6]
    4736                            .dwattr $C$DW$266, DW_AT_accessibility(DW_ACCESS_public)
    4737                            .dwattr $C$DW$266, DW_AT_decl_file("C:/ti/simplelink_cc13x0_sdk_2_30_00_20/source/ti/ti154stac
    4738                            .dwattr $C$DW$266, DW_AT_decl_line(0x31a)
    4739                            .dwattr $C$DW$266, DW_AT_decl_column(0x0c)
    4740                    
    4741                    $C$DW$267       .dwtag  DW_TAG_member
    4742                            .dwattr $C$DW$267, DW_AT_type(*$C$DW$T$42)
    4743                            .dwattr $C$DW$267, DW_AT_name("len")
    4744                            .dwattr $C$DW$267, DW_AT_TI_symbol_name("len")
    4745                            .dwattr $C$DW$267, DW_AT_data_member_location[DW_OP_plus_uconst 0x8]
    4746                            .dwattr $C$DW$267, DW_AT_accessibility(DW_ACCESS_public)
    4747                            .dwattr $C$DW$267, DW_AT_decl_file("C:/ti/simplelink_cc13x0_sdk_2_30_00_20/source/ti/ti154stac
    4748                            .dwattr $C$DW$267, DW_AT_decl_line(0x31b)
    4749                            .dwattr $C$DW$267, DW_AT_decl_column(0x0c)
    4750                    
    4751                    $C$DW$268       .dwtag  DW_TAG_member
    4752                            .dwattr $C$DW$268, DW_AT_type(*$C$DW$T$25)
    4753                            .dwattr $C$DW$268, DW_AT_name("dest_id")
    4754                            .dwattr $C$DW$268, DW_AT_TI_symbol_name("dest_id")
    4755                            .dwattr $C$DW$268, DW_AT_data_member_location[DW_OP_plus_uconst 0xa]
    4756                            .dwattr $C$DW$268, DW_AT_accessibility(DW_ACCESS_public)
    4757                            .dwattr $C$DW$268, DW_AT_decl_file("C:/ti/simplelink_cc13x0_sdk_2_30_00_20/source/ti/ti154stac
    4758                            .dwattr $C$DW$268, DW_AT_decl_line(0x31c)
    4759                            .dwattr $C$DW$268, DW_AT_decl_column(0x0c)
    4760                    
    4761                            .dwattr $C$DW$T$127, DW_AT_decl_file("C:/ti/simplelink_cc13x0_sdk_2_30_00_20/source/ti/ti154st
    4762                            .dwattr $C$DW$T$127, DW_AT_decl_line(0x315)
    4763                            .dwattr $C$DW$T$127, DW_AT_decl_column(0x10)
    4764                            .dwendtag $C$DW$T$127
    4765                    
    4766                    $C$DW$T$73      .dwtag  DW_TAG_typedef
    4767                            .dwattr $C$DW$T$73, DW_AT_name("ICall_MsgHdr")
    4768                            .dwattr $C$DW$T$73, DW_AT_type(*$C$DW$T$127)
    4769                            .dwattr $C$DW$T$73, DW_AT_language(DW_LANG_C)
    4770                            .dwattr $C$DW$T$73, DW_AT_decl_file("C:/ti/simplelink_cc13x0_sdk_2_30_00_20/source/ti/ti154sta
    4771                            .dwattr $C$DW$T$73, DW_AT_decl_line(0x31d)
    4772                            .dwattr $C$DW$T$73, DW_AT_decl_column(0x03)
    4773                    
    4774                    $C$DW$T$292     .dwtag  DW_TAG_typedef
    4775                            .dwattr $C$DW$T$292, DW_AT_name("osal_msg_hdr_t")
TI ARM Assembler PC v16.9.8 Mon Dec 10 17:47:35 2018

Tools Copyright (c) 1996-2017 Texas Instruments Incorporated
C:\Users\Einstein\AppData\Local\Temp\{D8717E8C-C6B2-43EB-B59B-6498A87373A3} PAGE   88

    4776                            .dwattr $C$DW$T$292, DW_AT_type(*$C$DW$T$73)
    4777                            .dwattr $C$DW$T$292, DW_AT_language(DW_LANG_C)
    4778                            .dwattr $C$DW$T$292, DW_AT_decl_file("C:/ti/simplelink_cc13x0_sdk_2_30_00_20/source/ti/ti154st
    4779                            .dwattr $C$DW$T$292, DW_AT_decl_line(0x68)
    4780                            .dwattr $C$DW$T$292, DW_AT_decl_column(0x16)
    4781                    
    4782                    
    4783                    $C$DW$T$130     .dwtag  DW_TAG_structure_type
    4784                            .dwattr $C$DW$T$130, DW_AT_name("_icall_pwr_bitmap_args_t")
    4785                            .dwattr $C$DW$T$130, DW_AT_byte_size(0x08)
    4786                    $C$DW$269       .dwtag  DW_TAG_member
    4787                            .dwattr $C$DW$269, DW_AT_type(*$C$DW$T$101)
    4788                            .dwattr $C$DW$269, DW_AT_name("hdr")
    4789                            .dwattr $C$DW$269, DW_AT_TI_symbol_name("hdr")
    4790                            .dwattr $C$DW$269, DW_AT_data_member_location[DW_OP_plus_uconst 0x0]
    4791                            .dwattr $C$DW$269, DW_AT_accessibility(DW_ACCESS_public)
    4792                            .dwattr $C$DW$269, DW_AT_decl_file("C:/ti/simplelink_cc13x0_sdk_2_30_00_20/source/ti/ti154stac
    4793                            .dwattr $C$DW$269, DW_AT_decl_line(0x290)
    4794                            .dwattr $C$DW$269, DW_AT_decl_column(0x15)
    4795                    
    4796                    $C$DW$270       .dwtag  DW_TAG_member
    4797                            .dwattr $C$DW$270, DW_AT_type(*$C$DW$T$129)
    4798                            .dwattr $C$DW$270, DW_AT_name("bitmap")
    4799                            .dwattr $C$DW$270, DW_AT_TI_symbol_name("bitmap")
    4800                            .dwattr $C$DW$270, DW_AT_data_member_location[DW_OP_plus_uconst 0x4]
    4801                            .dwattr $C$DW$270, DW_AT_accessibility(DW_ACCESS_public)
    4802                            .dwattr $C$DW$270, DW_AT_decl_file("C:/ti/simplelink_cc13x0_sdk_2_30_00_20/source/ti/ti154stac
    4803                            .dwattr $C$DW$270, DW_AT_decl_line(0x292)
    4804                            .dwattr $C$DW$270, DW_AT_decl_column(0x15)
    4805                    
    4806                            .dwattr $C$DW$T$130, DW_AT_decl_file("C:/ti/simplelink_cc13x0_sdk_2_30_00_20/source/ti/ti154st
    4807                            .dwattr $C$DW$T$130, DW_AT_decl_line(0x28d)
    4808                            .dwattr $C$DW$T$130, DW_AT_decl_column(0x10)
    4809                            .dwendtag $C$DW$T$130
    4810                    
    4811                    $C$DW$T$293     .dwtag  DW_TAG_typedef
    4812                            .dwattr $C$DW$T$293, DW_AT_name("ICall_PwrBitmapArgs")
    4813                            .dwattr $C$DW$T$293, DW_AT_type(*$C$DW$T$130)
    4814                            .dwattr $C$DW$T$293, DW_AT_language(DW_LANG_C)
    4815                            .dwattr $C$DW$T$293, DW_AT_decl_file("C:/ti/simplelink_cc13x0_sdk_2_30_00_20/source/ti/ti154st
    4816                            .dwattr $C$DW$T$293, DW_AT_decl_line(0x293)
    4817                            .dwattr $C$DW$T$293, DW_AT_decl_column(0x03)
    4818                    
    4819                    
    4820                    $C$DW$T$132     .dwtag  DW_TAG_structure_type
    4821                            .dwattr $C$DW$T$132, DW_AT_name("_icall_pwr_get_transition_state_args_t")
    4822                            .dwattr $C$DW$T$132, DW_AT_byte_size(0x08)
    4823                    $C$DW$271       .dwtag  DW_TAG_member
    4824                            .dwattr $C$DW$271, DW_AT_type(*$C$DW$T$101)
    4825                            .dwattr $C$DW$271, DW_AT_name("hdr")
    4826                            .dwattr $C$DW$271, DW_AT_TI_symbol_name("hdr")
    4827                            .dwattr $C$DW$271, DW_AT_data_member_location[DW_OP_plus_uconst 0x0]
    4828                            .dwattr $C$DW$271, DW_AT_accessibility(DW_ACCESS_public)
    4829                            .dwattr $C$DW$271, DW_AT_decl_file("C:/ti/simplelink_cc13x0_sdk_2_30_00_20/source/ti/ti154stac
    4830                            .dwattr $C$DW$271, DW_AT_decl_line(0x29b)
TI ARM Assembler PC v16.9.8 Mon Dec 10 17:47:35 2018

Tools Copyright (c) 1996-2017 Texas Instruments Incorporated
C:\Users\Einstein\AppData\Local\Temp\{D8717E8C-C6B2-43EB-B59B-6498A87373A3} PAGE   89

    4831                            .dwattr $C$DW$271, DW_AT_decl_column(0x15)
    4832                    
    4833                    $C$DW$272       .dwtag  DW_TAG_member
    4834                            .dwattr $C$DW$272, DW_AT_type(*$C$DW$T$131)
    4835                            .dwattr $C$DW$272, DW_AT_name("state")
    4836                            .dwattr $C$DW$272, DW_AT_TI_symbol_name("state")
    4837                            .dwattr $C$DW$272, DW_AT_data_member_location[DW_OP_plus_uconst 0x4]
    4838                            .dwattr $C$DW$272, DW_AT_accessibility(DW_ACCESS_public)
    4839                            .dwattr $C$DW$272, DW_AT_decl_file("C:/ti/simplelink_cc13x0_sdk_2_30_00_20/source/ti/ti154stac
    4840                            .dwattr $C$DW$272, DW_AT_decl_line(0x29d)
    4841                            .dwattr $C$DW$272, DW_AT_decl_column(0x10)
    4842                    
    4843                            .dwattr $C$DW$T$132, DW_AT_decl_file("C:/ti/simplelink_cc13x0_sdk_2_30_00_20/source/ti/ti154st
    4844                            .dwattr $C$DW$T$132, DW_AT_decl_line(0x298)
    4845                            .dwattr $C$DW$T$132, DW_AT_decl_column(0x10)
    4846                            .dwendtag $C$DW$T$132
    4847                    
    4848                    $C$DW$T$294     .dwtag  DW_TAG_typedef
    4849                            .dwattr $C$DW$T$294, DW_AT_name("ICall_PwrGetTransitionStateArgs")
    4850                            .dwattr $C$DW$T$294, DW_AT_type(*$C$DW$T$132)
    4851                            .dwattr $C$DW$T$294, DW_AT_language(DW_LANG_C)
    4852                            .dwattr $C$DW$T$294, DW_AT_decl_file("C:/ti/simplelink_cc13x0_sdk_2_30_00_20/source/ti/ti154st
    4853                            .dwattr $C$DW$T$294, DW_AT_decl_line(0x29e)
    4854                            .dwattr $C$DW$T$294, DW_AT_decl_column(0x03)
    4855                    
    4856                    
    4857                    $C$DW$T$133     .dwtag  DW_TAG_structure_type
    4858                            .dwattr $C$DW$T$133, DW_AT_name("_icall_pwr_get_xosc_startup_time_args_t")
    4859                            .dwattr $C$DW$T$133, DW_AT_byte_size(0x0c)
    4860                    $C$DW$273       .dwtag  DW_TAG_member
    4861                            .dwattr $C$DW$273, DW_AT_type(*$C$DW$T$101)
    4862                            .dwattr $C$DW$273, DW_AT_name("hdr")
    4863                            .dwattr $C$DW$273, DW_AT_TI_symbol_name("hdr")
    4864                            .dwattr $C$DW$273, DW_AT_data_member_location[DW_OP_plus_uconst 0x0]
    4865                            .dwattr $C$DW$273, DW_AT_accessibility(DW_ACCESS_public)
    4866                            .dwattr $C$DW$273, DW_AT_decl_file("C:/ti/simplelink_cc13x0_sdk_2_30_00_20/source/ti/ti154stac
    4867                            .dwattr $C$DW$273, DW_AT_decl_line(0x2a6)
    4868                            .dwattr $C$DW$273, DW_AT_decl_column(0x15)
    4869                    
    4870                    $C$DW$274       .dwtag  DW_TAG_member
    4871                            .dwattr $C$DW$274, DW_AT_type(*$C$DW$T$69)
    4872                            .dwattr $C$DW$274, DW_AT_name("timeUntilWakeupInMs")
    4873                            .dwattr $C$DW$274, DW_AT_TI_symbol_name("timeUntilWakeupInMs")
    4874                            .dwattr $C$DW$274, DW_AT_data_member_location[DW_OP_plus_uconst 0x4]
    4875                            .dwattr $C$DW$274, DW_AT_accessibility(DW_ACCESS_public)
    4876                            .dwattr $C$DW$274, DW_AT_decl_file("C:/ti/simplelink_cc13x0_sdk_2_30_00_20/source/ti/ti154stac
    4877                            .dwattr $C$DW$274, DW_AT_decl_line(0x2a8)
    4878                            .dwattr $C$DW$274, DW_AT_decl_column(0x12)
    4879                    
    4880                    $C$DW$275       .dwtag  DW_TAG_member
    4881                            .dwattr $C$DW$275, DW_AT_type(*$C$DW$T$69)
    4882                            .dwattr $C$DW$275, DW_AT_name("value")
    4883                            .dwattr $C$DW$275, DW_AT_TI_symbol_name("value")
    4884                            .dwattr $C$DW$275, DW_AT_data_member_location[DW_OP_plus_uconst 0x8]
    4885                            .dwattr $C$DW$275, DW_AT_accessibility(DW_ACCESS_public)
TI ARM Assembler PC v16.9.8 Mon Dec 10 17:47:35 2018

Tools Copyright (c) 1996-2017 Texas Instruments Incorporated
C:\Users\Einstein\AppData\Local\Temp\{D8717E8C-C6B2-43EB-B59B-6498A87373A3} PAGE   90

    4886                            .dwattr $C$DW$275, DW_AT_decl_file("C:/ti/simplelink_cc13x0_sdk_2_30_00_20/source/ti/ti154stac
    4887                            .dwattr $C$DW$275, DW_AT_decl_line(0x2aa)
    4888                            .dwattr $C$DW$275, DW_AT_decl_column(0x12)
    4889                    
    4890                            .dwattr $C$DW$T$133, DW_AT_decl_file("C:/ti/simplelink_cc13x0_sdk_2_30_00_20/source/ti/ti154st
    4891                            .dwattr $C$DW$T$133, DW_AT_decl_line(0x2a3)
    4892                            .dwattr $C$DW$T$133, DW_AT_decl_column(0x10)
    4893                            .dwendtag $C$DW$T$133
    4894                    
    4895                    $C$DW$T$295     .dwtag  DW_TAG_typedef
    4896                            .dwattr $C$DW$T$295, DW_AT_name("ICall_PwrGetXOSCStartupTimeArgs")
    4897                            .dwattr $C$DW$T$295, DW_AT_type(*$C$DW$T$133)
    4898                            .dwattr $C$DW$T$295, DW_AT_language(DW_LANG_C)
    4899                            .dwattr $C$DW$T$295, DW_AT_decl_file("C:/ti/simplelink_cc13x0_sdk_2_30_00_20/source/ti/ti154st
    4900                            .dwattr $C$DW$T$295, DW_AT_decl_line(0x2ab)
    4901                            .dwattr $C$DW$T$295, DW_AT_decl_column(0x03)
    4902                    
    4903                    
    4904                    $C$DW$T$139     .dwtag  DW_TAG_structure_type
    4905                            .dwattr $C$DW$T$139, DW_AT_name("_icall_pwr_notify_data_t")
    4906                            .dwattr $C$DW$T$139, DW_AT_byte_size(0x04)
    4907                    $C$DW$276       .dwtag  DW_TAG_member
    4908                            .dwattr $C$DW$276, DW_AT_type(*$C$DW$T$138)
    4909                            .dwattr $C$DW$276, DW_AT_name("_private")
    4910                            .dwattr $C$DW$276, DW_AT_TI_symbol_name("_private")
    4911                            .dwattr $C$DW$276, DW_AT_data_member_location[DW_OP_plus_uconst 0x0]
    4912                            .dwattr $C$DW$276, DW_AT_accessibility(DW_ACCESS_public)
    4913                            .dwattr $C$DW$276, DW_AT_decl_file("C:/ti/simplelink_cc13x0_sdk_2_30_00_20/source/ti/ti154stac
    4914                            .dwattr $C$DW$276, DW_AT_decl_line(0x33f)
    4915                            .dwattr $C$DW$276, DW_AT_decl_column(0x15)
    4916                    
    4917                            .dwattr $C$DW$T$139, DW_AT_decl_file("C:/ti/simplelink_cc13x0_sdk_2_30_00_20/source/ti/ti154st
    4918                            .dwattr $C$DW$T$139, DW_AT_decl_line(0x339)
    4919                            .dwattr $C$DW$T$139, DW_AT_decl_column(0x10)
    4920                            .dwendtag $C$DW$T$139
    4921                    
    4922                    $C$DW$T$140     .dwtag  DW_TAG_typedef
    4923                            .dwattr $C$DW$T$140, DW_AT_name("ICall_PwrNotifyData")
    4924                            .dwattr $C$DW$T$140, DW_AT_type(*$C$DW$T$139)
    4925                            .dwattr $C$DW$T$140, DW_AT_language(DW_LANG_C)
    4926                            .dwattr $C$DW$T$140, DW_AT_decl_file("C:/ti/simplelink_cc13x0_sdk_2_30_00_20/source/ti/ti154st
    4927                            .dwattr $C$DW$T$140, DW_AT_decl_line(0x340)
    4928                            .dwattr $C$DW$T$140, DW_AT_decl_column(0x03)
    4929                    
    4930                    $C$DW$T$141     .dwtag  DW_TAG_pointer_type
    4931                            .dwattr $C$DW$T$141, DW_AT_type(*$C$DW$T$140)
    4932                            .dwattr $C$DW$T$141, DW_AT_address_class(0x20)
    4933                    
    4934                    $C$DW$T$135     .dwtag  DW_TAG_pointer_type
    4935                            .dwattr $C$DW$T$135, DW_AT_type(*$C$DW$T$139)
    4936                            .dwattr $C$DW$T$135, DW_AT_address_class(0x20)
    4937                    
    4938                    
    4939                    $C$DW$T$142     .dwtag  DW_TAG_structure_type
    4940                            .dwattr $C$DW$T$142, DW_AT_name("_icall_pwr_register_notify_args_t")
TI ARM Assembler PC v16.9.8 Mon Dec 10 17:47:35 2018

Tools Copyright (c) 1996-2017 Texas Instruments Incorporated
C:\Users\Einstein\AppData\Local\Temp\{D8717E8C-C6B2-43EB-B59B-6498A87373A3} PAGE   91

    4941                            .dwattr $C$DW$T$142, DW_AT_byte_size(0x0c)
    4942                    $C$DW$277       .dwtag  DW_TAG_member
    4943                            .dwattr $C$DW$277, DW_AT_type(*$C$DW$T$101)
    4944                            .dwattr $C$DW$277, DW_AT_name("hdr")
    4945                            .dwattr $C$DW$277, DW_AT_TI_symbol_name("hdr")
    4946                            .dwattr $C$DW$277, DW_AT_data_member_location[DW_OP_plus_uconst 0x0]
    4947                            .dwattr $C$DW$277, DW_AT_accessibility(DW_ACCESS_public)
    4948                            .dwattr $C$DW$277, DW_AT_decl_file("C:/ti/simplelink_cc13x0_sdk_2_30_00_20/source/ti/ti154stac
    4949                            .dwattr $C$DW$277, DW_AT_decl_line(0x346)
    4950                            .dwattr $C$DW$277, DW_AT_decl_column(0x15)
    4951                    
    4952                    $C$DW$278       .dwtag  DW_TAG_member
    4953                            .dwattr $C$DW$278, DW_AT_type(*$C$DW$T$138)
    4954                            .dwattr $C$DW$278, DW_AT_name("fn")
    4955                            .dwattr $C$DW$278, DW_AT_TI_symbol_name("fn")
    4956                            .dwattr $C$DW$278, DW_AT_data_member_location[DW_OP_plus_uconst 0x4]
    4957                            .dwattr $C$DW$278, DW_AT_accessibility(DW_ACCESS_public)
    4958                            .dwattr $C$DW$278, DW_AT_decl_file("C:/ti/simplelink_cc13x0_sdk_2_30_00_20/source/ti/ti154stac
    4959                            .dwattr $C$DW$278, DW_AT_decl_line(0x348)
    4960                            .dwattr $C$DW$278, DW_AT_decl_column(0x15)
    4961                    
    4962                    $C$DW$279       .dwtag  DW_TAG_member
    4963                            .dwattr $C$DW$279, DW_AT_type(*$C$DW$T$141)
    4964                            .dwattr $C$DW$279, DW_AT_name("obj")
    4965                            .dwattr $C$DW$279, DW_AT_TI_symbol_name("obj")
    4966                            .dwattr $C$DW$279, DW_AT_data_member_location[DW_OP_plus_uconst 0x8]
    4967                            .dwattr $C$DW$279, DW_AT_accessibility(DW_ACCESS_public)
    4968                            .dwattr $C$DW$279, DW_AT_decl_file("C:/ti/simplelink_cc13x0_sdk_2_30_00_20/source/ti/ti154stac
    4969                            .dwattr $C$DW$279, DW_AT_decl_line(0x34a)
    4970                            .dwattr $C$DW$279, DW_AT_decl_column(0x18)
    4971                    
    4972                            .dwattr $C$DW$T$142, DW_AT_decl_file("C:/ti/simplelink_cc13x0_sdk_2_30_00_20/source/ti/ti154st
    4973                            .dwattr $C$DW$T$142, DW_AT_decl_line(0x343)
    4974                            .dwattr $C$DW$T$142, DW_AT_decl_column(0x10)
    4975                            .dwendtag $C$DW$T$142
    4976                    
    4977                    $C$DW$T$296     .dwtag  DW_TAG_typedef
    4978                            .dwattr $C$DW$T$296, DW_AT_name("ICall_PwrRegisterNotifyArgs")
    4979                            .dwattr $C$DW$T$296, DW_AT_type(*$C$DW$T$142)
    4980                            .dwattr $C$DW$T$296, DW_AT_language(DW_LANG_C)
    4981                            .dwattr $C$DW$T$296, DW_AT_decl_file("C:/ti/simplelink_cc13x0_sdk_2_30_00_20/source/ti/ti154st
    4982                            .dwattr $C$DW$T$296, DW_AT_decl_line(0x34b)
    4983                            .dwattr $C$DW$T$296, DW_AT_decl_column(0x03)
    4984                    
    4985                    
    4986                    $C$DW$T$143     .dwtag  DW_TAG_structure_type
    4987                            .dwattr $C$DW$T$143, DW_AT_name("_icall_pwr_upd_activity_counter_args_t")
    4988                            .dwattr $C$DW$T$143, DW_AT_byte_size(0x06)
    4989                    $C$DW$280       .dwtag  DW_TAG_member
    4990                            .dwattr $C$DW$280, DW_AT_type(*$C$DW$T$101)
    4991                            .dwattr $C$DW$280, DW_AT_name("hdr")
    4992                            .dwattr $C$DW$280, DW_AT_TI_symbol_name("hdr")
    4993                            .dwattr $C$DW$280, DW_AT_data_member_location[DW_OP_plus_uconst 0x0]
    4994                            .dwattr $C$DW$280, DW_AT_accessibility(DW_ACCESS_public)
    4995                            .dwattr $C$DW$280, DW_AT_decl_file("C:/ti/simplelink_cc13x0_sdk_2_30_00_20/source/ti/ti154stac
TI ARM Assembler PC v16.9.8 Mon Dec 10 17:47:35 2018

Tools Copyright (c) 1996-2017 Texas Instruments Incorporated
C:\Users\Einstein\AppData\Local\Temp\{D8717E8C-C6B2-43EB-B59B-6498A87373A3} PAGE   92

    4996                            .dwattr $C$DW$280, DW_AT_decl_line(0x27d)
    4997                            .dwattr $C$DW$280, DW_AT_decl_column(0x15)
    4998                    
    4999                    $C$DW$281       .dwtag  DW_TAG_member
    5000                            .dwattr $C$DW$281, DW_AT_type(*$C$DW$T$79)
    5001                            .dwattr $C$DW$281, DW_AT_name("incFlag")
    5002                            .dwattr $C$DW$281, DW_AT_TI_symbol_name("incFlag")
    5003                            .dwattr $C$DW$281, DW_AT_data_member_location[DW_OP_plus_uconst 0x4]
    5004                            .dwattr $C$DW$281, DW_AT_accessibility(DW_ACCESS_public)
    5005                            .dwattr $C$DW$281, DW_AT_decl_file("C:/ti/simplelink_cc13x0_sdk_2_30_00_20/source/ti/ti154stac
    5006                            .dwattr $C$DW$281, DW_AT_decl_line(0x27f)
    5007                            .dwattr $C$DW$281, DW_AT_decl_column(0x08)
    5008                    
    5009                    $C$DW$282       .dwtag  DW_TAG_member
    5010                            .dwattr $C$DW$282, DW_AT_type(*$C$DW$T$79)
    5011                            .dwattr $C$DW$282, DW_AT_name("pwrRequired")
    5012                            .dwattr $C$DW$282, DW_AT_TI_symbol_name("pwrRequired")
    5013                            .dwattr $C$DW$282, DW_AT_data_member_location[DW_OP_plus_uconst 0x5]
    5014                            .dwattr $C$DW$282, DW_AT_accessibility(DW_ACCESS_public)
    5015                            .dwattr $C$DW$282, DW_AT_decl_file("C:/ti/simplelink_cc13x0_sdk_2_30_00_20/source/ti/ti154stac
    5016                            .dwattr $C$DW$282, DW_AT_decl_line(0x281)
    5017                            .dwattr $C$DW$282, DW_AT_decl_column(0x08)
    5018                    
    5019                            .dwattr $C$DW$T$143, DW_AT_decl_file("C:/ti/simplelink_cc13x0_sdk_2_30_00_20/source/ti/ti154st
    5020                            .dwattr $C$DW$T$143, DW_AT_decl_line(0x27a)
    5021                            .dwattr $C$DW$T$143, DW_AT_decl_column(0x10)
    5022                            .dwendtag $C$DW$T$143
    5023                    
    5024                    $C$DW$T$297     .dwtag  DW_TAG_typedef
    5025                            .dwattr $C$DW$T$297, DW_AT_name("ICall_PwrUpdActivityCounterArgs")
    5026                            .dwattr $C$DW$T$297, DW_AT_type(*$C$DW$T$143)
    5027                            .dwattr $C$DW$T$297, DW_AT_language(DW_LANG_C)
    5028                            .dwattr $C$DW$T$297, DW_AT_decl_file("C:/ti/simplelink_cc13x0_sdk_2_30_00_20/source/ti/ti154st
    5029                            .dwattr $C$DW$T$297, DW_AT_decl_line(0x282)
    5030                            .dwattr $C$DW$T$297, DW_AT_decl_column(0x03)
    5031                    
    5032                    
    5033                    $C$DW$T$144     .dwtag  DW_TAG_structure_type
    5034                            .dwattr $C$DW$T$144, DW_AT_name("_icall_register_app_args_t")
    5035                            .dwattr $C$DW$T$144, DW_AT_byte_size(0x0c)
    5036                    $C$DW$283       .dwtag  DW_TAG_member
    5037                            .dwattr $C$DW$283, DW_AT_type(*$C$DW$T$101)
    5038                            .dwattr $C$DW$283, DW_AT_name("hdr")
    5039                            .dwattr $C$DW$283, DW_AT_TI_symbol_name("hdr")
    5040                            .dwattr $C$DW$283, DW_AT_data_member_location[DW_OP_plus_uconst 0x0]
    5041                            .dwattr $C$DW$283, DW_AT_accessibility(DW_ACCESS_public)
    5042                            .dwattr $C$DW$283, DW_AT_decl_file("C:/ti/simplelink_cc13x0_sdk_2_30_00_20/source/ti/ti154stac
    5043                            .dwattr $C$DW$283, DW_AT_decl_line(0x1d7)
    5044                            .dwattr $C$DW$283, DW_AT_decl_column(0x15)
    5045                    
    5046                    $C$DW$284       .dwtag  DW_TAG_member
    5047                            .dwattr $C$DW$284, DW_AT_type(*$C$DW$T$92)
    5048                            .dwattr $C$DW$284, DW_AT_name("entity")
    5049                            .dwattr $C$DW$284, DW_AT_TI_symbol_name("entity")
    5050                            .dwattr $C$DW$284, DW_AT_data_member_location[DW_OP_plus_uconst 0x4]
TI ARM Assembler PC v16.9.8 Mon Dec 10 17:47:35 2018

Tools Copyright (c) 1996-2017 Texas Instruments Incorporated
C:\Users\Einstein\AppData\Local\Temp\{D8717E8C-C6B2-43EB-B59B-6498A87373A3} PAGE   93

    5051                            .dwattr $C$DW$284, DW_AT_accessibility(DW_ACCESS_public)
    5052                            .dwattr $C$DW$284, DW_AT_decl_file("C:/ti/simplelink_cc13x0_sdk_2_30_00_20/source/ti/ti154stac
    5053                            .dwattr $C$DW$284, DW_AT_decl_line(0x1d9)
    5054                            .dwattr $C$DW$284, DW_AT_decl_column(0x15)
    5055                    
    5056                    $C$DW$285       .dwtag  DW_TAG_member
    5057                            .dwattr $C$DW$285, DW_AT_type(*$C$DW$T$114)
    5058                            .dwattr $C$DW$285, DW_AT_name("msgSyncHdl")
    5059                            .dwattr $C$DW$285, DW_AT_TI_symbol_name("msgSyncHdl")
    5060                            .dwattr $C$DW$285, DW_AT_data_member_location[DW_OP_plus_uconst 0x8]
    5061                            .dwattr $C$DW$285, DW_AT_accessibility(DW_ACCESS_public)
    5062                            .dwattr $C$DW$285, DW_AT_decl_file("C:/ti/simplelink_cc13x0_sdk_2_30_00_20/source/ti/ti154stac
    5063                            .dwattr $C$DW$285, DW_AT_decl_line(0x1dc)
    5064                            .dwattr $C$DW$285, DW_AT_decl_column(0x16)
    5065                    
    5066                            .dwattr $C$DW$T$144, DW_AT_decl_file("C:/ti/simplelink_cc13x0_sdk_2_30_00_20/source/ti/ti154st
    5067                            .dwattr $C$DW$T$144, DW_AT_decl_line(0x1d4)
    5068                            .dwattr $C$DW$T$144, DW_AT_decl_column(0x10)
    5069                            .dwendtag $C$DW$T$144
    5070                    
    5071                    $C$DW$T$298     .dwtag  DW_TAG_typedef
    5072                            .dwattr $C$DW$T$298, DW_AT_name("ICall_RegisterAppArgs")
    5073                            .dwattr $C$DW$T$298, DW_AT_type(*$C$DW$T$144)
    5074                            .dwattr $C$DW$T$298, DW_AT_language(DW_LANG_C)
    5075                            .dwattr $C$DW$T$298, DW_AT_decl_file("C:/ti/simplelink_cc13x0_sdk_2_30_00_20/source/ti/ti154st
    5076                            .dwattr $C$DW$T$298, DW_AT_decl_line(0x1dd)
    5077                            .dwattr $C$DW$T$298, DW_AT_decl_column(0x03)
    5078                    
    5079                    
    5080                    $C$DW$T$145     .dwtag  DW_TAG_structure_type
    5081                            .dwattr $C$DW$T$145, DW_AT_name("_icall_register_isr_args_ext_t")
    5082                            .dwattr $C$DW$T$145, DW_AT_byte_size(0x10)
    5083                    $C$DW$286       .dwtag  DW_TAG_member
    5084                            .dwattr $C$DW$286, DW_AT_type(*$C$DW$T$101)
    5085                            .dwattr $C$DW$286, DW_AT_name("hdr")
    5086                            .dwattr $C$DW$286, DW_AT_TI_symbol_name("hdr")
    5087                            .dwattr $C$DW$286, DW_AT_data_member_location[DW_OP_plus_uconst 0x0]
    5088                            .dwattr $C$DW$286, DW_AT_accessibility(DW_ACCESS_public)
    5089                            .dwattr $C$DW$286, DW_AT_decl_file("C:/ti/simplelink_cc13x0_sdk_2_30_00_20/source/ti/ti154stac
    5090                            .dwattr $C$DW$286, DW_AT_decl_line(0x25c)
    5091                            .dwattr $C$DW$286, DW_AT_decl_column(0x15)
    5092                    
    5093                    $C$DW$287       .dwtag  DW_TAG_member
    5094                            .dwattr $C$DW$287, DW_AT_type(*$C$DW$T$125)
    5095                            .dwattr $C$DW$287, DW_AT_name("intnum")
    5096                            .dwattr $C$DW$287, DW_AT_TI_symbol_name("intnum")
    5097                            .dwattr $C$DW$287, DW_AT_data_member_location[DW_OP_plus_uconst 0x4]
    5098                            .dwattr $C$DW$287, DW_AT_accessibility(DW_ACCESS_public)
    5099                            .dwattr $C$DW$287, DW_AT_decl_file("C:/ti/simplelink_cc13x0_sdk_2_30_00_20/source/ti/ti154stac
    5100                            .dwattr $C$DW$287, DW_AT_decl_line(0x25d)
    5101                            .dwattr $C$DW$287, DW_AT_decl_column(0x15)
    5102                    
    5103                    $C$DW$288       .dwtag  DW_TAG_member
    5104                            .dwattr $C$DW$288, DW_AT_type(*$C$DW$T$40)
    5105                            .dwattr $C$DW$288, DW_AT_name("isrfunc")
TI ARM Assembler PC v16.9.8 Mon Dec 10 17:47:35 2018

Tools Copyright (c) 1996-2017 Texas Instruments Incorporated
C:\Users\Einstein\AppData\Local\Temp\{D8717E8C-C6B2-43EB-B59B-6498A87373A3} PAGE   94

    5106                            .dwattr $C$DW$288, DW_AT_TI_symbol_name("isrfunc")
    5107                            .dwattr $C$DW$288, DW_AT_data_member_location[DW_OP_plus_uconst 0x8]
    5108                            .dwattr $C$DW$288, DW_AT_accessibility(DW_ACCESS_public)
    5109                            .dwattr $C$DW$288, DW_AT_decl_file("C:/ti/simplelink_cc13x0_sdk_2_30_00_20/source/ti/ti154stac
    5110                            .dwattr $C$DW$288, DW_AT_decl_line(0x25e)
    5111                            .dwattr $C$DW$288, DW_AT_decl_column(0x17)
    5112                    
    5113                    $C$DW$289       .dwtag  DW_TAG_member
    5114                            .dwattr $C$DW$289, DW_AT_type(*$C$DW$T$10)
    5115                            .dwattr $C$DW$289, DW_AT_name("intPriority")
    5116                            .dwattr $C$DW$289, DW_AT_TI_symbol_name("intPriority")
    5117                            .dwattr $C$DW$289, DW_AT_data_member_location[DW_OP_plus_uconst 0xc]
    5118                            .dwattr $C$DW$289, DW_AT_accessibility(DW_ACCESS_public)
    5119                            .dwattr $C$DW$289, DW_AT_decl_file("C:/ti/simplelink_cc13x0_sdk_2_30_00_20/source/ti/ti154stac
    5120                            .dwattr $C$DW$289, DW_AT_decl_line(0x25f)
    5121                            .dwattr $C$DW$289, DW_AT_decl_column(0x15)
    5122                    
    5123                            .dwattr $C$DW$T$145, DW_AT_decl_file("C:/ti/simplelink_cc13x0_sdk_2_30_00_20/source/ti/ti154st
    5124                            .dwattr $C$DW$T$145, DW_AT_decl_line(0x25a)
    5125                            .dwattr $C$DW$T$145, DW_AT_decl_column(0x10)
    5126                            .dwendtag $C$DW$T$145
    5127                    
    5128                    $C$DW$T$299     .dwtag  DW_TAG_typedef
    5129                            .dwattr $C$DW$T$299, DW_AT_name("ICall_RegisterISRArgs_Ext")
    5130                            .dwattr $C$DW$T$299, DW_AT_type(*$C$DW$T$145)
    5131                            .dwattr $C$DW$T$299, DW_AT_language(DW_LANG_C)
    5132                            .dwattr $C$DW$T$299, DW_AT_decl_file("C:/ti/simplelink_cc13x0_sdk_2_30_00_20/source/ti/ti154st
    5133                            .dwattr $C$DW$T$299, DW_AT_decl_line(0x260)
    5134                            .dwattr $C$DW$T$299, DW_AT_decl_column(0x03)
    5135                    
    5136                    
    5137                    $C$DW$T$146     .dwtag  DW_TAG_structure_type
    5138                            .dwattr $C$DW$T$146, DW_AT_name("_icall_register_isr_args_t")
    5139                            .dwattr $C$DW$T$146, DW_AT_byte_size(0x0c)
    5140                    $C$DW$290       .dwtag  DW_TAG_member
    5141                            .dwattr $C$DW$290, DW_AT_type(*$C$DW$T$101)
    5142                            .dwattr $C$DW$290, DW_AT_name("hdr")
    5143                            .dwattr $C$DW$290, DW_AT_TI_symbol_name("hdr")
    5144                            .dwattr $C$DW$290, DW_AT_data_member_location[DW_OP_plus_uconst 0x0]
    5145                            .dwattr $C$DW$290, DW_AT_accessibility(DW_ACCESS_public)
    5146                            .dwattr $C$DW$290, DW_AT_decl_file("C:/ti/simplelink_cc13x0_sdk_2_30_00_20/source/ti/ti154stac
    5147                            .dwattr $C$DW$290, DW_AT_decl_line(0x252)
    5148                            .dwattr $C$DW$290, DW_AT_decl_column(0x15)
    5149                    
    5150                    $C$DW$291       .dwtag  DW_TAG_member
    5151                            .dwattr $C$DW$291, DW_AT_type(*$C$DW$T$125)
    5152                            .dwattr $C$DW$291, DW_AT_name("intnum")
    5153                            .dwattr $C$DW$291, DW_AT_TI_symbol_name("intnum")
    5154                            .dwattr $C$DW$291, DW_AT_data_member_location[DW_OP_plus_uconst 0x4]
    5155                            .dwattr $C$DW$291, DW_AT_accessibility(DW_ACCESS_public)
    5156                            .dwattr $C$DW$291, DW_AT_decl_file("C:/ti/simplelink_cc13x0_sdk_2_30_00_20/source/ti/ti154stac
    5157                            .dwattr $C$DW$291, DW_AT_decl_line(0x254)
    5158                            .dwattr $C$DW$291, DW_AT_decl_column(0x11)
    5159                    
    5160                    $C$DW$292       .dwtag  DW_TAG_member
TI ARM Assembler PC v16.9.8 Mon Dec 10 17:47:35 2018

Tools Copyright (c) 1996-2017 Texas Instruments Incorporated
C:\Users\Einstein\AppData\Local\Temp\{D8717E8C-C6B2-43EB-B59B-6498A87373A3} PAGE   95

    5161                            .dwattr $C$DW$292, DW_AT_type(*$C$DW$T$40)
    5162                            .dwattr $C$DW$292, DW_AT_name("isrfunc")
    5163                            .dwattr $C$DW$292, DW_AT_TI_symbol_name("isrfunc")
    5164                            .dwattr $C$DW$292, DW_AT_data_member_location[DW_OP_plus_uconst 0x8]
    5165                            .dwattr $C$DW$292, DW_AT_accessibility(DW_ACCESS_public)
    5166                            .dwattr $C$DW$292, DW_AT_decl_file("C:/ti/simplelink_cc13x0_sdk_2_30_00_20/source/ti/ti154stac
    5167                            .dwattr $C$DW$292, DW_AT_decl_line(0x256)
    5168                            .dwattr $C$DW$292, DW_AT_decl_column(0x0a)
    5169                    
    5170                            .dwattr $C$DW$T$146, DW_AT_decl_file("C:/ti/simplelink_cc13x0_sdk_2_30_00_20/source/ti/ti154st
    5171                            .dwattr $C$DW$T$146, DW_AT_decl_line(0x24f)
    5172                            .dwattr $C$DW$T$146, DW_AT_decl_column(0x10)
    5173                            .dwendtag $C$DW$T$146
    5174                    
    5175                    $C$DW$T$300     .dwtag  DW_TAG_typedef
    5176                            .dwattr $C$DW$T$300, DW_AT_name("ICall_RegisterISRArgs")
    5177                            .dwattr $C$DW$T$300, DW_AT_type(*$C$DW$T$146)
    5178                            .dwattr $C$DW$T$300, DW_AT_language(DW_LANG_C)
    5179                            .dwattr $C$DW$T$300, DW_AT_decl_file("C:/ti/simplelink_cc13x0_sdk_2_30_00_20/source/ti/ti154st
    5180                            .dwattr $C$DW$T$300, DW_AT_decl_line(0x257)
    5181                            .dwattr $C$DW$T$300, DW_AT_decl_column(0x03)
    5182                    
    5183                    
    5184                    $C$DW$T$155     .dwtag  DW_TAG_structure_type
    5185                            .dwattr $C$DW$T$155, DW_AT_name("_icall_remote_task_arg_t")
    5186                            .dwattr $C$DW$T$155, DW_AT_byte_size(0x0c)
    5187                    $C$DW$293       .dwtag  DW_TAG_member
    5188                            .dwattr $C$DW$293, DW_AT_type(*$C$DW$T$147)
    5189                            .dwattr $C$DW$293, DW_AT_name("dispatch")
    5190                            .dwattr $C$DW$293, DW_AT_TI_symbol_name("dispatch")
    5191                            .dwattr $C$DW$293, DW_AT_data_member_location[DW_OP_plus_uconst 0x0]
    5192                            .dwattr $C$DW$293, DW_AT_accessibility(DW_ACCESS_public)
    5193                            .dwattr $C$DW$293, DW_AT_decl_file("C:/ti/simplelink_cc13x0_sdk_2_30_00_20/source/ti/ti154stac
    5194                            .dwattr $C$DW$293, DW_AT_decl_line(0x38d)
    5195                            .dwattr $C$DW$293, DW_AT_decl_column(0x14)
    5196                    
    5197                    $C$DW$294       .dwtag  DW_TAG_member
    5198                            .dwattr $C$DW$294, DW_AT_type(*$C$DW$T$151)
    5199                            .dwattr $C$DW$294, DW_AT_name("entercs")
    5200                            .dwattr $C$DW$294, DW_AT_TI_symbol_name("entercs")
    5201                            .dwattr $C$DW$294, DW_AT_data_member_location[DW_OP_plus_uconst 0x4]
    5202                            .dwattr $C$DW$294, DW_AT_accessibility(DW_ACCESS_public)
    5203                            .dwattr $C$DW$294, DW_AT_decl_file("C:/ti/simplelink_cc13x0_sdk_2_30_00_20/source/ti/ti154stac
    5204                            .dwattr $C$DW$294, DW_AT_decl_line(0x38e)
    5205                            .dwattr $C$DW$294, DW_AT_decl_column(0x11)
    5206                    
    5207                    $C$DW$295       .dwtag  DW_TAG_member
    5208                            .dwattr $C$DW$295, DW_AT_type(*$C$DW$T$154)
    5209                            .dwattr $C$DW$295, DW_AT_name("leavecs")
    5210                            .dwattr $C$DW$295, DW_AT_TI_symbol_name("leavecs")
    5211                            .dwattr $C$DW$295, DW_AT_data_member_location[DW_OP_plus_uconst 0x8]
    5212                            .dwattr $C$DW$295, DW_AT_accessibility(DW_ACCESS_public)
    5213                            .dwattr $C$DW$295, DW_AT_decl_file("C:/ti/simplelink_cc13x0_sdk_2_30_00_20/source/ti/ti154stac
    5214                            .dwattr $C$DW$295, DW_AT_decl_line(0x38f)
    5215                            .dwattr $C$DW$295, DW_AT_decl_column(0x11)
TI ARM Assembler PC v16.9.8 Mon Dec 10 17:47:35 2018

Tools Copyright (c) 1996-2017 Texas Instruments Incorporated
C:\Users\Einstein\AppData\Local\Temp\{D8717E8C-C6B2-43EB-B59B-6498A87373A3} PAGE   96

    5216                    
    5217                            .dwattr $C$DW$T$155, DW_AT_decl_file("C:/ti/simplelink_cc13x0_sdk_2_30_00_20/source/ti/ti154st
    5218                            .dwattr $C$DW$T$155, DW_AT_decl_line(0x38b)
    5219                            .dwattr $C$DW$T$155, DW_AT_decl_column(0x10)
    5220                            .dwendtag $C$DW$T$155
    5221                    
    5222                    $C$DW$T$217     .dwtag  DW_TAG_typedef
    5223                            .dwattr $C$DW$T$217, DW_AT_name("ICall_RemoteTaskArg")
    5224                            .dwattr $C$DW$T$217, DW_AT_type(*$C$DW$T$155)
    5225                            .dwattr $C$DW$T$217, DW_AT_language(DW_LANG_C)
    5226                            .dwattr $C$DW$T$217, DW_AT_decl_file("C:/ti/simplelink_cc13x0_sdk_2_30_00_20/source/ti/ti154st
    5227                            .dwattr $C$DW$T$217, DW_AT_decl_line(0x390)
    5228                            .dwattr $C$DW$T$217, DW_AT_decl_column(0x03)
    5229                    
    5230                    $C$DW$T$218     .dwtag  DW_TAG_const_type
    5231                            .dwattr $C$DW$T$218, DW_AT_type(*$C$DW$T$217)
    5232                    
    5233                    $C$DW$T$219     .dwtag  DW_TAG_pointer_type
    5234                            .dwattr $C$DW$T$219, DW_AT_type(*$C$DW$T$218)
    5235                            .dwattr $C$DW$T$219, DW_AT_address_class(0x20)
    5236                    
    5237                    
    5238                    $C$DW$T$157     .dwtag  DW_TAG_structure_type
    5239                            .dwattr $C$DW$T$157, DW_AT_name("_icall_send_args_t")
    5240                            .dwattr $C$DW$T$157, DW_AT_byte_size(0x10)
    5241                    $C$DW$296       .dwtag  DW_TAG_member
    5242                            .dwattr $C$DW$296, DW_AT_type(*$C$DW$T$101)
    5243                            .dwattr $C$DW$296, DW_AT_name("hdr")
    5244                            .dwattr $C$DW$296, DW_AT_TI_symbol_name("hdr")
    5245                            .dwattr $C$DW$296, DW_AT_data_member_location[DW_OP_plus_uconst 0x0]
    5246                            .dwattr $C$DW$296, DW_AT_accessibility(DW_ACCESS_public)
    5247                            .dwattr $C$DW$296, DW_AT_decl_file("C:/ti/simplelink_cc13x0_sdk_2_30_00_20/source/ti/ti154stac
    5248                            .dwattr $C$DW$296, DW_AT_decl_line(0x1f7)
    5249                            .dwattr $C$DW$296, DW_AT_decl_column(0x15)
    5250                    
    5251                    $C$DW$297       .dwtag  DW_TAG_member
    5252                            .dwattr $C$DW$297, DW_AT_type(*$C$DW$T$92)
    5253                            .dwattr $C$DW$297, DW_AT_name("src")
    5254                            .dwattr $C$DW$297, DW_AT_TI_symbol_name("src")
    5255                            .dwattr $C$DW$297, DW_AT_data_member_location[DW_OP_plus_uconst 0x4]
    5256                            .dwattr $C$DW$297, DW_AT_accessibility(DW_ACCESS_public)
    5257                            .dwattr $C$DW$297, DW_AT_decl_file("C:/ti/simplelink_cc13x0_sdk_2_30_00_20/source/ti/ti154stac
    5258                            .dwattr $C$DW$297, DW_AT_decl_line(0x1f9)
    5259                            .dwattr $C$DW$297, DW_AT_decl_column(0x12)
    5260                    
    5261                    $C$DW$298       .dwtag  DW_TAG_member
    5262                            .dwattr $C$DW$298, DW_AT_type(*$C$DW$T$95)
    5263                            .dwattr $C$DW$298, DW_AT_name("dest")
    5264                            .dwattr $C$DW$298, DW_AT_TI_symbol_name("dest")
    5265                            .dwattr $C$DW$298, DW_AT_data_member_location[DW_OP_plus_uconst 0x6]
    5266                            .dwattr $C$DW$298, DW_AT_accessibility(DW_ACCESS_public)
    5267                            .dwattr $C$DW$298, DW_AT_decl_file("C:/ti/simplelink_cc13x0_sdk_2_30_00_20/source/ti/ti154stac
    5268                            .dwattr $C$DW$298, DW_AT_decl_line(0x201)
    5269                            .dwattr $C$DW$298, DW_AT_decl_column(0x05)
    5270                    
TI ARM Assembler PC v16.9.8 Mon Dec 10 17:47:35 2018

Tools Copyright (c) 1996-2017 Texas Instruments Incorporated
C:\Users\Einstein\AppData\Local\Temp\{D8717E8C-C6B2-43EB-B59B-6498A87373A3} PAGE   97

    5271                    $C$DW$299       .dwtag  DW_TAG_member
    5272                            .dwattr $C$DW$299, DW_AT_type(*$C$DW$T$156)
    5273                            .dwattr $C$DW$299, DW_AT_name("format")
    5274                            .dwattr $C$DW$299, DW_AT_TI_symbol_name("format")
    5275                            .dwattr $C$DW$299, DW_AT_data_member_location[DW_OP_plus_uconst 0x8]
    5276                            .dwattr $C$DW$299, DW_AT_accessibility(DW_ACCESS_public)
    5277                            .dwattr $C$DW$299, DW_AT_decl_file("C:/ti/simplelink_cc13x0_sdk_2_30_00_20/source/ti/ti154stac
    5278                            .dwattr $C$DW$299, DW_AT_decl_line(0x203)
    5279                            .dwattr $C$DW$299, DW_AT_decl_column(0x13)
    5280                    
    5281                    $C$DW$300       .dwtag  DW_TAG_member
    5282                            .dwattr $C$DW$300, DW_AT_type(*$C$DW$T$3)
    5283                            .dwattr $C$DW$300, DW_AT_name("msg")
    5284                            .dwattr $C$DW$300, DW_AT_TI_symbol_name("msg")
    5285                            .dwattr $C$DW$300, DW_AT_data_member_location[DW_OP_plus_uconst 0xc]
    5286                            .dwattr $C$DW$300, DW_AT_accessibility(DW_ACCESS_public)
    5287                            .dwattr $C$DW$300, DW_AT_decl_file("C:/ti/simplelink_cc13x0_sdk_2_30_00_20/source/ti/ti154stac
    5288                            .dwattr $C$DW$300, DW_AT_decl_line(0x205)
    5289                            .dwattr $C$DW$300, DW_AT_decl_column(0x09)
    5290                    
    5291                            .dwattr $C$DW$T$157, DW_AT_decl_file("C:/ti/simplelink_cc13x0_sdk_2_30_00_20/source/ti/ti154st
    5292                            .dwattr $C$DW$T$157, DW_AT_decl_line(0x1f4)
    5293                            .dwattr $C$DW$T$157, DW_AT_decl_column(0x10)
    5294                            .dwendtag $C$DW$T$157
    5295                    
    5296                    $C$DW$T$301     .dwtag  DW_TAG_typedef
    5297                            .dwattr $C$DW$T$301, DW_AT_name("ICall_SendArgs")
    5298                            .dwattr $C$DW$T$301, DW_AT_type(*$C$DW$T$157)
    5299                            .dwattr $C$DW$T$301, DW_AT_language(DW_LANG_C)
    5300                            .dwattr $C$DW$T$301, DW_AT_decl_file("C:/ti/simplelink_cc13x0_sdk_2_30_00_20/source/ti/ti154st
    5301                            .dwattr $C$DW$T$301, DW_AT_decl_line(0x206)
    5302                            .dwattr $C$DW$T$301, DW_AT_decl_column(0x03)
    5303                    
    5304                    
    5305                    $C$DW$T$162     .dwtag  DW_TAG_structure_type
    5306                            .dwattr $C$DW$T$162, DW_AT_name("_icall_set_timer_args_t")
    5307                            .dwattr $C$DW$T$162, DW_AT_byte_size(0x14)
    5308                    $C$DW$301       .dwtag  DW_TAG_member
    5309                            .dwattr $C$DW$301, DW_AT_type(*$C$DW$T$101)
    5310                            .dwattr $C$DW$301, DW_AT_name("hdr")
    5311                            .dwattr $C$DW$301, DW_AT_TI_symbol_name("hdr")
    5312                            .dwattr $C$DW$301, DW_AT_data_member_location[DW_OP_plus_uconst 0x0]
    5313                            .dwattr $C$DW$301, DW_AT_accessibility(DW_ACCESS_public)
    5314                            .dwattr $C$DW$301, DW_AT_decl_file("C:/ti/simplelink_cc13x0_sdk_2_30_00_20/source/ti/ti154stac
    5315                            .dwattr $C$DW$301, DW_AT_decl_line(0x3b9)
    5316                            .dwattr $C$DW$301, DW_AT_decl_column(0x15)
    5317                    
    5318                    $C$DW$302       .dwtag  DW_TAG_member
    5319                            .dwattr $C$DW$302, DW_AT_type(*$C$DW$T$69)
    5320                            .dwattr $C$DW$302, DW_AT_name("timeout")
    5321                            .dwattr $C$DW$302, DW_AT_TI_symbol_name("timeout")
    5322                            .dwattr $C$DW$302, DW_AT_data_member_location[DW_OP_plus_uconst 0x4]
    5323                            .dwattr $C$DW$302, DW_AT_accessibility(DW_ACCESS_public)
    5324                            .dwattr $C$DW$302, DW_AT_decl_file("C:/ti/simplelink_cc13x0_sdk_2_30_00_20/source/ti/ti154stac
    5325                            .dwattr $C$DW$302, DW_AT_decl_line(0x3bb)
TI ARM Assembler PC v16.9.8 Mon Dec 10 17:47:35 2018

Tools Copyright (c) 1996-2017 Texas Instruments Incorporated
C:\Users\Einstein\AppData\Local\Temp\{D8717E8C-C6B2-43EB-B59B-6498A87373A3} PAGE   98

    5326                            .dwattr $C$DW$302, DW_AT_decl_column(0x12)
    5327                    
    5328                    $C$DW$303       .dwtag  DW_TAG_member
    5329                            .dwattr $C$DW$303, DW_AT_type(*$C$DW$T$158)
    5330                            .dwattr $C$DW$303, DW_AT_name("timerid")
    5331                            .dwattr $C$DW$303, DW_AT_TI_symbol_name("timerid")
    5332                            .dwattr $C$DW$303, DW_AT_data_member_location[DW_OP_plus_uconst 0x8]
    5333                            .dwattr $C$DW$303, DW_AT_accessibility(DW_ACCESS_public)
    5334                            .dwattr $C$DW$303, DW_AT_decl_file("C:/ti/simplelink_cc13x0_sdk_2_30_00_20/source/ti/ti154stac
    5335                            .dwattr $C$DW$303, DW_AT_decl_line(0x3bd)
    5336                            .dwattr $C$DW$303, DW_AT_decl_column(0x11)
    5337                    
    5338                    $C$DW$304       .dwtag  DW_TAG_member
    5339                            .dwattr $C$DW$304, DW_AT_type(*$C$DW$T$161)
    5340                            .dwattr $C$DW$304, DW_AT_name("cback")
    5341                            .dwattr $C$DW$304, DW_AT_TI_symbol_name("cback")
    5342                            .dwattr $C$DW$304, DW_AT_data_member_location[DW_OP_plus_uconst 0xc]
    5343                            .dwattr $C$DW$304, DW_AT_accessibility(DW_ACCESS_public)
    5344                            .dwattr $C$DW$304, DW_AT_decl_file("C:/ti/simplelink_cc13x0_sdk_2_30_00_20/source/ti/ti154stac
    5345                            .dwattr $C$DW$304, DW_AT_decl_line(0x3bf)
    5346                            .dwattr $C$DW$304, DW_AT_decl_column(0x14)
    5347                    
    5348                    $C$DW$305       .dwtag  DW_TAG_member
    5349                            .dwattr $C$DW$305, DW_AT_type(*$C$DW$T$3)
    5350                            .dwattr $C$DW$305, DW_AT_name("arg")
    5351                            .dwattr $C$DW$305, DW_AT_TI_symbol_name("arg")
    5352                            .dwattr $C$DW$305, DW_AT_data_member_location[DW_OP_plus_uconst 0x10]
    5353                            .dwattr $C$DW$305, DW_AT_accessibility(DW_ACCESS_public)
    5354                            .dwattr $C$DW$305, DW_AT_decl_file("C:/ti/simplelink_cc13x0_sdk_2_30_00_20/source/ti/ti154stac
    5355                            .dwattr $C$DW$305, DW_AT_decl_line(0x3c1)
    5356                            .dwattr $C$DW$305, DW_AT_decl_column(0x09)
    5357                    
    5358                            .dwattr $C$DW$T$162, DW_AT_decl_file("C:/ti/simplelink_cc13x0_sdk_2_30_00_20/source/ti/ti154st
    5359                            .dwattr $C$DW$T$162, DW_AT_decl_line(0x3b6)
    5360                            .dwattr $C$DW$T$162, DW_AT_decl_column(0x10)
    5361                            .dwendtag $C$DW$T$162
    5362                    
    5363                    $C$DW$T$302     .dwtag  DW_TAG_typedef
    5364                            .dwattr $C$DW$T$302, DW_AT_name("ICall_SetTimerArgs")
    5365                            .dwattr $C$DW$T$302, DW_AT_type(*$C$DW$T$162)
    5366                            .dwattr $C$DW$T$302, DW_AT_language(DW_LANG_C)
    5367                            .dwattr $C$DW$T$302, DW_AT_decl_file("C:/ti/simplelink_cc13x0_sdk_2_30_00_20/source/ti/ti154st
    5368                            .dwattr $C$DW$T$302, DW_AT_decl_line(0x3c2)
    5369                            .dwattr $C$DW$T$302, DW_AT_decl_column(0x03)
    5370                    
    5371                    
    5372                    $C$DW$T$163     .dwtag  DW_TAG_structure_type
    5373                            .dwattr $C$DW$T$163, DW_AT_name("_icall_signal_args_t")
    5374                            .dwattr $C$DW$T$163, DW_AT_byte_size(0x08)
    5375                    $C$DW$306       .dwtag  DW_TAG_member
    5376                            .dwattr $C$DW$306, DW_AT_type(*$C$DW$T$101)
    5377                            .dwattr $C$DW$306, DW_AT_name("hdr")
    5378                            .dwattr $C$DW$306, DW_AT_TI_symbol_name("hdr")
    5379                            .dwattr $C$DW$306, DW_AT_data_member_location[DW_OP_plus_uconst 0x0]
    5380                            .dwattr $C$DW$306, DW_AT_accessibility(DW_ACCESS_public)
TI ARM Assembler PC v16.9.8 Mon Dec 10 17:47:35 2018

Tools Copyright (c) 1996-2017 Texas Instruments Incorporated
C:\Users\Einstein\AppData\Local\Temp\{D8717E8C-C6B2-43EB-B59B-6498A87373A3} PAGE   99

    5381                            .dwattr $C$DW$306, DW_AT_decl_file("C:/ti/simplelink_cc13x0_sdk_2_30_00_20/source/ti/ti154stac
    5382                            .dwattr $C$DW$306, DW_AT_decl_line(0x228)
    5383                            .dwattr $C$DW$306, DW_AT_decl_column(0x15)
    5384                    
    5385                    $C$DW$307       .dwtag  DW_TAG_member
    5386                            .dwattr $C$DW$307, DW_AT_type(*$C$DW$T$114)
    5387                            .dwattr $C$DW$307, DW_AT_name("syncHandle")
    5388                            .dwattr $C$DW$307, DW_AT_TI_symbol_name("syncHandle")
    5389                            .dwattr $C$DW$307, DW_AT_data_member_location[DW_OP_plus_uconst 0x4]
    5390                            .dwattr $C$DW$307, DW_AT_accessibility(DW_ACCESS_public)
    5391                            .dwattr $C$DW$307, DW_AT_decl_file("C:/ti/simplelink_cc13x0_sdk_2_30_00_20/source/ti/ti154stac
    5392                            .dwattr $C$DW$307, DW_AT_decl_line(0x22a)
    5393                            .dwattr $C$DW$307, DW_AT_decl_column(0x14)
    5394                    
    5395                            .dwattr $C$DW$T$163, DW_AT_decl_file("C:/ti/simplelink_cc13x0_sdk_2_30_00_20/source/ti/ti154st
    5396                            .dwattr $C$DW$T$163, DW_AT_decl_line(0x225)
    5397                            .dwattr $C$DW$T$163, DW_AT_decl_column(0x10)
    5398                            .dwendtag $C$DW$T$163
    5399                    
    5400                    $C$DW$T$303     .dwtag  DW_TAG_typedef
    5401                            .dwattr $C$DW$T$303, DW_AT_name("ICall_SignalArgs")
    5402                            .dwattr $C$DW$T$303, DW_AT_type(*$C$DW$T$163)
    5403                            .dwattr $C$DW$T$303, DW_AT_language(DW_LANG_C)
    5404                            .dwattr $C$DW$T$303, DW_AT_decl_file("C:/ti/simplelink_cc13x0_sdk_2_30_00_20/source/ti/ti154st
    5405                            .dwattr $C$DW$T$303, DW_AT_decl_line(0x22b)
    5406                            .dwattr $C$DW$T$303, DW_AT_decl_column(0x03)
    5407                    
    5408                    
    5409                    $C$DW$T$164     .dwtag  DW_TAG_structure_type
    5410                            .dwattr $C$DW$T$164, DW_AT_name("_icall_signal_events_args_t")
    5411                            .dwattr $C$DW$T$164, DW_AT_byte_size(0x0c)
    5412                    $C$DW$308       .dwtag  DW_TAG_member
    5413                            .dwattr $C$DW$308, DW_AT_type(*$C$DW$T$101)
    5414                            .dwattr $C$DW$308, DW_AT_name("hdr")
    5415                            .dwattr $C$DW$308, DW_AT_TI_symbol_name("hdr")
    5416                            .dwattr $C$DW$308, DW_AT_data_member_location[DW_OP_plus_uconst 0x0]
    5417                            .dwattr $C$DW$308, DW_AT_accessibility(DW_ACCESS_public)
    5418                            .dwattr $C$DW$308, DW_AT_decl_file("C:/ti/simplelink_cc13x0_sdk_2_30_00_20/source/ti/ti154stac
    5419                            .dwattr $C$DW$308, DW_AT_decl_line(0x231)
    5420                            .dwattr $C$DW$308, DW_AT_decl_column(0x15)
    5421                    
    5422                    $C$DW$309       .dwtag  DW_TAG_member
    5423                            .dwattr $C$DW$309, DW_AT_type(*$C$DW$T$114)
    5424                            .dwattr $C$DW$309, DW_AT_name("syncHandle")
    5425                            .dwattr $C$DW$309, DW_AT_TI_symbol_name("syncHandle")
    5426                            .dwattr $C$DW$309, DW_AT_data_member_location[DW_OP_plus_uconst 0x4]
    5427                            .dwattr $C$DW$309, DW_AT_accessibility(DW_ACCESS_public)
    5428                            .dwattr $C$DW$309, DW_AT_decl_file("C:/ti/simplelink_cc13x0_sdk_2_30_00_20/source/ti/ti154stac
    5429                            .dwattr $C$DW$309, DW_AT_decl_line(0x233)
    5430                            .dwattr $C$DW$309, DW_AT_decl_column(0x14)
    5431                    
    5432                    $C$DW$310       .dwtag  DW_TAG_member
    5433                            .dwattr $C$DW$310, DW_AT_type(*$C$DW$T$24)
    5434                            .dwattr $C$DW$310, DW_AT_name("events")
    5435                            .dwattr $C$DW$310, DW_AT_TI_symbol_name("events")
TI ARM Assembler PC v16.9.8 Mon Dec 10 17:47:35 2018

Tools Copyright (c) 1996-2017 Texas Instruments Incorporated
C:\Users\Einstein\AppData\Local\Temp\{D8717E8C-C6B2-43EB-B59B-6498A87373A3} PAGE  100

    5436                            .dwattr $C$DW$310, DW_AT_data_member_location[DW_OP_plus_uconst 0x8]
    5437                            .dwattr $C$DW$310, DW_AT_accessibility(DW_ACCESS_public)
    5438                            .dwattr $C$DW$310, DW_AT_decl_file("C:/ti/simplelink_cc13x0_sdk_2_30_00_20/source/ti/ti154stac
    5439                            .dwattr $C$DW$310, DW_AT_decl_line(0x234)
    5440                            .dwattr $C$DW$310, DW_AT_decl_column(0x15)
    5441                    
    5442                            .dwattr $C$DW$T$164, DW_AT_decl_file("C:/ti/simplelink_cc13x0_sdk_2_30_00_20/source/ti/ti154st
    5443                            .dwattr $C$DW$T$164, DW_AT_decl_line(0x22e)
    5444                            .dwattr $C$DW$T$164, DW_AT_decl_column(0x10)
    5445                            .dwendtag $C$DW$T$164
    5446                    
    5447                    $C$DW$T$304     .dwtag  DW_TAG_typedef
    5448                            .dwattr $C$DW$T$304, DW_AT_name("ICall_SignalEventsArgs")
    5449                            .dwattr $C$DW$T$304, DW_AT_type(*$C$DW$T$164)
    5450                            .dwattr $C$DW$T$304, DW_AT_language(DW_LANG_C)
    5451                            .dwattr $C$DW$T$304, DW_AT_decl_file("C:/ti/simplelink_cc13x0_sdk_2_30_00_20/source/ti/ti154st
    5452                            .dwattr $C$DW$T$304, DW_AT_decl_line(0x235)
    5453                            .dwattr $C$DW$T$304, DW_AT_decl_column(0x03)
    5454                    
    5455                    
    5456                    $C$DW$T$165     .dwtag  DW_TAG_structure_type
    5457                            .dwattr $C$DW$T$165, DW_AT_name("_icall_stop_timer_args_t")
    5458                            .dwattr $C$DW$T$165, DW_AT_byte_size(0x08)
    5459                    $C$DW$311       .dwtag  DW_TAG_member
    5460                            .dwattr $C$DW$311, DW_AT_type(*$C$DW$T$101)
    5461                            .dwattr $C$DW$311, DW_AT_name("hdr")
    5462                            .dwattr $C$DW$311, DW_AT_TI_symbol_name("hdr")
    5463                            .dwattr $C$DW$311, DW_AT_data_member_location[DW_OP_plus_uconst 0x0]
    5464                            .dwattr $C$DW$311, DW_AT_accessibility(DW_ACCESS_public)
    5465                            .dwattr $C$DW$311, DW_AT_decl_file("C:/ti/simplelink_cc13x0_sdk_2_30_00_20/source/ti/ti154stac
    5466                            .dwattr $C$DW$311, DW_AT_decl_line(0x3c8)
    5467                            .dwattr $C$DW$311, DW_AT_decl_column(0x15)
    5468                    
    5469                    $C$DW$312       .dwtag  DW_TAG_member
    5470                            .dwattr $C$DW$312, DW_AT_type(*$C$DW$T$158)
    5471                            .dwattr $C$DW$312, DW_AT_name("timerid")
    5472                            .dwattr $C$DW$312, DW_AT_TI_symbol_name("timerid")
    5473                            .dwattr $C$DW$312, DW_AT_data_member_location[DW_OP_plus_uconst 0x4]
    5474                            .dwattr $C$DW$312, DW_AT_accessibility(DW_ACCESS_public)
    5475                            .dwattr $C$DW$312, DW_AT_decl_file("C:/ti/simplelink_cc13x0_sdk_2_30_00_20/source/ti/ti154stac
    5476                            .dwattr $C$DW$312, DW_AT_decl_line(0x3ca)
    5477                            .dwattr $C$DW$312, DW_AT_decl_column(0x11)
    5478                    
    5479                            .dwattr $C$DW$T$165, DW_AT_decl_file("C:/ti/simplelink_cc13x0_sdk_2_30_00_20/source/ti/ti154st
    5480                            .dwattr $C$DW$T$165, DW_AT_decl_line(0x3c5)
    5481                            .dwattr $C$DW$T$165, DW_AT_decl_column(0x10)
    5482                            .dwendtag $C$DW$T$165
    5483                    
    5484                    $C$DW$T$305     .dwtag  DW_TAG_typedef
    5485                            .dwattr $C$DW$T$305, DW_AT_name("ICall_StopTimerArgs")
    5486                            .dwattr $C$DW$T$305, DW_AT_type(*$C$DW$T$165)
    5487                            .dwattr $C$DW$T$305, DW_AT_language(DW_LANG_C)
    5488                            .dwattr $C$DW$T$305, DW_AT_decl_file("C:/ti/simplelink_cc13x0_sdk_2_30_00_20/source/ti/ti154st
    5489                            .dwattr $C$DW$T$305, DW_AT_decl_line(0x3cb)
    5490                            .dwattr $C$DW$T$305, DW_AT_decl_column(0x03)
TI ARM Assembler PC v16.9.8 Mon Dec 10 17:47:35 2018

Tools Copyright (c) 1996-2017 Texas Instruments Incorporated
C:\Users\Einstein\AppData\Local\Temp\{D8717E8C-C6B2-43EB-B59B-6498A87373A3} PAGE  101

    5491                    
    5492                    
    5493                    $C$DW$T$166     .dwtag  DW_TAG_structure_type
    5494                            .dwattr $C$DW$T$166, DW_AT_name("_icall_thread_serves_args_t")
    5495                            .dwattr $C$DW$T$166, DW_AT_byte_size(0x0c)
    5496                    $C$DW$313       .dwtag  DW_TAG_member
    5497                            .dwattr $C$DW$313, DW_AT_type(*$C$DW$T$101)
    5498                            .dwattr $C$DW$313, DW_AT_name("hdr")
    5499                            .dwattr $C$DW$313, DW_AT_TI_symbol_name("hdr")
    5500                            .dwattr $C$DW$313, DW_AT_data_member_location[DW_OP_plus_uconst 0x0]
    5501                            .dwattr $C$DW$313, DW_AT_accessibility(DW_ACCESS_public)
    5502                            .dwattr $C$DW$313, DW_AT_decl_file("C:/ti/simplelink_cc13x0_sdk_2_30_00_20/source/ti/ti154stac
    5503                            .dwattr $C$DW$313, DW_AT_decl_line(0x2b1)
    5504                            .dwattr $C$DW$313, DW_AT_decl_column(0x15)
    5505                    
    5506                    $C$DW$314       .dwtag  DW_TAG_member
    5507                            .dwattr $C$DW$314, DW_AT_type(*$C$DW$T$94)
    5508                            .dwattr $C$DW$314, DW_AT_name("servId")
    5509                            .dwattr $C$DW$314, DW_AT_TI_symbol_name("servId")
    5510                            .dwattr $C$DW$314, DW_AT_data_member_location[DW_OP_plus_uconst 0x4]
    5511                            .dwattr $C$DW$314, DW_AT_accessibility(DW_ACCESS_public)
    5512                            .dwattr $C$DW$314, DW_AT_decl_file("C:/ti/simplelink_cc13x0_sdk_2_30_00_20/source/ti/ti154stac
    5513                            .dwattr $C$DW$314, DW_AT_decl_line(0x2b3)
    5514                            .dwattr $C$DW$314, DW_AT_decl_column(0x15)
    5515                    
    5516                    $C$DW$315       .dwtag  DW_TAG_member
    5517                            .dwattr $C$DW$315, DW_AT_type(*$C$DW$T$131)
    5518                            .dwattr $C$DW$315, DW_AT_name("result")
    5519                            .dwattr $C$DW$315, DW_AT_TI_symbol_name("result")
    5520                            .dwattr $C$DW$315, DW_AT_data_member_location[DW_OP_plus_uconst 0x8]
    5521                            .dwattr $C$DW$315, DW_AT_accessibility(DW_ACCESS_public)
    5522                            .dwattr $C$DW$315, DW_AT_decl_file("C:/ti/simplelink_cc13x0_sdk_2_30_00_20/source/ti/ti154stac
    5523                            .dwattr $C$DW$315, DW_AT_decl_line(0x2b5)
    5524                            .dwattr $C$DW$315, DW_AT_decl_column(0x10)
    5525                    
    5526                            .dwattr $C$DW$T$166, DW_AT_decl_file("C:/ti/simplelink_cc13x0_sdk_2_30_00_20/source/ti/ti154st
    5527                            .dwattr $C$DW$T$166, DW_AT_decl_line(0x2ae)
    5528                            .dwattr $C$DW$T$166, DW_AT_decl_column(0x10)
    5529                            .dwendtag $C$DW$T$166
    5530                    
    5531                    $C$DW$T$306     .dwtag  DW_TAG_typedef
    5532                            .dwattr $C$DW$T$306, DW_AT_name("ICall_ThreadServesArgs")
    5533                            .dwattr $C$DW$T$306, DW_AT_type(*$C$DW$T$166)
    5534                            .dwattr $C$DW$T$306, DW_AT_language(DW_LANG_C)
    5535                            .dwattr $C$DW$T$306, DW_AT_decl_file("C:/ti/simplelink_cc13x0_sdk_2_30_00_20/source/ti/ti154st
    5536                            .dwattr $C$DW$T$306, DW_AT_decl_line(0x2b6)
    5537                            .dwattr $C$DW$T$306, DW_AT_decl_column(0x03)
    5538                    
    5539                    
    5540                    $C$DW$T$167     .dwtag  DW_TAG_structure_type
    5541                            .dwattr $C$DW$T$167, DW_AT_name("_icall_wait_args_t")
    5542                            .dwattr $C$DW$T$167, DW_AT_byte_size(0x08)
    5543                    $C$DW$316       .dwtag  DW_TAG_member
    5544                            .dwattr $C$DW$316, DW_AT_type(*$C$DW$T$101)
    5545                            .dwattr $C$DW$316, DW_AT_name("hdr")
TI ARM Assembler PC v16.9.8 Mon Dec 10 17:47:35 2018

Tools Copyright (c) 1996-2017 Texas Instruments Incorporated
C:\Users\Einstein\AppData\Local\Temp\{D8717E8C-C6B2-43EB-B59B-6498A87373A3} PAGE  102

    5546                            .dwattr $C$DW$316, DW_AT_TI_symbol_name("hdr")
    5547                            .dwattr $C$DW$316, DW_AT_data_member_location[DW_OP_plus_uconst 0x0]
    5548                            .dwattr $C$DW$316, DW_AT_accessibility(DW_ACCESS_public)
    5549                            .dwattr $C$DW$316, DW_AT_decl_file("C:/ti/simplelink_cc13x0_sdk_2_30_00_20/source/ti/ti154stac
    5550                            .dwattr $C$DW$316, DW_AT_decl_line(0x21f)
    5551                            .dwattr $C$DW$316, DW_AT_decl_column(0x15)
    5552                    
    5553                    $C$DW$317       .dwtag  DW_TAG_member
    5554                            .dwattr $C$DW$317, DW_AT_type(*$C$DW$T$69)
    5555                            .dwattr $C$DW$317, DW_AT_name("milliseconds")
    5556                            .dwattr $C$DW$317, DW_AT_TI_symbol_name("milliseconds")
    5557                            .dwattr $C$DW$317, DW_AT_data_member_location[DW_OP_plus_uconst 0x4]
    5558                            .dwattr $C$DW$317, DW_AT_accessibility(DW_ACCESS_public)
    5559                            .dwattr $C$DW$317, DW_AT_decl_file("C:/ti/simplelink_cc13x0_sdk_2_30_00_20/source/ti/ti154stac
    5560                            .dwattr $C$DW$317, DW_AT_decl_line(0x221)
    5561                            .dwattr $C$DW$317, DW_AT_decl_column(0x12)
    5562                    
    5563                            .dwattr $C$DW$T$167, DW_AT_decl_file("C:/ti/simplelink_cc13x0_sdk_2_30_00_20/source/ti/ti154st
    5564                            .dwattr $C$DW$T$167, DW_AT_decl_line(0x21c)
    5565                            .dwattr $C$DW$T$167, DW_AT_decl_column(0x10)
    5566                            .dwendtag $C$DW$T$167
    5567                    
    5568                    $C$DW$T$307     .dwtag  DW_TAG_typedef
    5569                            .dwattr $C$DW$T$307, DW_AT_name("ICall_WaitArgs")
    5570                            .dwattr $C$DW$T$307, DW_AT_type(*$C$DW$T$167)
    5571                            .dwattr $C$DW$T$307, DW_AT_language(DW_LANG_C)
    5572                            .dwattr $C$DW$T$307, DW_AT_decl_file("C:/ti/simplelink_cc13x0_sdk_2_30_00_20/source/ti/ti154st
    5573                            .dwattr $C$DW$T$307, DW_AT_decl_line(0x222)
    5574                            .dwattr $C$DW$T$307, DW_AT_decl_column(0x03)
    5575                    
    5576                    
    5577                    $C$DW$T$173     .dwtag  DW_TAG_structure_type
    5578                            .dwattr $C$DW$T$173, DW_AT_name("_icall_wait_match_args_t")
    5579                            .dwattr $C$DW$T$173, DW_AT_byte_size(0x14)
    5580                    $C$DW$318       .dwtag  DW_TAG_member
    5581                            .dwattr $C$DW$318, DW_AT_type(*$C$DW$T$101)
    5582                            .dwattr $C$DW$318, DW_AT_name("hdr")
    5583                            .dwattr $C$DW$318, DW_AT_TI_symbol_name("hdr")
    5584                            .dwattr $C$DW$318, DW_AT_data_member_location[DW_OP_plus_uconst 0x0]
    5585                            .dwattr $C$DW$318, DW_AT_accessibility(DW_ACCESS_public)
    5586                            .dwattr $C$DW$318, DW_AT_decl_file("C:/ti/simplelink_cc13x0_sdk_2_30_00_20/source/ti/ti154stac
    5587                            .dwattr $C$DW$318, DW_AT_decl_line(0x351)
    5588                            .dwattr $C$DW$318, DW_AT_decl_column(0x15)
    5589                    
    5590                    $C$DW$319       .dwtag  DW_TAG_member
    5591                            .dwattr $C$DW$319, DW_AT_type(*$C$DW$T$69)
    5592                            .dwattr $C$DW$319, DW_AT_name("milliseconds")
    5593                            .dwattr $C$DW$319, DW_AT_TI_symbol_name("milliseconds")
    5594                            .dwattr $C$DW$319, DW_AT_data_member_location[DW_OP_plus_uconst 0x4]
    5595                            .dwattr $C$DW$319, DW_AT_accessibility(DW_ACCESS_public)
    5596                            .dwattr $C$DW$319, DW_AT_decl_file("C:/ti/simplelink_cc13x0_sdk_2_30_00_20/source/ti/ti154stac
    5597                            .dwattr $C$DW$319, DW_AT_decl_line(0x353)
    5598                            .dwattr $C$DW$319, DW_AT_decl_column(0x12)
    5599                    
    5600                    $C$DW$320       .dwtag  DW_TAG_member
TI ARM Assembler PC v16.9.8 Mon Dec 10 17:47:35 2018

Tools Copyright (c) 1996-2017 Texas Instruments Incorporated
C:\Users\Einstein\AppData\Local\Temp\{D8717E8C-C6B2-43EB-B59B-6498A87373A3} PAGE  103

    5601                            .dwattr $C$DW$320, DW_AT_type(*$C$DW$T$172)
    5602                            .dwattr $C$DW$320, DW_AT_name("matchFn")
    5603                            .dwattr $C$DW$320, DW_AT_TI_symbol_name("matchFn")
    5604                            .dwattr $C$DW$320, DW_AT_data_member_location[DW_OP_plus_uconst 0x8]
    5605                            .dwattr $C$DW$320, DW_AT_accessibility(DW_ACCESS_public)
    5606                            .dwattr $C$DW$320, DW_AT_decl_file("C:/ti/simplelink_cc13x0_sdk_2_30_00_20/source/ti/ti154stac
    5607                            .dwattr $C$DW$320, DW_AT_decl_line(0x355)
    5608                            .dwattr $C$DW$320, DW_AT_decl_column(0x14)
    5609                    
    5610                    $C$DW$321       .dwtag  DW_TAG_member
    5611                            .dwattr $C$DW$321, DW_AT_type(*$C$DW$T$94)
    5612                            .dwattr $C$DW$321, DW_AT_name("servId")
    5613                            .dwattr $C$DW$321, DW_AT_TI_symbol_name("servId")
    5614                            .dwattr $C$DW$321, DW_AT_data_member_location[DW_OP_plus_uconst 0xc]
    5615                            .dwattr $C$DW$321, DW_AT_accessibility(DW_ACCESS_public)
    5616                            .dwattr $C$DW$321, DW_AT_decl_file("C:/ti/simplelink_cc13x0_sdk_2_30_00_20/source/ti/ti154stac
    5617                            .dwattr $C$DW$321, DW_AT_decl_line(0x357)
    5618                            .dwattr $C$DW$321, DW_AT_decl_column(0x15)
    5619                    
    5620                    $C$DW$322       .dwtag  DW_TAG_member
    5621                            .dwattr $C$DW$322, DW_AT_type(*$C$DW$T$92)
    5622                            .dwattr $C$DW$322, DW_AT_name("dest")
    5623                            .dwattr $C$DW$322, DW_AT_TI_symbol_name("dest")
    5624                            .dwattr $C$DW$322, DW_AT_data_member_location[DW_OP_plus_uconst 0xe]
    5625                            .dwattr $C$DW$322, DW_AT_accessibility(DW_ACCESS_public)
    5626                            .dwattr $C$DW$322, DW_AT_decl_file("C:/ti/simplelink_cc13x0_sdk_2_30_00_20/source/ti/ti154stac
    5627                            .dwattr $C$DW$322, DW_AT_decl_line(0x359)
    5628                            .dwattr $C$DW$322, DW_AT_decl_column(0x12)
    5629                    
    5630                    $C$DW$323       .dwtag  DW_TAG_member
    5631                            .dwattr $C$DW$323, DW_AT_type(*$C$DW$T$3)
    5632                            .dwattr $C$DW$323, DW_AT_name("msg")
    5633                            .dwattr $C$DW$323, DW_AT_TI_symbol_name("msg")
    5634                            .dwattr $C$DW$323, DW_AT_data_member_location[DW_OP_plus_uconst 0x10]
    5635                            .dwattr $C$DW$323, DW_AT_accessibility(DW_ACCESS_public)
    5636                            .dwattr $C$DW$323, DW_AT_decl_file("C:/ti/simplelink_cc13x0_sdk_2_30_00_20/source/ti/ti154stac
    5637                            .dwattr $C$DW$323, DW_AT_decl_line(0x35b)
    5638                            .dwattr $C$DW$323, DW_AT_decl_column(0x09)
    5639                    
    5640                            .dwattr $C$DW$T$173, DW_AT_decl_file("C:/ti/simplelink_cc13x0_sdk_2_30_00_20/source/ti/ti154st
    5641                            .dwattr $C$DW$T$173, DW_AT_decl_line(0x34e)
    5642                            .dwattr $C$DW$T$173, DW_AT_decl_column(0x10)
    5643                            .dwendtag $C$DW$T$173
    5644                    
    5645                    $C$DW$T$308     .dwtag  DW_TAG_typedef
    5646                            .dwattr $C$DW$T$308, DW_AT_name("ICall_WaitMatchArgs")
    5647                            .dwattr $C$DW$T$308, DW_AT_type(*$C$DW$T$173)
    5648                            .dwattr $C$DW$T$308, DW_AT_language(DW_LANG_C)
    5649                            .dwattr $C$DW$T$308, DW_AT_decl_file("C:/ti/simplelink_cc13x0_sdk_2_30_00_20/source/ti/ti154st
    5650                            .dwattr $C$DW$T$308, DW_AT_decl_line(0x35c)
    5651                            .dwattr $C$DW$T$308, DW_AT_decl_column(0x03)
    5652                    
    5653                    
    5654                    $C$DW$T$175     .dwtag  DW_TAG_structure_type
    5655                            .dwattr $C$DW$T$175, DW_AT_name("appasrtintf_assrthndlerfunc_t")
TI ARM Assembler PC v16.9.8 Mon Dec 10 17:47:35 2018

Tools Copyright (c) 1996-2017 Texas Instruments Incorporated
C:\Users\Einstein\AppData\Local\Temp\{D8717E8C-C6B2-43EB-B59B-6498A87373A3} PAGE  104

    5656                            .dwattr $C$DW$T$175, DW_AT_byte_size(0x04)
    5657                    $C$DW$324       .dwtag  DW_TAG_member
    5658                            .dwattr $C$DW$324, DW_AT_type(*$C$DW$T$174)
    5659                            .dwattr $C$DW$324, DW_AT_name("callAssrtHndler")
    5660                            .dwattr $C$DW$324, DW_AT_TI_symbol_name("callAssrtHndler")
    5661                            .dwattr $C$DW$324, DW_AT_data_member_location[DW_OP_plus_uconst 0x0]
    5662                            .dwattr $C$DW$324, DW_AT_accessibility(DW_ACCESS_public)
    5663                            .dwattr $C$DW$324, DW_AT_decl_file("C:/ti/simplelink_cc13x0_sdk_2_30_00_20/source/ti/ti154stac
    5664                            .dwattr $C$DW$324, DW_AT_decl_line(0x49)
    5665                            .dwattr $C$DW$324, DW_AT_decl_column(0x21)
    5666                    
    5667                            .dwattr $C$DW$T$175, DW_AT_decl_file("C:/ti/simplelink_cc13x0_sdk_2_30_00_20/source/ti/ti154st
    5668                            .dwattr $C$DW$T$175, DW_AT_decl_line(0x46)
    5669                            .dwattr $C$DW$T$175, DW_AT_decl_column(0x10)
    5670                            .dwendtag $C$DW$T$175
    5671                    
    5672                    $C$DW$T$309     .dwtag  DW_TAG_typedef
    5673                            .dwattr $C$DW$T$309, DW_AT_name("APPASRTINTF_assrtHndlerFunc_t")
    5674                            .dwattr $C$DW$T$309, DW_AT_type(*$C$DW$T$175)
    5675                            .dwattr $C$DW$T$309, DW_AT_language(DW_LANG_C)
    5676                            .dwattr $C$DW$T$309, DW_AT_decl_file("C:/ti/simplelink_cc13x0_sdk_2_30_00_20/source/ti/ti154st
    5677                            .dwattr $C$DW$T$309, DW_AT_decl_line(0x4a)
    5678                            .dwattr $C$DW$T$309, DW_AT_decl_column(0x03)
    5679                    
    5680                            .dwattr $C$DW$CU, DW_AT_language(DW_LANG_C)
    5681                    
    5682                    ;***************************************************************
    5683                    ;* DWARF CIE ENTRIES                                           *
    5684                    ;***************************************************************
    5685                    
    5686                    $C$DW$CIE       .dwcie 14
    5687                            .dwcfi  cfa_register, 13
    5688                            .dwcfi  cfa_offset, 0
    5689                            .dwcfi  same_value, 4
    5690                            .dwcfi  same_value, 5
    5691                            .dwcfi  same_value, 6
    5692                            .dwcfi  same_value, 7
    5693                            .dwcfi  same_value, 8
    5694                            .dwcfi  same_value, 9
    5695                            .dwcfi  same_value, 10
    5696                            .dwcfi  same_value, 11
    5697                            .dwendentry
    5698                    
    5699                    ;***************************************************************
    5700                    ;* DWARF REGISTER MAP                                          *
    5701                    ;***************************************************************
    5702                    
    5703                    $C$DW$325       .dwtag  DW_TAG_TI_assign_register
    5704                            .dwattr $C$DW$325, DW_AT_name("A1")
    5705                            .dwattr $C$DW$325, DW_AT_location[DW_OP_reg0]
    5706                    
    5707                    $C$DW$326       .dwtag  DW_TAG_TI_assign_register
    5708                            .dwattr $C$DW$326, DW_AT_name("A2")
    5709                            .dwattr $C$DW$326, DW_AT_location[DW_OP_reg1]
    5710                    
TI ARM Assembler PC v16.9.8 Mon Dec 10 17:47:35 2018

Tools Copyright (c) 1996-2017 Texas Instruments Incorporated
C:\Users\Einstein\AppData\Local\Temp\{D8717E8C-C6B2-43EB-B59B-6498A87373A3} PAGE  105

    5711                    $C$DW$327       .dwtag  DW_TAG_TI_assign_register
    5712                            .dwattr $C$DW$327, DW_AT_name("A3")
    5713                            .dwattr $C$DW$327, DW_AT_location[DW_OP_reg2]
    5714                    
    5715                    $C$DW$328       .dwtag  DW_TAG_TI_assign_register
    5716                            .dwattr $C$DW$328, DW_AT_name("A4")
    5717                            .dwattr $C$DW$328, DW_AT_location[DW_OP_reg3]
    5718                    
    5719                    $C$DW$329       .dwtag  DW_TAG_TI_assign_register
    5720                            .dwattr $C$DW$329, DW_AT_name("V1")
    5721                            .dwattr $C$DW$329, DW_AT_location[DW_OP_reg4]
    5722                    
    5723                    $C$DW$330       .dwtag  DW_TAG_TI_assign_register
    5724                            .dwattr $C$DW$330, DW_AT_name("V2")
    5725                            .dwattr $C$DW$330, DW_AT_location[DW_OP_reg5]
    5726                    
    5727                    $C$DW$331       .dwtag  DW_TAG_TI_assign_register
    5728                            .dwattr $C$DW$331, DW_AT_name("V3")
    5729                            .dwattr $C$DW$331, DW_AT_location[DW_OP_reg6]
    5730                    
    5731                    $C$DW$332       .dwtag  DW_TAG_TI_assign_register
    5732                            .dwattr $C$DW$332, DW_AT_name("V4")
    5733                            .dwattr $C$DW$332, DW_AT_location[DW_OP_reg7]
    5734                    
    5735                    $C$DW$333       .dwtag  DW_TAG_TI_assign_register
    5736                            .dwattr $C$DW$333, DW_AT_name("V5")
    5737                            .dwattr $C$DW$333, DW_AT_location[DW_OP_reg8]
    5738                    
    5739                    $C$DW$334       .dwtag  DW_TAG_TI_assign_register
    5740                            .dwattr $C$DW$334, DW_AT_name("V6")
    5741                            .dwattr $C$DW$334, DW_AT_location[DW_OP_reg9]
    5742                    
    5743                    $C$DW$335       .dwtag  DW_TAG_TI_assign_register
    5744                            .dwattr $C$DW$335, DW_AT_name("V7")
    5745                            .dwattr $C$DW$335, DW_AT_location[DW_OP_reg10]
    5746                    
    5747                    $C$DW$336       .dwtag  DW_TAG_TI_assign_register
    5748                            .dwattr $C$DW$336, DW_AT_name("V8")
    5749                            .dwattr $C$DW$336, DW_AT_location[DW_OP_reg11]
    5750                    
    5751                    $C$DW$337       .dwtag  DW_TAG_TI_assign_register
    5752                            .dwattr $C$DW$337, DW_AT_name("V9")
    5753                            .dwattr $C$DW$337, DW_AT_location[DW_OP_reg12]
    5754                    
    5755                    $C$DW$338       .dwtag  DW_TAG_TI_assign_register
    5756                            .dwattr $C$DW$338, DW_AT_name("SP")
    5757                            .dwattr $C$DW$338, DW_AT_location[DW_OP_reg13]
    5758                    
    5759                    $C$DW$339       .dwtag  DW_TAG_TI_assign_register
    5760                            .dwattr $C$DW$339, DW_AT_name("LR")
    5761                            .dwattr $C$DW$339, DW_AT_location[DW_OP_reg14]
    5762                    
    5763                    $C$DW$340       .dwtag  DW_TAG_TI_assign_register
    5764                            .dwattr $C$DW$340, DW_AT_name("PC")
    5765                            .dwattr $C$DW$340, DW_AT_location[DW_OP_reg15]
TI ARM Assembler PC v16.9.8 Mon Dec 10 17:47:35 2018

Tools Copyright (c) 1996-2017 Texas Instruments Incorporated
C:\Users\Einstein\AppData\Local\Temp\{D8717E8C-C6B2-43EB-B59B-6498A87373A3} PAGE  106

    5766                    
    5767                    $C$DW$341       .dwtag  DW_TAG_TI_assign_register
    5768                            .dwattr $C$DW$341, DW_AT_name("SR")
    5769                            .dwattr $C$DW$341, DW_AT_location[DW_OP_reg17]
    5770                    
    5771                    $C$DW$342       .dwtag  DW_TAG_TI_assign_register
    5772                            .dwattr $C$DW$342, DW_AT_name("AP")
    5773                            .dwattr $C$DW$342, DW_AT_location[DW_OP_reg7]
    5774                    
    5775                            .dwendtag $C$DW$CU
    5776                    

--------------------------
Thumb2 Statistics
--------------------------
Number of Thumb2 ins converted to Thumb = 0 (0%)
Number of Thumb ins in input = 268 (92%)
Number of Thumb2 ins encoded as Thumb2 = 23 (100%)
Number of Thumb2 ins converted to 2 OPND Thumb = 0


No Assembly Errors, No Assembly Warnings
