TI ARM Assembler PC v16.9.8 Sat Nov 24 22:21:09 2018

Tools Copyright (c) 1996-2017 Texas Instruments Incorporated
C:\Users\Einstein\AppData\Local\Temp\{0ED9912E-F216-4B11-AF33-9BA1337BDC1F} PAGE    1

       1                    ;******************************************************************************
       2                    ;* TI ARM C/C++ Codegen                                        PC v16.9.8.LTS *
       3                    ;* Date/Time created: Sat Nov 24 22:21:09 2018                                *
       4                    ;******************************************************************************
       5                            .compiler_opts --abi=eabi --arm_vmrs_si_workaround=off --code_state=16 --diag_wrap=off --embed
       6 00000000                   .thumb
       7                    
       8                    $C$DW$CU        .dwtag  DW_TAG_compile_unit
       9                            .dwattr $C$DW$CU, DW_AT_name("../Application/MAC/StartUp/osaltasks.c")
      10                            .dwattr $C$DW$CU, DW_AT_producer("TI TI ARM C/C++ Codegen PC v16.9.8.LTS Copyright (c) 1996-20
      11                            .dwattr $C$DW$CU, DW_AT_TI_version(0x01)
      12                            .dwattr $C$DW$CU, DW_AT_comp_dir("C:\Users\Einstein\MyWorkspaceCC1350\collector_cc1350lp\colle
      13                    
      14                    $C$DW$1 .dwtag  DW_TAG_subprogram
      15                            .dwattr $C$DW$1, DW_AT_name("HAL_APPASRT_callAssrtHanlder")
      16                            .dwattr $C$DW$1, DW_AT_TI_symbol_name("HAL_APPASRT_callAssrtHanlder")
      17                            .dwattr $C$DW$1, DW_AT_declaration
      18                            .dwattr $C$DW$1, DW_AT_external
      19                            .dwattr $C$DW$1, DW_AT_decl_file("C:\ti\simplelink_cc13x0_sdk_2_30_00_20\source\ti\ti154stack\
      20                            .dwattr $C$DW$1, DW_AT_decl_line(0x51)
      21                            .dwattr $C$DW$1, DW_AT_decl_column(0x0d)
      22                            .dwendtag $C$DW$1
      23                    
      24                    
      25                    $C$DW$2 .dwtag  DW_TAG_subprogram
      26                            .dwattr $C$DW$2, DW_AT_name("osal_mem_alloc")
      27                            .dwattr $C$DW$2, DW_AT_TI_symbol_name("osal_mem_alloc")
      28                            .dwattr $C$DW$2, DW_AT_type(*$C$DW$T$3)
      29                            .dwattr $C$DW$2, DW_AT_declaration
      30                            .dwattr $C$DW$2, DW_AT_external
      31                            .dwattr $C$DW$2, DW_AT_decl_file("C:\ti\simplelink_cc13x0_sdk_2_30_00_20\source\ti\ti154stack\
      32                            .dwattr $C$DW$2, DW_AT_decl_line(0x67)
      33                            .dwattr $C$DW$2, DW_AT_decl_column(0x09)
      34                    $C$DW$3 .dwtag  DW_TAG_formal_parameter
      35                            .dwattr $C$DW$3, DW_AT_type(*$C$DW$T$65)
      36                    
      37                            .dwendtag $C$DW$2
      38                    
      39                    
      40                    $C$DW$4 .dwtag  DW_TAG_subprogram
      41                            .dwattr $C$DW$4, DW_AT_name("osal_init_system")
      42                            .dwattr $C$DW$4, DW_AT_TI_symbol_name("osal_init_system")
      43                            .dwattr $C$DW$4, DW_AT_type(*$C$DW$T$61)
      44                            .dwattr $C$DW$4, DW_AT_declaration
      45                            .dwattr $C$DW$4, DW_AT_external
      46                            .dwattr $C$DW$4, DW_AT_decl_file("C:/ti/simplelink_cc13x0_sdk_2_30_00_20/source/ti/ti154stack/
      47                            .dwattr $C$DW$4, DW_AT_decl_line(0x11f)
      48                            .dwattr $C$DW$4, DW_AT_decl_column(0x10)
      49                            .dwendtag $C$DW$4
      50                    
      51                    
      52                    $C$DW$5 .dwtag  DW_TAG_subprogram
      53                            .dwattr $C$DW$5, DW_AT_name("osal_start_system")
      54                            .dwattr $C$DW$5, DW_AT_TI_symbol_name("osal_start_system")
      55                            .dwattr $C$DW$5, DW_AT_declaration
TI ARM Assembler PC v16.9.8 Sat Nov 24 22:21:09 2018

Tools Copyright (c) 1996-2017 Texas Instruments Incorporated
C:\Users\Einstein\AppData\Local\Temp\{0ED9912E-F216-4B11-AF33-9BA1337BDC1F} PAGE    2

      56                            .dwattr $C$DW$5, DW_AT_external
      57                            .dwattr $C$DW$5, DW_AT_decl_file("C:/ti/simplelink_cc13x0_sdk_2_30_00_20/source/ti/ti154stack/
      58                            .dwattr $C$DW$5, DW_AT_decl_line(0x127)
      59                            .dwattr $C$DW$5, DW_AT_decl_column(0x0f)
      60                            .dwendtag $C$DW$5
      61                    
      62                    
      63                    $C$DW$6 .dwtag  DW_TAG_subprogram
      64                            .dwattr $C$DW$6, DW_AT_name("osal_memset")
      65                            .dwattr $C$DW$6, DW_AT_TI_symbol_name("osal_memset")
      66                            .dwattr $C$DW$6, DW_AT_type(*$C$DW$T$3)
      67                            .dwattr $C$DW$6, DW_AT_declaration
      68                            .dwattr $C$DW$6, DW_AT_external
      69                            .dwattr $C$DW$6, DW_AT_decl_file("C:/ti/simplelink_cc13x0_sdk_2_30_00_20/source/ti/ti154stack/
      70                            .dwattr $C$DW$6, DW_AT_decl_line(0x153)
      71                            .dwattr $C$DW$6, DW_AT_decl_column(0x10)
      72                    $C$DW$7 .dwtag  DW_TAG_formal_parameter
      73                            .dwattr $C$DW$7, DW_AT_type(*$C$DW$T$3)
      74                    
      75                    $C$DW$8 .dwtag  DW_TAG_formal_parameter
      76                            .dwattr $C$DW$8, DW_AT_type(*$C$DW$T$61)
      77                    
      78                    $C$DW$9 .dwtag  DW_TAG_formal_parameter
      79                            .dwattr $C$DW$9, DW_AT_type(*$C$DW$T$10)
      80                    
      81                            .dwendtag $C$DW$6
      82                    
      83                    
      84                    $C$DW$10        .dwtag  DW_TAG_subprogram
      85                            .dwattr $C$DW$10, DW_AT_name("osal_set_icall_hook")
      86                            .dwattr $C$DW$10, DW_AT_TI_symbol_name("osal_set_icall_hook")
      87                            .dwattr $C$DW$10, DW_AT_declaration
      88                            .dwattr $C$DW$10, DW_AT_external
      89                            .dwattr $C$DW$10, DW_AT_decl_file("C:/ti/simplelink_cc13x0_sdk_2_30_00_20/source/ti/ti154stack
      90                            .dwattr $C$DW$10, DW_AT_decl_line(0x17e)
      91                            .dwattr $C$DW$10, DW_AT_decl_column(0x0f)
      92                    $C$DW$11        .dwtag  DW_TAG_formal_parameter
      93                            .dwattr $C$DW$11, DW_AT_type(*$C$DW$T$1176)
      94                    
      95                            .dwendtag $C$DW$10
      96                    
      97                    
      98                    $C$DW$12        .dwtag  DW_TAG_subprogram
      99                            .dwattr $C$DW$12, DW_AT_name("macSetUserConfig")
     100                            .dwattr $C$DW$12, DW_AT_TI_symbol_name("macSetUserConfig")
     101                            .dwattr $C$DW$12, DW_AT_declaration
     102                            .dwattr $C$DW$12, DW_AT_external
     103                            .dwattr $C$DW$12, DW_AT_decl_file("C:/Users/Einstein/MyWorkspaceCC1350/collector_cc1350lp/Appl
     104                            .dwattr $C$DW$12, DW_AT_decl_line(0x224)
     105                            .dwattr $C$DW$12, DW_AT_decl_column(0x06)
     106                    $C$DW$13        .dwtag  DW_TAG_formal_parameter
     107                            .dwattr $C$DW$13, DW_AT_type(*$C$DW$T$1062)
     108                    
     109                            .dwendtag $C$DW$12
     110                    
TI ARM Assembler PC v16.9.8 Sat Nov 24 22:21:09 2018

Tools Copyright (c) 1996-2017 Texas Instruments Incorporated
C:\Users\Einstein\AppData\Local\Temp\{0ED9912E-F216-4B11-AF33-9BA1337BDC1F} PAGE    3

     111                    
     112                    $C$DW$14        .dwtag  DW_TAG_subprogram
     113                            .dwattr $C$DW$14, DW_AT_name("MAC_Init")
     114                            .dwattr $C$DW$14, DW_AT_TI_symbol_name("MAC_Init")
     115                            .dwattr $C$DW$14, DW_AT_declaration
     116                            .dwattr $C$DW$14, DW_AT_external
     117                            .dwattr $C$DW$14, DW_AT_decl_file("C:/ti/simplelink_cc13x0_sdk_2_30_00_20/source/ti/ti154stack
     118                            .dwattr $C$DW$14, DW_AT_decl_line(0x56e)
     119                            .dwattr $C$DW$14, DW_AT_decl_column(0x0d)
     120                            .dwendtag $C$DW$14
     121                    
     122                    
     123                    $C$DW$15        .dwtag  DW_TAG_subprogram
     124                            .dwattr $C$DW$15, DW_AT_name("MAC_InitCoord")
     125                            .dwattr $C$DW$15, DW_AT_TI_symbol_name("MAC_InitCoord")
     126                            .dwattr $C$DW$15, DW_AT_declaration
     127                            .dwattr $C$DW$15, DW_AT_external
     128                            .dwattr $C$DW$15, DW_AT_decl_file("C:/ti/simplelink_cc13x0_sdk_2_30_00_20/source/ti/ti154stack
     129                            .dwattr $C$DW$15, DW_AT_decl_line(0x59d)
     130                            .dwattr $C$DW$15, DW_AT_decl_column(0x0d)
     131                            .dwendtag $C$DW$15
     132                    
     133                    
     134                    $C$DW$16        .dwtag  DW_TAG_subprogram
     135                            .dwattr $C$DW$16, DW_AT_name("MAC_InitBeaconCoord")
     136                            .dwattr $C$DW$16, DW_AT_TI_symbol_name("MAC_InitBeaconCoord")
     137                            .dwattr $C$DW$16, DW_AT_declaration
     138                            .dwattr $C$DW$16, DW_AT_external
     139                            .dwattr $C$DW$16, DW_AT_decl_file("C:/ti/simplelink_cc13x0_sdk_2_30_00_20/source/ti/ti154stack
     140                            .dwattr $C$DW$16, DW_AT_decl_line(0x5b2)
     141                            .dwattr $C$DW$16, DW_AT_decl_column(0x0d)
     142                            .dwendtag $C$DW$16
     143                    
     144                    
     145                    $C$DW$17        .dwtag  DW_TAG_subprogram
     146                            .dwattr $C$DW$17, DW_AT_name("MAC_InitBeaconDevice")
     147                            .dwattr $C$DW$17, DW_AT_TI_symbol_name("MAC_InitBeaconDevice")
     148                            .dwattr $C$DW$17, DW_AT_declaration
     149                            .dwattr $C$DW$17, DW_AT_external
     150                            .dwattr $C$DW$17, DW_AT_decl_file("C:/ti/simplelink_cc13x0_sdk_2_30_00_20/source/ti/ti154stack
     151                            .dwattr $C$DW$17, DW_AT_decl_line(0x5c8)
     152                            .dwattr $C$DW$17, DW_AT_decl_column(0x0d)
     153                            .dwendtag $C$DW$17
     154                    
     155                    
     156                    $C$DW$18        .dwtag  DW_TAG_subprogram
     157                            .dwattr $C$DW$18, DW_AT_name("MAC_InitFH")
     158                            .dwattr $C$DW$18, DW_AT_TI_symbol_name("MAC_InitFH")
     159                            .dwattr $C$DW$18, DW_AT_declaration
     160                            .dwattr $C$DW$18, DW_AT_external
     161                            .dwattr $C$DW$18, DW_AT_decl_file("C:/ti/simplelink_cc13x0_sdk_2_30_00_20/source/ti/ti154stack
     162                            .dwattr $C$DW$18, DW_AT_decl_line(0x5d0)
     163                            .dwattr $C$DW$18, DW_AT_decl_column(0x0d)
     164                            .dwendtag $C$DW$18
     165                    
TI ARM Assembler PC v16.9.8 Sat Nov 24 22:21:09 2018

Tools Copyright (c) 1996-2017 Texas Instruments Incorporated
C:\Users\Einstein\AppData\Local\Temp\{0ED9912E-F216-4B11-AF33-9BA1337BDC1F} PAGE    4

     166                    
     167                    $C$DW$19        .dwtag  DW_TAG_subprogram
     168                            .dwattr $C$DW$19, DW_AT_name("macStackTaskInit")
     169                            .dwattr $C$DW$19, DW_AT_TI_symbol_name("macStackTaskInit")
     170                            .dwattr $C$DW$19, DW_AT_declaration
     171                            .dwattr $C$DW$19, DW_AT_external
     172                            .dwattr $C$DW$19, DW_AT_decl_file("C:/ti/simplelink_cc13x0_sdk_2_30_00_20/examples/rtos/CC1350
     173                            .dwattr $C$DW$19, DW_AT_decl_line(0x128)
     174                            .dwattr $C$DW$19, DW_AT_decl_column(0x06)
     175                    $C$DW$20        .dwtag  DW_TAG_formal_parameter
     176                            .dwattr $C$DW$20, DW_AT_type(*$C$DW$T$61)
     177                    
     178                            .dwendtag $C$DW$19
     179                    
     180                    
     181                    $C$DW$21        .dwtag  DW_TAG_subprogram
     182                            .dwattr $C$DW$21, DW_AT_name("macStackEventLoop")
     183                            .dwattr $C$DW$21, DW_AT_TI_symbol_name("macStackEventLoop")
     184                            .dwattr $C$DW$21, DW_AT_type(*$C$DW$T$65)
     185                            .dwattr $C$DW$21, DW_AT_declaration
     186                            .dwattr $C$DW$21, DW_AT_external
     187                            .dwattr $C$DW$21, DW_AT_decl_file("C:/ti/simplelink_cc13x0_sdk_2_30_00_20/examples/rtos/CC1350
     188                            .dwattr $C$DW$21, DW_AT_decl_line(0x129)
     189                            .dwattr $C$DW$21, DW_AT_decl_column(0x08)
     190                    $C$DW$22        .dwtag  DW_TAG_formal_parameter
     191                            .dwattr $C$DW$22, DW_AT_type(*$C$DW$T$61)
     192                    
     193                    $C$DW$23        .dwtag  DW_TAG_formal_parameter
     194                            .dwattr $C$DW$23, DW_AT_type(*$C$DW$T$65)
     195                    
     196                            .dwendtag $C$DW$21
     197                    
     198                    
     199                    $C$DW$24        .dwtag  DW_TAG_subprogram
     200                            .dwattr $C$DW$24, DW_AT_name("macLowLevelInit")
     201                            .dwattr $C$DW$24, DW_AT_TI_symbol_name("macLowLevelInit")
     202                            .dwattr $C$DW$24, DW_AT_declaration
     203                            .dwattr $C$DW$24, DW_AT_external
     204                            .dwattr $C$DW$24, DW_AT_decl_file("C:/ti/simplelink_cc13x0_sdk_2_30_00_20/source/ti/ti154stack
     205                            .dwattr $C$DW$24, DW_AT_decl_line(0xa7)
     206                            .dwattr $C$DW$24, DW_AT_decl_column(0x17)
     207                            .dwendtag $C$DW$24
     208                    
     209                    
     210                    $C$DW$25        .dwtag  DW_TAG_subprogram
     211                            .dwattr $C$DW$25, DW_AT_name("macLowLevelBufferInit")
     212                            .dwattr $C$DW$25, DW_AT_TI_symbol_name("macLowLevelBufferInit")
     213                            .dwattr $C$DW$25, DW_AT_declaration
     214                            .dwattr $C$DW$25, DW_AT_external
     215                            .dwattr $C$DW$25, DW_AT_decl_file("C:/ti/simplelink_cc13x0_sdk_2_30_00_20/source/ti/ti154stack
     216                            .dwattr $C$DW$25, DW_AT_decl_line(0xa8)
     217                            .dwattr $C$DW$25, DW_AT_decl_column(0x17)
     218                            .dwendtag $C$DW$25
     219                    
     220                    
TI ARM Assembler PC v16.9.8 Sat Nov 24 22:21:09 2018

Tools Copyright (c) 1996-2017 Texas Instruments Incorporated
C:\Users\Einstein\AppData\Local\Temp\{0ED9912E-F216-4B11-AF33-9BA1337BDC1F} PAGE    5

     221                    $C$DW$26        .dwtag  DW_TAG_subprogram
     222                            .dwattr $C$DW$26, DW_AT_name("HalTRNG_InitTRNG")
     223                            .dwattr $C$DW$26, DW_AT_TI_symbol_name("HalTRNG_InitTRNG")
     224                            .dwattr $C$DW$26, DW_AT_declaration
     225                            .dwattr $C$DW$26, DW_AT_external
     226                            .dwattr $C$DW$26, DW_AT_decl_file("C:/ti/simplelink_cc13x0_sdk_2_30_00_20/source/ti/ti154stack
     227                            .dwattr $C$DW$26, DW_AT_decl_line(0x54)
     228                            .dwattr $C$DW$26, DW_AT_decl_column(0x0f)
     229                            .dwendtag $C$DW$26
     230                    
     231                    
     232                    $C$DW$27        .dwtag  DW_TAG_subprogram
     233                            .dwattr $C$DW$27, DW_AT_name("HalAesInit")
     234                            .dwattr $C$DW$27, DW_AT_TI_symbol_name("HalAesInit")
     235                            .dwattr $C$DW$27, DW_AT_declaration
     236                            .dwattr $C$DW$27, DW_AT_external
     237                            .dwattr $C$DW$27, DW_AT_decl_file("C:/ti/simplelink_cc13x0_sdk_2_30_00_20/source/ti/ti154stack
     238                            .dwattr $C$DW$27, DW_AT_decl_line(0x37)
     239                            .dwattr $C$DW$27, DW_AT_decl_column(0x0d)
     240                            .dwendtag $C$DW$27
     241                    
     242                    
     243                    $C$DW$28        .dwtag  DW_TAG_subprogram
     244                            .dwattr $C$DW$28, DW_AT_name("icall_slimMsgParser")
     245                            .dwattr $C$DW$28, DW_AT_TI_symbol_name("icall_slimMsgParser")
     246                            .dwattr $C$DW$28, DW_AT_declaration
     247                            .dwattr $C$DW$28, DW_AT_external
     248                            .dwattr $C$DW$28, DW_AT_decl_file("../Application/MAC/StartUp/osaltasks.c")
     249                            .dwattr $C$DW$28, DW_AT_decl_line(0xf0)
     250                            .dwattr $C$DW$28, DW_AT_decl_column(0x0f)
     251                    $C$DW$29        .dwtag  DW_TAG_formal_parameter
     252                            .dwattr $C$DW$29, DW_AT_type(*$C$DW$T$3)
     253                    
     254                            .dwendtag $C$DW$28
     255                    
     256                    $C$DW$30        .dwtag  DW_TAG_variable
     257                            .dwattr $C$DW$30, DW_AT_name("ICall_dispatcher")
     258                            .dwattr $C$DW$30, DW_AT_TI_symbol_name("ICall_dispatcher")
     259                            .dwattr $C$DW$30, DW_AT_type(*$C$DW$T$840)
     260                            .dwattr $C$DW$30, DW_AT_declaration
     261                            .dwattr $C$DW$30, DW_AT_external
     262                            .dwattr $C$DW$30, DW_AT_decl_file("C:/ti/simplelink_cc13x0_sdk_2_30_00_20/source/ti/ti154stack
     263                            .dwattr $C$DW$30, DW_AT_decl_line(0x381)
     264                            .dwattr $C$DW$30, DW_AT_decl_column(0x19)
     265                    
     266                    $C$DW$31        .dwtag  DW_TAG_variable
     267                            .dwattr $C$DW$31, DW_AT_name("ICall_enterCriticalSection")
     268                            .dwattr $C$DW$31, DW_AT_TI_symbol_name("ICall_enterCriticalSection")
     269                            .dwattr $C$DW$31, DW_AT_type(*$C$DW$T$844)
     270                            .dwattr $C$DW$31, DW_AT_declaration
     271                            .dwattr $C$DW$31, DW_AT_external
     272                            .dwattr $C$DW$31, DW_AT_decl_file("C:/ti/simplelink_cc13x0_sdk_2_30_00_20/source/ti/ti154stack
     273                            .dwattr $C$DW$31, DW_AT_decl_line(0x384)
     274                            .dwattr $C$DW$31, DW_AT_decl_column(0x16)
     275                    
TI ARM Assembler PC v16.9.8 Sat Nov 24 22:21:09 2018

Tools Copyright (c) 1996-2017 Texas Instruments Incorporated
C:\Users\Einstein\AppData\Local\Temp\{0ED9912E-F216-4B11-AF33-9BA1337BDC1F} PAGE    6

     276                    $C$DW$32        .dwtag  DW_TAG_variable
     277                            .dwattr $C$DW$32, DW_AT_name("ICall_leaveCriticalSection")
     278                            .dwattr $C$DW$32, DW_AT_TI_symbol_name("ICall_leaveCriticalSection")
     279                            .dwattr $C$DW$32, DW_AT_type(*$C$DW$T$847)
     280                            .dwattr $C$DW$32, DW_AT_declaration
     281                            .dwattr $C$DW$32, DW_AT_external
     282                            .dwattr $C$DW$32, DW_AT_decl_file("C:/ti/simplelink_cc13x0_sdk_2_30_00_20/source/ti/ti154stack
     283                            .dwattr $C$DW$32, DW_AT_decl_line(0x387)
     284                            .dwattr $C$DW$32, DW_AT_decl_column(0x16)
     285                    
     286                    $C$DW$33        .dwtag  DW_TAG_variable
     287                            .dwattr $C$DW$33, DW_AT_name("osal_semaphore")
     288                            .dwattr $C$DW$33, DW_AT_TI_symbol_name("osal_semaphore")
     289                            .dwattr $C$DW$33, DW_AT_type(*$C$DW$T$1160)
     290                            .dwattr $C$DW$33, DW_AT_declaration
     291                            .dwattr $C$DW$33, DW_AT_external
     292                            .dwattr $C$DW$33, DW_AT_decl_file("C:/ti/simplelink_cc13x0_sdk_2_30_00_20/source/ti/ti154stack
     293                            .dwattr $C$DW$33, DW_AT_decl_line(0x8f)
     294                            .dwattr $C$DW$33, DW_AT_decl_column(0x18)
     295                    
     296                    $C$DW$34        .dwtag  DW_TAG_variable
     297                            .dwattr $C$DW$34, DW_AT_name("osal_entity")
     298                            .dwattr $C$DW$34, DW_AT_TI_symbol_name("osal_entity")
     299                            .dwattr $C$DW$34, DW_AT_type(*$C$DW$T$477)
     300                            .dwattr $C$DW$34, DW_AT_declaration
     301                            .dwattr $C$DW$34, DW_AT_external
     302                            .dwattr $C$DW$34, DW_AT_decl_file("C:/ti/simplelink_cc13x0_sdk_2_30_00_20/source/ti/ti154stack
     303                            .dwattr $C$DW$34, DW_AT_decl_line(0x91)
     304                            .dwattr $C$DW$34, DW_AT_decl_column(0x17)
     305                    
     306                    $C$DW$35        .dwtag  DW_TAG_variable
     307                            .dwattr $C$DW$35, DW_AT_name("macCryptoDrvTblPtr")
     308                            .dwattr $C$DW$35, DW_AT_TI_symbol_name("macCryptoDrvTblPtr")
     309                            .dwattr $C$DW$35, DW_AT_type(*$C$DW$T$35)
     310                            .dwattr $C$DW$35, DW_AT_declaration
     311                            .dwattr $C$DW$35, DW_AT_external
     312                            .dwattr $C$DW$35, DW_AT_decl_file("C:/ti/simplelink_cc13x0_sdk_2_30_00_20/source/ti/ti154stack
     313                            .dwattr $C$DW$35, DW_AT_decl_line(0x42)
     314                            .dwattr $C$DW$35, DW_AT_decl_column(0x12)
     315                    
     316                            .global tasksArr
     317 00000000                   .sect   ".const:tasksArr"
     318                            .clink
     319                            .align  4
     320                            .elfsym tasksArr,SYM_SIZE(4)
     321 00000000           tasksArr:
     322 00000000 00000000!         .bits   macStackEventLoop,32            ; tasksArr[0] @ 0
     323                    
     324                    $C$DW$36        .dwtag  DW_TAG_variable
     325                            .dwattr $C$DW$36, DW_AT_name("tasksArr")
     326                            .dwattr $C$DW$36, DW_AT_TI_symbol_name("tasksArr")
     327                            .dwattr $C$DW$36, DW_AT_location[DW_OP_addr tasksArr]
     328                            .dwattr $C$DW$36, DW_AT_type(*$C$DW$T$1221)
     329                            .dwattr $C$DW$36, DW_AT_external
     330                            .dwattr $C$DW$36, DW_AT_decl_file("../Application/MAC/StartUp/osaltasks.c")
TI ARM Assembler PC v16.9.8 Sat Nov 24 22:21:09 2018

Tools Copyright (c) 1996-2017 Texas Instruments Incorporated
C:\Users\Einstein\AppData\Local\Temp\{0ED9912E-F216-4B11-AF33-9BA1337BDC1F} PAGE    7

     331                            .dwattr $C$DW$36, DW_AT_decl_line(0x5b)
     332                            .dwattr $C$DW$36, DW_AT_decl_column(0x1b)
     333                    
     334                            .global tasksCnt
     335 00000000                   .sect   ".const"
     336                            .align  1
     337                            .elfsym tasksCnt,SYM_SIZE(1)
     338 00000000           tasksCnt:
     339 00000000 00000001          .bits   1,8                     ; tasksCnt @ 0
     340                    
     341                    $C$DW$37        .dwtag  DW_TAG_variable
     342                            .dwattr $C$DW$37, DW_AT_name("tasksCnt")
     343                            .dwattr $C$DW$37, DW_AT_TI_symbol_name("tasksCnt")
     344                            .dwattr $C$DW$37, DW_AT_location[DW_OP_addr tasksCnt]
     345                            .dwattr $C$DW$37, DW_AT_type(*$C$DW$T$421)
     346                            .dwattr $C$DW$37, DW_AT_external
     347                            .dwattr $C$DW$37, DW_AT_decl_file("../Application/MAC/StartUp/osaltasks.c")
     348                            .dwattr $C$DW$37, DW_AT_decl_line(0x5f)
     349                            .dwattr $C$DW$37, DW_AT_decl_column(0x0d)
     350                    
     351                            .global macTasksEvents
     352                            .common macTasksEvents,4,4
     353                    $C$DW$38        .dwtag  DW_TAG_variable
     354                            .dwattr $C$DW$38, DW_AT_name("macTasksEvents")
     355                            .dwattr $C$DW$38, DW_AT_TI_symbol_name("macTasksEvents")
     356                            .dwattr $C$DW$38, DW_AT_location[DW_OP_addr macTasksEvents]
     357                            .dwattr $C$DW$38, DW_AT_type(*$C$DW$T$1225)
     358                            .dwattr $C$DW$38, DW_AT_external
     359                            .dwattr $C$DW$38, DW_AT_decl_file("../Application/MAC/StartUp/osaltasks.c")
     360                            .dwattr $C$DW$38, DW_AT_decl_line(0x60)
     361                            .dwattr $C$DW$38, DW_AT_decl_column(0x09)
     362                    
     363                    $C$DW$39        .dwtag  DW_TAG_variable
     364                            .dwattr $C$DW$39, DW_AT_name("Crypto_handle")
     365                            .dwattr $C$DW$39, DW_AT_TI_symbol_name("Crypto_handle")
     366                            .dwattr $C$DW$39, DW_AT_type(*$C$DW$T$1140)
     367                            .dwattr $C$DW$39, DW_AT_declaration
     368                            .dwattr $C$DW$39, DW_AT_external
     369                            .dwattr $C$DW$39, DW_AT_decl_file("../Application/MAC/StartUp/osaltasks.c")
     370                            .dwattr $C$DW$39, DW_AT_decl_line(0xd3)
     371                            .dwattr $C$DW$39, DW_AT_decl_column(0x1e)
     372                    
     373                    ;       C:\ti\ccsv7\tools\compiler\ti-cgt-arm_16.9.8.LTS\bin\armopt.exe C:/Users/Einstein/MyWorkspaceC
     374 00000000                   .sect   ".text:ICall_abort"
     375                            .clink
     376                            .thumbfunc ICall_abort
     377 00000000                   .thumb
     378                    
     379                    $C$DW$40        .dwtag  DW_TAG_subprogram
     380                            .dwattr $C$DW$40, DW_AT_name("ICall_abort")
     381                            .dwattr $C$DW$40, DW_AT_low_pc(ICall_abort)
     382                            .dwattr $C$DW$40, DW_AT_high_pc(0x00)
     383                            .dwattr $C$DW$40, DW_AT_TI_symbol_name("ICall_abort")
     384                            .dwattr $C$DW$40, DW_AT_type(*$C$DW$T$802)
     385                            .dwattr $C$DW$40, DW_AT_TI_begin_file("C:/ti/simplelink_cc13x0_sdk_2_30_00_20/source/ti/ti154s
TI ARM Assembler PC v16.9.8 Sat Nov 24 22:21:09 2018

Tools Copyright (c) 1996-2017 Texas Instruments Incorporated
C:\Users\Einstein\AppData\Local\Temp\{0ED9912E-F216-4B11-AF33-9BA1337BDC1F} PAGE    8

     386                            .dwattr $C$DW$40, DW_AT_TI_begin_line(0x846)
     387                            .dwattr $C$DW$40, DW_AT_TI_begin_column(0x01)
     388                            .dwattr $C$DW$40, DW_AT_decl_file("C:/ti/simplelink_cc13x0_sdk_2_30_00_20/source/ti/ti154stack
     389                            .dwattr $C$DW$40, DW_AT_decl_line(0x846)
     390                            .dwattr $C$DW$40, DW_AT_decl_column(0x01)
     391                            .dwattr $C$DW$40, DW_AT_TI_max_frame_size(0x08)
     392                            .dwpsn  file "C:/ti/simplelink_cc13x0_sdk_2_30_00_20/source/ti/ti154stack/icall/src/inc/icall.
     393                    
     394                            .dwfde $C$DW$CIE, ICall_abort
     395                    
     396                    ;*****************************************************************************
     397                    ;* FUNCTION NAME: ICall_abort                                                *
     398                    ;*                                                                           *
     399                    ;*   Regs Modified     : A1,A2,A3,A4,V9,SP,LR,SR                             *
     400                    ;*   Regs Used         : A1,A2,A3,A4,V9,SP,LR,SR                             *
     401                    ;*   Local Frame Size  : 0 Args + 4 Auto + 4 Save = 8 byte                   *
     402                    ;*****************************************************************************
     403                    ICall_abort:
     404                    ;* --------------------------------------------------------------------------*
     405                    $C$DW$41        .dwtag  DW_TAG_variable
     406                            .dwattr $C$DW$41, DW_AT_name("args")
     407                            .dwattr $C$DW$41, DW_AT_TI_symbol_name("args")
     408                            .dwattr $C$DW$41, DW_AT_type(*$C$DW$T$796)
     409                            .dwattr $C$DW$41, DW_AT_location[DW_OP_breg13 0]
     410                    
     411                            .dwcfi  cfa_offset, 0
     412 00000000 B508              PUSH      {A4, LR}              ; [DPU_3_PIPE]  ; [ORIG 16-BIT INS]
     413                            .dwcfi  cfa_offset, 8
     414                            .dwcfi  save_reg_to_mem, 14, -4
     415                            .dwcfi  save_reg_to_mem, 3, -8
     416                            .dwpsn  file "C:/ti/simplelink_cc13x0_sdk_2_30_00_20/source/ti/ti154stack/icall/src/inc/icall.
     417 00000002 2008              MOVS      A1, #8                ; [DPU_3_PIPE] |2123|  ; [ORIG 16-BIT INS]
     418 00000004 0000F8AD          STRH      A1, [SP, #0]          ; [DPU_3_PIPE] |2123|  ; [KEEP 32-BIT INS]
     419                            .dwpsn  file "C:/ti/simplelink_cc13x0_sdk_2_30_00_20/source/ti/ti154stack/icall/src/inc/icall.
     420 00000008 200C              MOVS      A1, #12               ; [DPU_3_PIPE] |2124|  ; [ORIG 16-BIT INS]
     421 0000000a 0002F8AD          STRH      A1, [SP, #2]          ; [DPU_3_PIPE] |2124|  ; [KEEP 32-BIT INS]
     422                            .dwpsn  file "C:/ti/simplelink_cc13x0_sdk_2_30_00_20/source/ti/ti154stack/icall/src/inc/icall.
     423 0000000e 4802              LDR       A1, $C$CON1           ; [DPU_3_PIPE] |2125|  ; [ORIG 16-BIT INS]
     424 00000010 6801              LDR       A2, [A1, #0]          ; [DPU_3_PIPE] |2125|  ; [ORIG 16-BIT INS]
     425 00000012 4668              MOV       A1, SP                ; [DPU_3_PIPE] |2125|  ; [ORIG 16-BIT INS]
     426                    $C$DW$42        .dwtag  DW_TAG_TI_branch
     427                            .dwattr $C$DW$42, DW_AT_low_pc(0x00)
     428                            .dwattr $C$DW$42, DW_AT_TI_call
     429                            .dwattr $C$DW$42, DW_AT_TI_indirect
     430                    
     431 00000014 4788              BLX       A2                    ; [DPU_3_PIPE] |2125|  ; [ORIG 16-BIT INS]
     432                            ; CALL OCCURS {}                 ; [] |2125| 
     433                    $C$DW$43        .dwtag  DW_TAG_TI_branch
     434                            .dwattr $C$DW$43, DW_AT_low_pc(0x00)
     435                            .dwattr $C$DW$43, DW_AT_TI_return
     436                    
     437 00000016 BD08              POP       {A4, PC}              ; [DPU_3_PIPE]  ; [ORIG 16-BIT INS]
     438                            .dwcfi  cfa_offset, 0
     439                            .dwcfi  restore_reg, 3
     440                            ; BRANCH OCCURS                  ; [] 
TI ARM Assembler PC v16.9.8 Sat Nov 24 22:21:09 2018

Tools Copyright (c) 1996-2017 Texas Instruments Incorporated
C:\Users\Einstein\AppData\Local\Temp\{0ED9912E-F216-4B11-AF33-9BA1337BDC1F} PAGE    9

     441                            .dwattr $C$DW$40, DW_AT_TI_end_file("C:/ti/simplelink_cc13x0_sdk_2_30_00_20/source/ti/ti154sta
     442                            .dwattr $C$DW$40, DW_AT_TI_end_line(0x84e)
     443                            .dwattr $C$DW$40, DW_AT_TI_end_column(0x01)
     444                            .dwendentry
     445                            .dwendtag $C$DW$40
     446                    
     447 00000000                   .sect   ".text:stack_main"
     448                            .clink
     449                            .thumbfunc stack_main
     450 00000000                   .thumb
     451                            .global stack_main
     452                    
     453                    $C$DW$44        .dwtag  DW_TAG_subprogram
     454                            .dwattr $C$DW$44, DW_AT_name("stack_main")
     455                            .dwattr $C$DW$44, DW_AT_low_pc(stack_main)
     456                            .dwattr $C$DW$44, DW_AT_high_pc(0x00)
     457                            .dwattr $C$DW$44, DW_AT_TI_symbol_name("stack_main")
     458                            .dwattr $C$DW$44, DW_AT_external
     459                            .dwattr $C$DW$44, DW_AT_type(*$C$DW$T$10)
     460                            .dwattr $C$DW$44, DW_AT_TI_begin_file("../Application/MAC/StartUp/osaltasks.c")
     461                            .dwattr $C$DW$44, DW_AT_TI_begin_line(0x88)
     462                            .dwattr $C$DW$44, DW_AT_TI_begin_column(0x05)
     463                            .dwattr $C$DW$44, DW_AT_decl_file("../Application/MAC/StartUp/osaltasks.c")
     464                            .dwattr $C$DW$44, DW_AT_decl_line(0x88)
     465                            .dwattr $C$DW$44, DW_AT_decl_column(0x05)
     466                            .dwattr $C$DW$44, DW_AT_TI_max_frame_size(0x28)
     467                            .dwpsn  file "../Application/MAC/StartUp/osaltasks.c",line 137,column 1,is_stmt,address stack_
     468                    
     469                            .dwfde $C$DW$CIE, stack_main
     470                    $C$DW$45        .dwtag  DW_TAG_formal_parameter
     471                            .dwattr $C$DW$45, DW_AT_name("arg")
     472                            .dwattr $C$DW$45, DW_AT_TI_symbol_name("arg")
     473                            .dwattr $C$DW$45, DW_AT_type(*$C$DW$T$3)
     474                            .dwattr $C$DW$45, DW_AT_location[DW_OP_reg0]
     475                    
     476                    
     477                    ;*****************************************************************************
     478                    ;* FUNCTION NAME: stack_main                                                 *
     479                    ;*                                                                           *
     480                    ;*   Regs Modified     : A1,A2,A3,A4,V1,V2,V3,V9,SP,LR,SR                    *
     481                    ;*   Regs Used         : A1,A2,A3,A4,V1,V2,V3,V9,SP,LR,SR                    *
     482                    ;*   Local Frame Size  : 0 Args + 24 Auto + 16 Save = 40 byte                *
     483                    ;*****************************************************************************
     484                    stack_main:
     485                    ;* --------------------------------------------------------------------------*
     486                    $C$DW$46        .dwtag  DW_TAG_variable
     487                            .dwattr $C$DW$46, DW_AT_name("args")
     488                            .dwattr $C$DW$46, DW_AT_TI_symbol_name("args")
     489                            .dwattr $C$DW$46, DW_AT_type(*$C$DW$T$1285)
     490                            .dwattr $C$DW$46, DW_AT_location[DW_OP_breg13 0]
     491                    
     492                    $C$DW$47        .dwtag  DW_TAG_variable
     493                            .dwattr $C$DW$47, DW_AT_name("args")
     494                            .dwattr $C$DW$47, DW_AT_TI_symbol_name("args")
     495                            .dwattr $C$DW$47, DW_AT_type(*$C$DW$T$1291)
TI ARM Assembler PC v16.9.8 Sat Nov 24 22:21:09 2018

Tools Copyright (c) 1996-2017 Texas Instruments Incorporated
C:\Users\Einstein\AppData\Local\Temp\{0ED9912E-F216-4B11-AF33-9BA1337BDC1F} PAGE   10

     496                            .dwattr $C$DW$47, DW_AT_location[DW_OP_breg13 8]
     497                    
     498                    $C$DW$48        .dwtag  DW_TAG_variable
     499                            .dwattr $C$DW$48, DW_AT_name("CryptoCC26XXParams")
     500                            .dwattr $C$DW$48, DW_AT_TI_symbol_name("CryptoCC26XXParams")
     501                            .dwattr $C$DW$48, DW_AT_type(*$C$DW$T$1141)
     502                            .dwattr $C$DW$48, DW_AT_location[DW_OP_breg13 20]
     503                    
     504                    ;* V1    assigned to $O$C2
     505                    ;* V2    assigned to $O$K3
     506                    ;* V1    assigned to $O$K16
     507                    ;* A1    assigned to $O$v1
     508                    ;* V3    assigned to arg
     509                    $C$DW$49        .dwtag  DW_TAG_variable
     510                            .dwattr $C$DW$49, DW_AT_name("arg")
     511                            .dwattr $C$DW$49, DW_AT_TI_symbol_name("arg")
     512                            .dwattr $C$DW$49, DW_AT_type(*$C$DW$T$1168)
     513                            .dwattr $C$DW$49, DW_AT_location[DW_OP_reg6]
     514                    
     515                    ;* V3    assigned to state
     516                    $C$DW$50        .dwtag  DW_TAG_variable
     517                            .dwattr $C$DW$50, DW_AT_name("state")
     518                            .dwattr $C$DW$50, DW_AT_TI_symbol_name("state")
     519                            .dwattr $C$DW$50, DW_AT_type(*$C$DW$T$1249)
     520                            .dwattr $C$DW$50, DW_AT_location[DW_OP_reg6]
     521                    
     522                    ;* A1    assigned to errno
     523                    $C$DW$51        .dwtag  DW_TAG_variable
     524                            .dwattr $C$DW$51, DW_AT_name("errno")
     525                            .dwattr $C$DW$51, DW_AT_TI_symbol_name("errno")
     526                            .dwattr $C$DW$51, DW_AT_type(*$C$DW$T$802)
     527                            .dwattr $C$DW$51, DW_AT_location[DW_OP_reg0]
     528                    
     529                            .dwcfi  cfa_offset, 0
     530 00000000 B570              PUSH      {V1, V2, V3, LR}      ; [DPU_3_PIPE]  ; [ORIG 16-BIT INS]
     531                            .dwcfi  cfa_offset, 16
     532                            .dwcfi  save_reg_to_mem, 14, -4
     533                            .dwcfi  save_reg_to_mem, 6, -8
     534                            .dwcfi  save_reg_to_mem, 5, -12
     535                            .dwcfi  save_reg_to_mem, 4, -16
     536 00000002 4606              MOV       V3, A1                ; [DPU_3_PIPE] |137|  ; [ORIG 16-BIT INS]
     537 00000004 0D18F1AD          SUB       SP, SP, #24           ; [DPU_3_PIPE]  ; [KEEP 32-BIT INS]
     538                            .dwcfi  cfa_offset, 40
     539                            .dwpsn  file "../Application/MAC/StartUp/osaltasks.c",line 179,column 3,is_stmt,isa 1
     540                    $C$DW$52        .dwtag  DW_TAG_TI_branch
     541                            .dwattr $C$DW$52, DW_AT_low_pc(0x00)
     542                            .dwattr $C$DW$52, DW_AT_name("macSetUserConfig")
     543                            .dwattr $C$DW$52, DW_AT_TI_call
     544                    
     545 00000008 FFFEF7FF!         BL        macSetUserConfig      ; [DPU_3_PIPE] |179|  ; [KEEP 32-BIT INS]
     546                            ; CALL OCCURS {macSetUserConfig }  ; [] |179| 
     547                            .dwpsn  file "C:/ti/simplelink_cc13x0_sdk_2_30_00_20/source/ti/ti154stack/icall/src/inc/icall.
     548 0000000c 2508              MOVS      V2, #8                ; [DPU_3_PIPE] |1768|  ; [ORIG 16-BIT INS]
     549                            .dwpsn  file "C:/ti/simplelink_cc13x0_sdk_2_30_00_20/source/ti/ti154stack/icall/src/inc/icall.
     550 0000000e 2001              MOVS      A1, #1                ; [DPU_3_PIPE] |1769|  ; [ORIG 16-BIT INS]
TI ARM Assembler PC v16.9.8 Sat Nov 24 22:21:09 2018

Tools Copyright (c) 1996-2017 Texas Instruments Incorporated
C:\Users\Einstein\AppData\Local\Temp\{0ED9912E-F216-4B11-AF33-9BA1337BDC1F} PAGE   11

     551                            .dwpsn  file "C:/ti/simplelink_cc13x0_sdk_2_30_00_20/source/ti/ti154stack/icall/src/inc/icall.
     552 00000010 4C2A              LDR       V1, $C$CON2           ; [DPU_3_PIPE] |1770|  ; [ORIG 16-BIT INS]
     553                            .dwpsn  file "C:/ti/simplelink_cc13x0_sdk_2_30_00_20/source/ti/ti154stack/icall/src/inc/icall.
     554 00000012 5008F8AD          STRH      V2, [SP, #8]          ; [DPU_3_PIPE] |1768|  ; [KEEP 32-BIT INS]
     555                            .dwpsn  file "C:/ti/simplelink_cc13x0_sdk_2_30_00_20/source/ti/ti154stack/icall/src/inc/icall.
     556 00000016 6821              LDR       A2, [V1, #0]          ; [DPU_3_PIPE] |1770|  ; [ORIG 16-BIT INS]
     557                            .dwpsn  file "C:/ti/simplelink_cc13x0_sdk_2_30_00_20/source/ti/ti154stack/icall/src/inc/icall.
     558 00000018 000AF8AD          STRH      A1, [SP, #10]         ; [DPU_3_PIPE] |1769|  ; [KEEP 32-BIT INS]
     559                            .dwpsn  file "C:/ti/simplelink_cc13x0_sdk_2_30_00_20/source/ti/ti154stack/icall/src/inc/icall.
     560 0000001c A802              ADD       A1, SP, #8            ; [DPU_3_PIPE] |1770|  ; [ORIG 16-BIT INS]
     561                    $C$DW$53        .dwtag  DW_TAG_TI_branch
     562                            .dwattr $C$DW$53, DW_AT_low_pc(0x00)
     563                            .dwattr $C$DW$53, DW_AT_TI_call
     564                            .dwattr $C$DW$53, DW_AT_TI_indirect
     565                    
     566 0000001e 4788              BLX       A2                    ; [DPU_3_PIPE] |1770|  ; [ORIG 16-BIT INS]
     567                            ; CALL OCCURS {}                 ; [] |1770| 
     568                            .dwpsn  file "C:/ti/simplelink_cc13x0_sdk_2_30_00_20/source/ti/ti154stack/icall/src/inc/icall.
     569 00000020 4A27              LDR       A3, $C$CON3           ; [DPU_3_PIPE] |1771|  ; [ORIG 16-BIT INS]
     570 00000022 100CF89D          LDRB      A2, [SP, #12]         ; [DPU_3_PIPE] |1771|  ; [KEEP 32-BIT INS]
     571 00000026 7011              STRB      A2, [A3, #0]          ; [DPU_3_PIPE] |1771|  ; [ORIG 16-BIT INS]
     572                            .dwpsn  file "C:/ti/simplelink_cc13x0_sdk_2_30_00_20/source/ti/ti154stack/icall/src/inc/icall.
     573 00000028 4A26              LDR       A3, $C$CON4           ; [DPU_3_PIPE] |1772|  ; [ORIG 16-BIT INS]
     574 0000002a 9904              LDR       A2, [SP, #16]         ; [DPU_3_PIPE] |1772|  ; [ORIG 16-BIT INS]
     575 0000002c 6011              STR       A2, [A3, #0]          ; [DPU_3_PIPE] |1772|  ; [ORIG 16-BIT INS]
     576 0000002e B108              CBZ       A1, ||$C$L1||         ; []  ; [ORIG 16-BIT INS]
     577                            .dwpsn  file "../Application/MAC/StartUp/osaltasks.c",line 182,column 3,is_stmt,isa 1
     578                            ; BRANCHCC OCCURS {||$C$L1||}    ; [] |182| 
     579                    ;* --------------------------------------------------------------------------*
     580                            .dwpsn  file "../Application/MAC/StartUp/osaltasks.c",line 186,column 5,is_stmt,isa 1
     581                    $C$DW$54        .dwtag  DW_TAG_TI_branch
     582                            .dwattr $C$DW$54, DW_AT_low_pc(0x00)
     583                            .dwattr $C$DW$54, DW_AT_name("ICall_abort")
     584                            .dwattr $C$DW$54, DW_AT_TI_call
     585                    
     586 00000030 FFFEF7FF!         BL        ICall_abort           ; [DPU_3_PIPE] |186|  ; [KEEP 32-BIT INS]
     587                            ; CALL OCCURS {ICall_abort }     ; [] |186| 
     588                    ;* --------------------------------------------------------------------------*
     589 00000034           ||$C$L1||:    
     590                            .dwpsn  file "../Application/MAC/StartUp/osaltasks.c",line 190,column 3,is_stmt,isa 1
     591 00000034 6830              LDR       A1, [V3, #0]          ; [DPU_3_PIPE] |190|  ; [ORIG 16-BIT INS]
     592                    $C$DW$55        .dwtag  DW_TAG_TI_branch
     593                            .dwattr $C$DW$55, DW_AT_low_pc(0x00)
     594                            .dwattr $C$DW$55, DW_AT_TI_call
     595                            .dwattr $C$DW$55, DW_AT_TI_indirect
     596                    
     597 00000036 4780              BLX       A1                    ; [DPU_3_PIPE] |190|  ; [ORIG 16-BIT INS]
     598                            ; CALL OCCURS {}                 ; [] |190| 
     599                            .dwpsn  file "../Application/MAC/StartUp/osaltasks.c",line 197,column 3,is_stmt,isa 1
     600 00000038 4823              LDR       A1, $C$CON5           ; [DPU_3_PIPE] |197|  ; [ORIG 16-BIT INS]
     601 0000003a 6800              LDR       A1, [A1, #0]          ; [DPU_3_PIPE] |197|  ; [ORIG 16-BIT INS]
     602                    $C$DW$56        .dwtag  DW_TAG_TI_branch
     603                            .dwattr $C$DW$56, DW_AT_low_pc(0x00)
     604                            .dwattr $C$DW$56, DW_AT_TI_call
     605                            .dwattr $C$DW$56, DW_AT_TI_indirect
TI ARM Assembler PC v16.9.8 Sat Nov 24 22:21:09 2018

Tools Copyright (c) 1996-2017 Texas Instruments Incorporated
C:\Users\Einstein\AppData\Local\Temp\{0ED9912E-F216-4B11-AF33-9BA1337BDC1F} PAGE   12

     606                    
     607 0000003c 4780              BLX       A1                    ; [DPU_3_PIPE] |197|  ; [ORIG 16-BIT INS]
     608                            ; CALL OCCURS {}                 ; [] |197| 
     609 0000003e 4606              MOV       V3, A1                ; [DPU_3_PIPE] |197|  ; [ORIG 16-BIT INS]
     610                            .dwpsn  file "C:/ti/simplelink_cc13x0_sdk_2_30_00_20/source/ti/ti154stack/icall/src/inc/icall.
     611 00000040 5300F44F          MOV       A4, #8192             ; [DPU_3_PIPE] |2431|  ; [KEEP 32-BIT INS]
     612                            .dwpsn  file "C:/ti/simplelink_cc13x0_sdk_2_30_00_20/source/ti/ti154stack/icall/src/inc/icall.
     613 00000044 5000F8AD          STRH      V2, [SP, #0]          ; [DPU_3_PIPE] |2429|  ; [KEEP 32-BIT INS]
     614                            .dwpsn  file "C:/ti/simplelink_cc13x0_sdk_2_30_00_20/source/ti/ti154stack/icall/src/inc/icall.
     615 00000048 201E              MOVS      A1, #30               ; [DPU_3_PIPE] |2430|  ; [ORIG 16-BIT INS]
     616                            .dwpsn  file "C:/ti/simplelink_cc13x0_sdk_2_30_00_20/source/ti/ti154stack/icall/src/inc/icall.
     617 0000004a 9301              STR       A4, [SP, #4]          ; [DPU_3_PIPE] |2431|  ; [ORIG 16-BIT INS]
     618                            .dwpsn  file "C:/ti/simplelink_cc13x0_sdk_2_30_00_20/source/ti/ti154stack/icall/src/inc/icall.
     619 0000004c 6821              LDR       A2, [V1, #0]          ; [DPU_3_PIPE] |2432|  ; [ORIG 16-BIT INS]
     620                            .dwpsn  file "C:/ti/simplelink_cc13x0_sdk_2_30_00_20/source/ti/ti154stack/icall/src/inc/icall.
     621 0000004e 0002F8AD          STRH      A1, [SP, #2]          ; [DPU_3_PIPE] |2430|  ; [KEEP 32-BIT INS]
     622                            .dwpsn  file "C:/ti/simplelink_cc13x0_sdk_2_30_00_20/source/ti/ti154stack/icall/src/inc/icall.
     623 00000052 4668              MOV       A1, SP                ; [DPU_3_PIPE] |2432|  ; [ORIG 16-BIT INS]
     624                    $C$DW$57        .dwtag  DW_TAG_TI_branch
     625                            .dwattr $C$DW$57, DW_AT_low_pc(0x00)
     626                            .dwattr $C$DW$57, DW_AT_TI_call
     627                            .dwattr $C$DW$57, DW_AT_TI_indirect
     628                    
     629 00000054 4788              BLX       A2                    ; [DPU_3_PIPE] |2432|  ; [ORIG 16-BIT INS]
     630                            ; CALL OCCURS {}                 ; [] |2432| 
     631                            .dwpsn  file "../Application/MAC/StartUp/osaltasks.c",line 207,column 3,is_stmt,isa 1
     632                    $C$DW$58        .dwtag  DW_TAG_TI_branch
     633                            .dwattr $C$DW$58, DW_AT_low_pc(0x00)
     634                            .dwattr $C$DW$58, DW_AT_name("HalTRNG_InitTRNG")
     635                            .dwattr $C$DW$58, DW_AT_TI_call
     636                    
     637 00000056 FFFEF7FF!         BL        HalTRNG_InitTRNG      ; [DPU_3_PIPE] |207|  ; [KEEP 32-BIT INS]
     638                            ; CALL OCCURS {HalTRNG_InitTRNG }  ; [] |207| 
     639                            .dwpsn  file "../Application/MAC/StartUp/osaltasks.c",line 213,column 3,is_stmt,isa 1
     640 0000005a 4C1C              LDR       V1, $C$CON6           ; [DPU_3_PIPE] |213|  ; [ORIG 16-BIT INS]
     641 0000005c 6820              LDR       A1, [V1, #0]          ; [DPU_3_PIPE] |213|  ; [ORIG 16-BIT INS]
     642 0000005e 6840              LDR       A1, [A1, #4]          ; [DPU_3_PIPE] |213|  ; [ORIG 16-BIT INS]
     643                    $C$DW$59        .dwtag  DW_TAG_TI_branch
     644                            .dwattr $C$DW$59, DW_AT_low_pc(0x00)
     645                            .dwattr $C$DW$59, DW_AT_TI_call
     646                            .dwattr $C$DW$59, DW_AT_TI_indirect
     647                    
     648 00000060 4780              BLX       A1                    ; [DPU_3_PIPE] |213|  ; [ORIG 16-BIT INS]
     649                            ; CALL OCCURS {}                 ; [] |213| 
     650                            .dwpsn  file "../Application/MAC/StartUp/osaltasks.c",line 214,column 3,is_stmt,isa 1
     651 00000062 6820              LDR       A1, [V1, #0]          ; [DPU_3_PIPE] |214|  ; [ORIG 16-BIT INS]
     652 00000064 68C1              LDR       A2, [A1, #12]         ; [DPU_3_PIPE] |214|  ; [ORIG 16-BIT INS]
     653 00000066 A805              ADD       A1, SP, #20           ; [DPU_3_PIPE] |214|  ; [ORIG 16-BIT INS]
     654                    $C$DW$60        .dwtag  DW_TAG_TI_branch
     655                            .dwattr $C$DW$60, DW_AT_low_pc(0x00)
     656                            .dwattr $C$DW$60, DW_AT_TI_call
     657                            .dwattr $C$DW$60, DW_AT_TI_indirect
     658                    
     659 00000068 4788              BLX       A2                    ; [DPU_3_PIPE] |214|  ; [ORIG 16-BIT INS]
     660                            ; CALL OCCURS {}                 ; [] |214| 
TI ARM Assembler PC v16.9.8 Sat Nov 24 22:21:09 2018

Tools Copyright (c) 1996-2017 Texas Instruments Incorporated
C:\Users\Einstein\AppData\Local\Temp\{0ED9912E-F216-4B11-AF33-9BA1337BDC1F} PAGE   13

     661                            .dwpsn  file "../Application/MAC/StartUp/osaltasks.c",line 215,column 3,is_stmt,isa 1
     662 0000006a 6820              LDR       A1, [V1, #0]          ; [DPU_3_PIPE] |215|  ; [ORIG 16-BIT INS]
     663 0000006c 6883              LDR       A4, [A1, #8]          ; [DPU_3_PIPE] |215|  ; [ORIG 16-BIT INS]
     664 0000006e AA05              ADD       A3, SP, #20           ; [DPU_3_PIPE] |215|  ; [ORIG 16-BIT INS]
     665 00000070 2000              MOVS      A1, #0                ; [DPU_3_PIPE] |215|  ; [ORIG 16-BIT INS]
     666 00000072 4601              MOV       A2, A1                ; [DPU_3_PIPE] |215|  ; [ORIG 16-BIT INS]
     667                    $C$DW$61        .dwtag  DW_TAG_TI_branch
     668                            .dwattr $C$DW$61, DW_AT_low_pc(0x00)
     669                            .dwattr $C$DW$61, DW_AT_TI_call
     670                            .dwattr $C$DW$61, DW_AT_TI_indirect
     671                    
     672 00000074 4798              BLX       A4                    ; [DPU_3_PIPE] |215|  ; [ORIG 16-BIT INS]
     673                            ; CALL OCCURS {}                 ; [] |215| 
     674 00000076 4916              LDR       A2, $C$CON7           ; [DPU_3_PIPE] |215|  ; [ORIG 16-BIT INS]
     675 00000078 6008              STR       A1, [A2, #0]          ; [DPU_3_PIPE] |215|  ; [ORIG 16-BIT INS]
     676 0000007a B908              CBNZ      A1, ||$C$L2||         ; []  ; [ORIG 16-BIT INS]
     677                            .dwpsn  file "../Application/MAC/StartUp/osaltasks.c",line 216,column 3,is_stmt,isa 1
     678                            ; BRANCHCC OCCURS {||$C$L2||}    ; [] |216| 
     679                    ;* --------------------------------------------------------------------------*
     680                            .dwpsn  file "../Application/MAC/StartUp/osaltasks.c",line 219,column 5,is_stmt,isa 1
     681                    $C$DW$62        .dwtag  DW_TAG_TI_branch
     682                            .dwattr $C$DW$62, DW_AT_low_pc(0x00)
     683                            .dwattr $C$DW$62, DW_AT_name("ICall_abort")
     684                            .dwattr $C$DW$62, DW_AT_TI_call
     685                    
     686 0000007c FFFEF7FF!         BL        ICall_abort           ; [DPU_3_PIPE] |219|  ; [KEEP 32-BIT INS]
     687                            ; CALL OCCURS {ICall_abort }     ; [] |219| 
     688                    ;* --------------------------------------------------------------------------*
     689 00000080           ||$C$L2||:    
     690                            .dwpsn  file "../Application/MAC/StartUp/osaltasks.c",line 222,column 3,is_stmt,isa 1
     691                    $C$DW$63        .dwtag  DW_TAG_TI_branch
     692                            .dwattr $C$DW$63, DW_AT_low_pc(0x00)
     693                            .dwattr $C$DW$63, DW_AT_name("HalAesInit")
     694                            .dwattr $C$DW$63, DW_AT_TI_call
     695                    
     696 00000080 FFFEF7FF!         BL        HalAesInit            ; [DPU_3_PIPE] |222|  ; [KEEP 32-BIT INS]
     697                            ; CALL OCCURS {HalAesInit }      ; [] |222| 
     698                            .dwpsn  file "../Application/MAC/StartUp/osaltasks.c",line 244,column 3,is_stmt,isa 1
     699 00000084 4813              LDR       A1, $C$CON8           ; [DPU_3_PIPE] |244|  ; [ORIG 16-BIT INS]
     700                    $C$DW$64        .dwtag  DW_TAG_TI_branch
     701                            .dwattr $C$DW$64, DW_AT_low_pc(0x00)
     702                            .dwattr $C$DW$64, DW_AT_name("osal_set_icall_hook")
     703                            .dwattr $C$DW$64, DW_AT_TI_call
     704                    
     705 00000086 FFFEF7FF!         BL        osal_set_icall_hook   ; [DPU_3_PIPE] |244|  ; [KEEP 32-BIT INS]
     706                            ; CALL OCCURS {osal_set_icall_hook }  ; [] |244| 
     707                            .dwpsn  file "../Application/MAC/StartUp/osaltasks.c",line 248,column 3,is_stmt,isa 1
     708                    $C$DW$65        .dwtag  DW_TAG_TI_branch
     709                            .dwattr $C$DW$65, DW_AT_low_pc(0x00)
     710                            .dwattr $C$DW$65, DW_AT_name("MAC_Init")
     711                            .dwattr $C$DW$65, DW_AT_TI_call
     712                    
     713 0000008a FFFEF7FF!         BL        MAC_Init              ; [DPU_3_PIPE] |248|  ; [KEEP 32-BIT INS]
     714                            ; CALL OCCURS {MAC_Init }        ; [] |248| 
     715                            .dwpsn  file "../Application/MAC/StartUp/osaltasks.c",line 260,column 3,is_stmt,isa 1
TI ARM Assembler PC v16.9.8 Sat Nov 24 22:21:09 2018

Tools Copyright (c) 1996-2017 Texas Instruments Incorporated
C:\Users\Einstein\AppData\Local\Temp\{0ED9912E-F216-4B11-AF33-9BA1337BDC1F} PAGE   14

     716                    $C$DW$66        .dwtag  DW_TAG_TI_branch
     717                            .dwattr $C$DW$66, DW_AT_low_pc(0x00)
     718                            .dwattr $C$DW$66, DW_AT_name("MAC_InitCoord")
     719                            .dwattr $C$DW$66, DW_AT_TI_call
     720                    
     721 0000008e FFFEF7FF!         BL        MAC_InitCoord         ; [DPU_3_PIPE] |260|  ; [KEEP 32-BIT INS]
     722                            ; CALL OCCURS {MAC_InitCoord }   ; [] |260| 
     723                            .dwpsn  file "../Application/MAC/StartUp/osaltasks.c",line 267,column 3,is_stmt,isa 1
     724                    $C$DW$67        .dwtag  DW_TAG_TI_branch
     725                            .dwattr $C$DW$67, DW_AT_low_pc(0x00)
     726                            .dwattr $C$DW$67, DW_AT_name("MAC_InitBeaconDevice")
     727                            .dwattr $C$DW$67, DW_AT_TI_call
     728                    
     729 00000092 FFFEF7FF!         BL        MAC_InitBeaconDevice  ; [DPU_3_PIPE] |267|  ; [KEEP 32-BIT INS]
     730                            ; CALL OCCURS {MAC_InitBeaconDevice }  ; [] |267| 
     731                            .dwpsn  file "../Application/MAC/StartUp/osaltasks.c",line 269,column 3,is_stmt,isa 1
     732                    $C$DW$68        .dwtag  DW_TAG_TI_branch
     733                            .dwattr $C$DW$68, DW_AT_low_pc(0x00)
     734                            .dwattr $C$DW$68, DW_AT_name("MAC_InitBeaconCoord")
     735                            .dwattr $C$DW$68, DW_AT_TI_call
     736                    
     737 00000096 FFFEF7FF!         BL        MAC_InitBeaconCoord   ; [DPU_3_PIPE] |269|  ; [KEEP 32-BIT INS]
     738                            ; CALL OCCURS {MAC_InitBeaconCoord }  ; [] |269| 
     739                    ;* --------------------------------------------------------------------------*
     740                            .dwpsn  file "../Application/MAC/StartUp/osaltasks.c",line 274,column 3,is_stmt,isa 1
     741                    $C$DW$69        .dwtag  DW_TAG_TI_branch
     742                            .dwattr $C$DW$69, DW_AT_low_pc(0x00)
     743                            .dwattr $C$DW$69, DW_AT_name("MAC_InitFH")
     744                            .dwattr $C$DW$69, DW_AT_TI_call
     745                    
     746 0000009a FFFEF7FF!         BL        MAC_InitFH            ; [DPU_3_PIPE] |274|  ; [KEEP 32-BIT INS]
     747                            ; CALL OCCURS {MAC_InitFH }      ; [] |274| 
     748                            .dwpsn  file "../Application/MAC/StartUp/osaltasks.c",line 277,column 3,is_stmt,isa 1
     749                    $C$DW$70        .dwtag  DW_TAG_TI_branch
     750                            .dwattr $C$DW$70, DW_AT_low_pc(0x00)
     751                            .dwattr $C$DW$70, DW_AT_name("osal_init_system")
     752                            .dwattr $C$DW$70, DW_AT_TI_call
     753                    
     754 0000009e FFFEF7FF!         BL        osal_init_system      ; [DPU_3_PIPE] |277|  ; [KEEP 32-BIT INS]
     755                            ; CALL OCCURS {osal_init_system }  ; [] |277| 
     756                            .dwpsn  file "../Application/MAC/StartUp/osaltasks.c",line 280,column 3,is_stmt,isa 1
     757                    $C$DW$71        .dwtag  DW_TAG_TI_branch
     758                            .dwattr $C$DW$71, DW_AT_low_pc(0x00)
     759                            .dwattr $C$DW$71, DW_AT_name("macLowLevelBufferInit")
     760                            .dwattr $C$DW$71, DW_AT_TI_call
     761                    
     762 000000a2 FFFEF7FF!         BL        macLowLevelBufferInit ; [DPU_3_PIPE] |280|  ; [KEEP 32-BIT INS]
     763                            ; CALL OCCURS {macLowLevelBufferInit }  ; [] |280| 
     764                            .dwpsn  file "../Application/MAC/StartUp/osaltasks.c",line 283,column 3,is_stmt,isa 1
     765 000000a6 480C              LDR       A1, $C$CON9           ; [DPU_3_PIPE] |283|  ; [ORIG 16-BIT INS]
     766 000000a8 6801              LDR       A2, [A1, #0]          ; [DPU_3_PIPE] |283|  ; [ORIG 16-BIT INS]
     767 000000aa 4630              MOV       A1, V3                ; [DPU_3_PIPE] |283|  ; [ORIG 16-BIT INS]
     768                    $C$DW$72        .dwtag  DW_TAG_TI_branch
     769                            .dwattr $C$DW$72, DW_AT_low_pc(0x00)
     770                            .dwattr $C$DW$72, DW_AT_TI_call
TI ARM Assembler PC v16.9.8 Sat Nov 24 22:21:09 2018

Tools Copyright (c) 1996-2017 Texas Instruments Incorporated
C:\Users\Einstein\AppData\Local\Temp\{0ED9912E-F216-4B11-AF33-9BA1337BDC1F} PAGE   15

     771                            .dwattr $C$DW$72, DW_AT_TI_indirect
     772                    
     773 000000ac 4788              BLX       A2                    ; [DPU_3_PIPE] |283|  ; [ORIG 16-BIT INS]
     774                            ; CALL OCCURS {}                 ; [] |283| 
     775                            .dwpsn  file "../Application/MAC/StartUp/osaltasks.c",line 286,column 3,is_stmt,isa 1
     776                    $C$DW$73        .dwtag  DW_TAG_TI_branch
     777                            .dwattr $C$DW$73, DW_AT_low_pc(0x00)
     778                            .dwattr $C$DW$73, DW_AT_name("macLowLevelInit")
     779                            .dwattr $C$DW$73, DW_AT_TI_call
     780                    
     781 000000ae FFFEF7FF!         BL        macLowLevelInit       ; [DPU_3_PIPE] |286|  ; [KEEP 32-BIT INS]
     782                            ; CALL OCCURS {macLowLevelInit }  ; [] |286| 
     783                            .dwpsn  file "../Application/MAC/StartUp/osaltasks.c",line 288,column 3,is_stmt,isa 1
     784                    $C$DW$74        .dwtag  DW_TAG_TI_branch
     785                            .dwattr $C$DW$74, DW_AT_low_pc(0x00)
     786                            .dwattr $C$DW$74, DW_AT_name("osal_start_system")
     787                            .dwattr $C$DW$74, DW_AT_TI_call
     788                    
     789 000000b2 FFFEF7FF!         BL        osal_start_system     ; [DPU_3_PIPE] |288|  ; [KEEP 32-BIT INS]
     790                            ; CALL OCCURS {osal_start_system }  ; [] |288| 
     791                            .dwpsn  file "../Application/MAC/StartUp/osaltasks.c",line 290,column 3,is_stmt,isa 1
     792 000000b6 2000              MOVS      A1, #0                ; [DPU_3_PIPE] |290|  ; [ORIG 16-BIT INS]
     793 000000b8 B006              ADD       SP, SP, #24           ; [DPU_3_PIPE]  ; [ORIG 16-BIT INS]
     794                            .dwcfi  cfa_offset, 16
     795                    $C$DW$75        .dwtag  DW_TAG_TI_branch
     796                            .dwattr $C$DW$75, DW_AT_low_pc(0x00)
     797                            .dwattr $C$DW$75, DW_AT_TI_return
     798                    
     799 000000ba BD70              POP       {V1, V2, V3, PC}      ; [DPU_3_PIPE]  ; [ORIG 16-BIT INS]
     800                            .dwcfi  cfa_offset, 0
     801                            .dwcfi  restore_reg, 6
     802                            .dwcfi  restore_reg, 5
     803                            .dwcfi  restore_reg, 4
     804                            ; BRANCH OCCURS                  ; [] 
     805                            .dwattr $C$DW$44, DW_AT_TI_end_file("../Application/MAC/StartUp/osaltasks.c")
     806                            .dwattr $C$DW$44, DW_AT_TI_end_line(0x123)
     807                            .dwattr $C$DW$44, DW_AT_TI_end_column(0x01)
     808                            .dwendentry
     809                            .dwendtag $C$DW$44
     810                    
     811 00000000                   .sect   ".text:osalInitTasks"
     812                            .clink
     813                            .thumbfunc osalInitTasks
     814 00000000                   .thumb
     815                            .global osalInitTasks
     816                    
     817                    $C$DW$76        .dwtag  DW_TAG_subprogram
     818                            .dwattr $C$DW$76, DW_AT_name("osalInitTasks")
     819                            .dwattr $C$DW$76, DW_AT_low_pc(osalInitTasks)
     820                            .dwattr $C$DW$76, DW_AT_high_pc(0x00)
     821                            .dwattr $C$DW$76, DW_AT_TI_symbol_name("osalInitTasks")
     822                            .dwattr $C$DW$76, DW_AT_external
     823                            .dwattr $C$DW$76, DW_AT_TI_begin_file("../Application/MAC/StartUp/osaltasks.c")
     824                            .dwattr $C$DW$76, DW_AT_TI_begin_line(0x75)
     825                            .dwattr $C$DW$76, DW_AT_TI_begin_column(0x06)
TI ARM Assembler PC v16.9.8 Sat Nov 24 22:21:09 2018

Tools Copyright (c) 1996-2017 Texas Instruments Incorporated
C:\Users\Einstein\AppData\Local\Temp\{0ED9912E-F216-4B11-AF33-9BA1337BDC1F} PAGE   16

     826                            .dwattr $C$DW$76, DW_AT_decl_file("../Application/MAC/StartUp/osaltasks.c")
     827                            .dwattr $C$DW$76, DW_AT_decl_line(0x75)
     828                            .dwattr $C$DW$76, DW_AT_decl_column(0x06)
     829                            .dwattr $C$DW$76, DW_AT_TI_max_frame_size(0x08)
     830                            .dwpsn  file "../Application/MAC/StartUp/osaltasks.c",line 118,column 1,is_stmt,address osalIn
     831                    
     832                            .dwfde $C$DW$CIE, osalInitTasks
     833                    
     834                    ;*****************************************************************************
     835                    ;* FUNCTION NAME: osalInitTasks                                              *
     836                    ;*                                                                           *
     837                    ;*   Regs Modified     : A1,A2,A3,A4,V1,V9,SP,LR,SR                          *
     838                    ;*   Regs Used         : A1,A2,A3,A4,V1,V9,SP,LR,SR                          *
     839                    ;*   Local Frame Size  : 0 Args + 0 Auto + 8 Save = 8 byte                   *
     840                    ;*****************************************************************************
     841 00000000           osalInitTasks:
     842                    ;* --------------------------------------------------------------------------*
     843                    ;* V1    assigned to $O$K3
     844                    ;* A1    assigned to $O$v1
     845                            .dwcfi  cfa_offset, 0
     846 00000000 B510              PUSH      {V1, LR}              ; [DPU_3_PIPE]  ; [ORIG 16-BIT INS]
     847                            .dwcfi  cfa_offset, 8
     848                            .dwcfi  save_reg_to_mem, 14, -4
     849                            .dwcfi  save_reg_to_mem, 4, -8
     850                            .dwpsn  file "../Application/MAC/StartUp/osaltasks.c",line 121,column 3,is_stmt,isa 1
     851 00000002 2002              MOVS      A1, #2                ; [DPU_3_PIPE] |121|  ; [ORIG 16-BIT INS]
     852                    $C$DW$77        .dwtag  DW_TAG_TI_branch
     853                            .dwattr $C$DW$77, DW_AT_low_pc(0x00)
     854                            .dwattr $C$DW$77, DW_AT_name("osal_mem_alloc")
     855                            .dwattr $C$DW$77, DW_AT_TI_call
     856                    
     857 00000004 FFFEF7FF!         BL        osal_mem_alloc        ; [DPU_3_PIPE] |121|  ; [KEEP 32-BIT INS]
     858                            ; CALL OCCURS {osal_mem_alloc }  ; [] |121| 
     859 00000008 4C06              LDR       V1, $C$CON10          ; [DPU_3_PIPE] |121|  ; [ORIG 16-BIT INS]
     860 0000000a 6020              STR       A1, [V1, #0]          ; [DPU_3_PIPE] |121|  ; [ORIG 16-BIT INS]
     861 0000000c B908              CBNZ      A1, ||$C$L3||         ; []  ; [ORIG 16-BIT INS]
     862                            .dwpsn  file "../Application/MAC/StartUp/osaltasks.c",line 122,column 3,is_stmt,isa 1
     863                            ; BRANCHCC OCCURS {||$C$L3||}    ; [] |122| 
     864                    ;* --------------------------------------------------------------------------*
     865                            .dwpsn  file "../Application/MAC/StartUp/osaltasks.c",line 125,column 5,is_stmt,isa 1
     866                    $C$DW$78        .dwtag  DW_TAG_TI_branch
     867                            .dwattr $C$DW$78, DW_AT_low_pc(0x00)
     868                            .dwattr $C$DW$78, DW_AT_name("ICall_abort")
     869                            .dwattr $C$DW$78, DW_AT_TI_call
     870                    
     871 0000000e FFFEF7FF!         BL        ICall_abort           ; [DPU_3_PIPE] |125|  ; [KEEP 32-BIT INS]
     872                            ; CALL OCCURS {ICall_abort }     ; [] |125| 
     873                    ;* --------------------------------------------------------------------------*
     874 00000012           ||$C$L3||:    
     875                            .dwpsn  file "../Application/MAC/StartUp/osaltasks.c",line 127,column 3,is_stmt,isa 1
     876 00000012 6820              LDR       A1, [V1, #0]          ; [DPU_3_PIPE] |127|  ; [ORIG 16-BIT INS]
     877 00000014 2100              MOVS      A2, #0                ; [DPU_3_PIPE] |127|  ; [ORIG 16-BIT INS]
     878 00000016 2202              MOVS      A3, #2                ; [DPU_3_PIPE] |127|  ; [ORIG 16-BIT INS]
     879                    $C$DW$79        .dwtag  DW_TAG_TI_branch
     880                            .dwattr $C$DW$79, DW_AT_low_pc(0x00)
TI ARM Assembler PC v16.9.8 Sat Nov 24 22:21:09 2018

Tools Copyright (c) 1996-2017 Texas Instruments Incorporated
C:\Users\Einstein\AppData\Local\Temp\{0ED9912E-F216-4B11-AF33-9BA1337BDC1F} PAGE   17

     881                            .dwattr $C$DW$79, DW_AT_name("osal_memset")
     882                            .dwattr $C$DW$79, DW_AT_TI_call
     883                    
     884 00000018 FFFEF7FF!         BL        osal_memset           ; [DPU_3_PIPE] |127|  ; [KEEP 32-BIT INS]
     885                            ; CALL OCCURS {osal_memset }     ; [] |127| 
     886                            .dwpsn  file "../Application/MAC/StartUp/osaltasks.c",line 130,column 3,is_stmt,isa 1
     887 0000001c 2000              MOVS      A1, #0                ; [DPU_3_PIPE] |130|  ; [ORIG 16-BIT INS]
     888                    $C$DW$80        .dwtag  DW_TAG_TI_branch
     889                            .dwattr $C$DW$80, DW_AT_low_pc(0x00)
     890                            .dwattr $C$DW$80, DW_AT_name("macStackTaskInit")
     891                            .dwattr $C$DW$80, DW_AT_TI_call
     892                    
     893 0000001e FFFEF7FF!         BL        macStackTaskInit      ; [DPU_3_PIPE] |130|  ; [KEEP 32-BIT INS]
     894                            ; CALL OCCURS {macStackTaskInit }  ; [] |130| 
     895                    $C$DW$81        .dwtag  DW_TAG_TI_branch
     896                            .dwattr $C$DW$81, DW_AT_low_pc(0x00)
     897                            .dwattr $C$DW$81, DW_AT_TI_return
     898                    
     899 00000022 BD10              POP       {V1, PC}              ; [DPU_3_PIPE]  ; [ORIG 16-BIT INS]
     900                            .dwcfi  cfa_offset, 0
     901                            .dwcfi  restore_reg, 4
     902                            ; BRANCH OCCURS                  ; [] 
     903                            .dwattr $C$DW$76, DW_AT_TI_end_file("../Application/MAC/StartUp/osaltasks.c")
     904                            .dwattr $C$DW$76, DW_AT_TI_end_line(0x83)
     905                            .dwattr $C$DW$76, DW_AT_TI_end_column(0x01)
     906                            .dwendentry
     907                            .dwendtag $C$DW$76
     908                    
     909                    ;******************************************************************************
     910                    ;* CONSTANT TABLE                                                             *
     911                    ;******************************************************************************
     912 00000018                   .sect   ".text:ICall_abort"
     913                            .align  4
     914 00000018 00000000! ||$C$CON1||:    .bits   ICall_dispatcher,32
     915                    ;******************************************************************************
     916                    ;* CONSTANT TABLE                                                             *
     917                    ;******************************************************************************
     918 000000bc                   .sect   ".text:stack_main"
     919                            .align  4
     920 000000bc 00000000! ||$C$CON2||:    .bits   ICall_dispatcher,32
     921                            .align  4
     922 000000c0 00000000! ||$C$CON3||:    .bits   osal_entity,32
     923                            .align  4
     924 000000c4 00000000! ||$C$CON4||:    .bits   osal_semaphore,32
     925                            .align  4
     926 000000c8 00000000! ||$C$CON5||:    .bits   ICall_enterCriticalSection,32
     927                            .align  4
     928 000000cc 00000000! ||$C$CON6||:    .bits   macCryptoDrvTblPtr,32
     929                            .align  4
     930 000000d0 00000000! ||$C$CON7||:    .bits   Crypto_handle,32
     931                            .align  4
     932 000000d4 00000000! ||$C$CON8||:    .bits   icall_slimMsgParser,32
     933                            .align  4
     934 000000d8 00000000! ||$C$CON9||:    .bits   ICall_leaveCriticalSection,32
     935                    ;******************************************************************************
TI ARM Assembler PC v16.9.8 Sat Nov 24 22:21:09 2018

Tools Copyright (c) 1996-2017 Texas Instruments Incorporated
C:\Users\Einstein\AppData\Local\Temp\{0ED9912E-F216-4B11-AF33-9BA1337BDC1F} PAGE   18

     936                    ;* CONSTANT TABLE                                                             *
     937                    ;******************************************************************************
     938 00000024                   .sect   ".text:osalInitTasks"
     939                            .align  4
     940 00000024 00000000! ||$C$CON10||:   .bits   macTasksEvents,32
     941                    ;*****************************************************************************
     942                    ;* UNDEFINED EXTERNAL REFERENCES                                             *
     943                    ;*****************************************************************************
     944                            .global osal_mem_alloc
     945                            .global osal_init_system
     946                            .global osal_start_system
     947                            .global osal_memset
     948                            .global osal_set_icall_hook
     949                            .global macSetUserConfig
     950                            .global MAC_Init
     951                            .global MAC_InitCoord
     952                            .global MAC_InitBeaconCoord
     953                            .global MAC_InitBeaconDevice
     954                            .global MAC_InitFH
     955                            .global macStackTaskInit
     956                            .global macStackEventLoop
     957                            .global macLowLevelInit
     958                            .global macLowLevelBufferInit
     959                            .global HalTRNG_InitTRNG
     960                            .global HalAesInit
     961                            .global icall_slimMsgParser
     962                            .global ICall_dispatcher
     963                            .global ICall_enterCriticalSection
     964                            .global ICall_leaveCriticalSection
     965                            .global osal_semaphore
     966                            .global osal_entity
     967                            .global macCryptoDrvTblPtr
     968                            .global Crypto_handle
     969                    
     970                    ;******************************************************************************
     971                    ;* BUILD ATTRIBUTES                                                           *
     972                    ;******************************************************************************
     973                            .battr "aeabi", Tag_File, 1, Tag_ABI_PCS_wchar_t(2)
     974                            .battr "aeabi", Tag_File, 1, Tag_ABI_FP_rounding(0)
     975                            .battr "aeabi", Tag_File, 1, Tag_ABI_FP_denormal(0)
     976                            .battr "aeabi", Tag_File, 1, Tag_ABI_FP_exceptions(0)
     977                            .battr "aeabi", Tag_File, 1, Tag_ABI_FP_number_model(1)
     978                            .battr "aeabi", Tag_File, 1, Tag_ABI_enum_size(1)
     979                            .battr "aeabi", Tag_File, 1, Tag_ABI_optimization_goals(0)
     980                            .battr "aeabi", Tag_File, 1, Tag_ABI_FP_optimization_goals(0)
     981                            .battr "TI", Tag_File, 1, Tag_Bitfield_layout(0)
     982                            .battr "aeabi", Tag_File, 1, Tag_ABI_VFP_args(3)
     983                            .battr "TI", Tag_File, 1, Tag_FP_interface(1)
     984                    
     985                    ;******************************************************************************
     986                    ;* TYPE INFORMATION                                                           *
     987                    ;******************************************************************************
     988                    
     989                    $C$DW$T$100     .dwtag  DW_TAG_enumeration_type
     990                            .dwattr $C$DW$T$100, DW_AT_byte_size(0x01)
TI ARM Assembler PC v16.9.8 Sat Nov 24 22:21:09 2018

Tools Copyright (c) 1996-2017 Texas Instruments Incorporated
C:\Users\Einstein\AppData\Local\Temp\{0ED9912E-F216-4B11-AF33-9BA1337BDC1F} PAGE   19

     991                    $C$DW$82        .dwtag  DW_TAG_enumerator
     992                            .dwattr $C$DW$82, DW_AT_name("ApiMac_addrType_none")
     993                            .dwattr $C$DW$82, DW_AT_const_value(0x00)
     994                            .dwattr $C$DW$82, DW_AT_decl_file("C:\Users\Einstein\MyWorkspaceCC1350\collector_cc1350lp\Appl
     995                            .dwattr $C$DW$82, DW_AT_decl_line(0x1a9)
     996                            .dwattr $C$DW$82, DW_AT_decl_column(0x05)
     997                    
     998                    $C$DW$83        .dwtag  DW_TAG_enumerator
     999                            .dwattr $C$DW$83, DW_AT_name("ApiMac_addrType_short")
    1000                            .dwattr $C$DW$83, DW_AT_const_value(0x02)
    1001                            .dwattr $C$DW$83, DW_AT_decl_file("C:\Users\Einstein\MyWorkspaceCC1350\collector_cc1350lp\Appl
    1002                            .dwattr $C$DW$83, DW_AT_decl_line(0x1ab)
    1003                            .dwattr $C$DW$83, DW_AT_decl_column(0x05)
    1004                    
    1005                    $C$DW$84        .dwtag  DW_TAG_enumerator
    1006                            .dwattr $C$DW$84, DW_AT_name("ApiMac_addrType_extended")
    1007                            .dwattr $C$DW$84, DW_AT_const_value(0x03)
    1008                            .dwattr $C$DW$84, DW_AT_decl_file("C:\Users\Einstein\MyWorkspaceCC1350\collector_cc1350lp\Appl
    1009                            .dwattr $C$DW$84, DW_AT_decl_line(0x1ad)
    1010                            .dwattr $C$DW$84, DW_AT_decl_column(0x05)
    1011                    
    1012                            .dwattr $C$DW$T$100, DW_AT_decl_file("C:\Users\Einstein\MyWorkspaceCC1350\collector_cc1350lp\A
    1013                            .dwattr $C$DW$T$100, DW_AT_decl_line(0x1a7)
    1014                            .dwattr $C$DW$T$100, DW_AT_decl_column(0x01)
    1015                            .dwendtag $C$DW$T$100
    1016                    
    1017                    $C$DW$T$101     .dwtag  DW_TAG_typedef
    1018                            .dwattr $C$DW$T$101, DW_AT_name("ApiMac_addrType_t")
    1019                            .dwattr $C$DW$T$101, DW_AT_type(*$C$DW$T$100)
    1020                            .dwattr $C$DW$T$101, DW_AT_language(DW_LANG_C)
    1021                            .dwattr $C$DW$T$101, DW_AT_decl_file("C:\Users\Einstein\MyWorkspaceCC1350\collector_cc1350lp\A
    1022                            .dwattr $C$DW$T$101, DW_AT_decl_line(0x1ae)
    1023                            .dwattr $C$DW$T$101, DW_AT_decl_column(0x03)
    1024                    
    1025                    
    1026                    $C$DW$T$104     .dwtag  DW_TAG_enumeration_type
    1027                            .dwattr $C$DW$T$104, DW_AT_byte_size(0x01)
    1028                    $C$DW$85        .dwtag  DW_TAG_enumerator
    1029                            .dwattr $C$DW$85, DW_AT_name("ApiMac_beaconType_normal")
    1030                            .dwattr $C$DW$85, DW_AT_const_value(0x00)
    1031                            .dwattr $C$DW$85, DW_AT_decl_file("C:\Users\Einstein\MyWorkspaceCC1350\collector_cc1350lp\Appl
    1032                            .dwattr $C$DW$85, DW_AT_decl_line(0x1b4)
    1033                            .dwattr $C$DW$85, DW_AT_decl_column(0x05)
    1034                    
    1035                    $C$DW$86        .dwtag  DW_TAG_enumerator
    1036                            .dwattr $C$DW$86, DW_AT_name("ApiMac_beaconType_enhanced")
    1037                            .dwattr $C$DW$86, DW_AT_const_value(0x01)
    1038                            .dwattr $C$DW$86, DW_AT_decl_file("C:\Users\Einstein\MyWorkspaceCC1350\collector_cc1350lp\Appl
    1039                            .dwattr $C$DW$86, DW_AT_decl_line(0x1b6)
    1040                            .dwattr $C$DW$86, DW_AT_decl_column(0x05)
    1041                    
    1042                            .dwattr $C$DW$T$104, DW_AT_decl_file("C:\Users\Einstein\MyWorkspaceCC1350\collector_cc1350lp\A
    1043                            .dwattr $C$DW$T$104, DW_AT_decl_line(0x1b2)
    1044                            .dwattr $C$DW$T$104, DW_AT_decl_column(0x01)
    1045                            .dwendtag $C$DW$T$104
TI ARM Assembler PC v16.9.8 Sat Nov 24 22:21:09 2018

Tools Copyright (c) 1996-2017 Texas Instruments Incorporated
C:\Users\Einstein\AppData\Local\Temp\{0ED9912E-F216-4B11-AF33-9BA1337BDC1F} PAGE   20

    1046                    
    1047                    $C$DW$T$105     .dwtag  DW_TAG_typedef
    1048                            .dwattr $C$DW$T$105, DW_AT_name("ApiMac_beaconType_t")
    1049                            .dwattr $C$DW$T$105, DW_AT_type(*$C$DW$T$104)
    1050                            .dwattr $C$DW$T$105, DW_AT_language(DW_LANG_C)
    1051                            .dwattr $C$DW$T$105, DW_AT_decl_file("C:\Users\Einstein\MyWorkspaceCC1350\collector_cc1350lp\A
    1052                            .dwattr $C$DW$T$105, DW_AT_decl_line(0x1b7)
    1053                            .dwattr $C$DW$T$105, DW_AT_decl_column(0x03)
    1054                    
    1055                    
    1056                    $C$DW$T$292     .dwtag  DW_TAG_enumeration_type
    1057                            .dwattr $C$DW$T$292, DW_AT_byte_size(0x01)
    1058                    $C$DW$87        .dwtag  DW_TAG_enumerator
    1059                            .dwattr $C$DW$87, DW_AT_name("RF_PriorityHighest")
    1060                            .dwattr $C$DW$87, DW_AT_const_value(0x02)
    1061                            .dwattr $C$DW$87, DW_AT_decl_file("C:/ti/simplelink_cc13x0_sdk_2_30_00_20/source/ti/drivers/rf
    1062                            .dwattr $C$DW$87, DW_AT_decl_line(0x432)
    1063                            .dwattr $C$DW$87, DW_AT_decl_column(0x05)
    1064                    
    1065                    $C$DW$88        .dwtag  DW_TAG_enumerator
    1066                            .dwattr $C$DW$88, DW_AT_name("RF_PriorityHigh")
    1067                            .dwattr $C$DW$88, DW_AT_const_value(0x01)
    1068                            .dwattr $C$DW$88, DW_AT_decl_file("C:/ti/simplelink_cc13x0_sdk_2_30_00_20/source/ti/drivers/rf
    1069                            .dwattr $C$DW$88, DW_AT_decl_line(0x433)
    1070                            .dwattr $C$DW$88, DW_AT_decl_column(0x05)
    1071                    
    1072                    $C$DW$89        .dwtag  DW_TAG_enumerator
    1073                            .dwattr $C$DW$89, DW_AT_name("RF_PriorityNormal")
    1074                            .dwattr $C$DW$89, DW_AT_const_value(0x00)
    1075                            .dwattr $C$DW$89, DW_AT_decl_file("C:/ti/simplelink_cc13x0_sdk_2_30_00_20/source/ti/drivers/rf
    1076                            .dwattr $C$DW$89, DW_AT_decl_line(0x434)
    1077                            .dwattr $C$DW$89, DW_AT_decl_column(0x05)
    1078                    
    1079                            .dwattr $C$DW$T$292, DW_AT_decl_file("C:/ti/simplelink_cc13x0_sdk_2_30_00_20/source/ti/drivers
    1080                            .dwattr $C$DW$T$292, DW_AT_decl_line(0x431)
    1081                            .dwattr $C$DW$T$292, DW_AT_decl_column(0x0e)
    1082                            .dwendtag $C$DW$T$292
    1083                    
    1084                    $C$DW$T$293     .dwtag  DW_TAG_typedef
    1085                            .dwattr $C$DW$T$293, DW_AT_name("RF_Priority")
    1086                            .dwattr $C$DW$T$293, DW_AT_type(*$C$DW$T$292)
    1087                            .dwattr $C$DW$T$293, DW_AT_language(DW_LANG_C)
    1088                            .dwattr $C$DW$T$293, DW_AT_decl_file("C:/ti/simplelink_cc13x0_sdk_2_30_00_20/source/ti/drivers
    1089                            .dwattr $C$DW$T$293, DW_AT_decl_line(0x435)
    1090                            .dwattr $C$DW$T$293, DW_AT_decl_column(0x03)
    1091                    
    1092                    
    1093                    $C$DW$T$302     .dwtag  DW_TAG_enumeration_type
    1094                            .dwattr $C$DW$T$302, DW_AT_byte_size(0x01)
    1095                    $C$DW$90        .dwtag  DW_TAG_enumerator
    1096                            .dwattr $C$DW$90, DW_AT_name("RF_ClientEventPowerUpFinished")
    1097                            .dwattr $C$DW$90, DW_AT_const_value(0x01)
    1098                            .dwattr $C$DW$90, DW_AT_decl_file("C:/ti/simplelink_cc13x0_sdk_2_30_00_20/source/ti/drivers/rf
    1099                            .dwattr $C$DW$90, DW_AT_decl_line(0x487)
    1100                            .dwattr $C$DW$90, DW_AT_decl_column(0x05)
TI ARM Assembler PC v16.9.8 Sat Nov 24 22:21:09 2018

Tools Copyright (c) 1996-2017 Texas Instruments Incorporated
C:\Users\Einstein\AppData\Local\Temp\{0ED9912E-F216-4B11-AF33-9BA1337BDC1F} PAGE   21

    1101                    
    1102                    $C$DW$91        .dwtag  DW_TAG_enumerator
    1103                            .dwattr $C$DW$91, DW_AT_name("RF_ClientEventRadioFree")
    1104                            .dwattr $C$DW$91, DW_AT_const_value(0x02)
    1105                            .dwattr $C$DW$91, DW_AT_decl_file("C:/ti/simplelink_cc13x0_sdk_2_30_00_20/source/ti/drivers/rf
    1106                            .dwattr $C$DW$91, DW_AT_decl_line(0x488)
    1107                            .dwattr $C$DW$91, DW_AT_decl_column(0x05)
    1108                    
    1109                    $C$DW$92        .dwtag  DW_TAG_enumerator
    1110                            .dwattr $C$DW$92, DW_AT_name("RF_ClientEventSwitchClientEntered")
    1111                            .dwattr $C$DW$92, DW_AT_const_value(0x04)
    1112                            .dwattr $C$DW$92, DW_AT_decl_file("C:/ti/simplelink_cc13x0_sdk_2_30_00_20/source/ti/drivers/rf
    1113                            .dwattr $C$DW$92, DW_AT_decl_line(0x48c)
    1114                            .dwattr $C$DW$92, DW_AT_decl_column(0x05)
    1115                    
    1116                            .dwattr $C$DW$T$302, DW_AT_decl_file("C:/ti/simplelink_cc13x0_sdk_2_30_00_20/source/ti/drivers
    1117                            .dwattr $C$DW$T$302, DW_AT_decl_line(0x486)
    1118                            .dwattr $C$DW$T$302, DW_AT_decl_column(0x0e)
    1119                            .dwendtag $C$DW$T$302
    1120                    
    1121                    $C$DW$T$303     .dwtag  DW_TAG_typedef
    1122                            .dwattr $C$DW$T$303, DW_AT_name("RF_ClientEvent")
    1123                            .dwattr $C$DW$T$303, DW_AT_type(*$C$DW$T$302)
    1124                            .dwattr $C$DW$T$303, DW_AT_language(DW_LANG_C)
    1125                            .dwattr $C$DW$T$303, DW_AT_decl_file("C:/ti/simplelink_cc13x0_sdk_2_30_00_20/source/ti/drivers
    1126                            .dwattr $C$DW$T$303, DW_AT_decl_line(0x48d)
    1127                            .dwattr $C$DW$T$303, DW_AT_decl_column(0x03)
    1128                    
    1129                    
    1130                    $C$DW$T$308     .dwtag  DW_TAG_enumeration_type
    1131                            .dwattr $C$DW$T$308, DW_AT_byte_size(0x01)
    1132                    $C$DW$93        .dwtag  DW_TAG_enumerator
    1133                            .dwattr $C$DW$93, DW_AT_name("RF_GlobalEventRadioSetup")
    1134                            .dwattr $C$DW$93, DW_AT_const_value(0x01)
    1135                            .dwattr $C$DW$93, DW_AT_decl_file("C:/ti/simplelink_cc13x0_sdk_2_30_00_20/source/ti/drivers/rf
    1136                            .dwattr $C$DW$93, DW_AT_decl_line(0x4b5)
    1137                            .dwattr $C$DW$93, DW_AT_decl_column(0x05)
    1138                    
    1139                    $C$DW$94        .dwtag  DW_TAG_enumerator
    1140                            .dwattr $C$DW$94, DW_AT_name("RF_GlobalEventRadioPowerDown")
    1141                            .dwattr $C$DW$94, DW_AT_const_value(0x02)
    1142                            .dwattr $C$DW$94, DW_AT_decl_file("C:/ti/simplelink_cc13x0_sdk_2_30_00_20/source/ti/drivers/rf
    1143                            .dwattr $C$DW$94, DW_AT_decl_line(0x4b9)
    1144                            .dwattr $C$DW$94, DW_AT_decl_column(0x05)
    1145                    
    1146                            .dwattr $C$DW$T$308, DW_AT_decl_file("C:/ti/simplelink_cc13x0_sdk_2_30_00_20/source/ti/drivers
    1147                            .dwattr $C$DW$T$308, DW_AT_decl_line(0x4b4)
    1148                            .dwattr $C$DW$T$308, DW_AT_decl_column(0x0e)
    1149                            .dwendtag $C$DW$T$308
    1150                    
    1151                    $C$DW$T$309     .dwtag  DW_TAG_typedef
    1152                            .dwattr $C$DW$T$309, DW_AT_name("RF_GlobalEvent")
    1153                            .dwattr $C$DW$T$309, DW_AT_type(*$C$DW$T$308)
    1154                            .dwattr $C$DW$T$309, DW_AT_language(DW_LANG_C)
    1155                            .dwattr $C$DW$T$309, DW_AT_decl_file("C:/ti/simplelink_cc13x0_sdk_2_30_00_20/source/ti/drivers
TI ARM Assembler PC v16.9.8 Sat Nov 24 22:21:09 2018

Tools Copyright (c) 1996-2017 Texas Instruments Incorporated
C:\Users\Einstein\AppData\Local\Temp\{0ED9912E-F216-4B11-AF33-9BA1337BDC1F} PAGE   22

    1156                            .dwattr $C$DW$T$309, DW_AT_decl_line(0x4bc)
    1157                            .dwattr $C$DW$T$309, DW_AT_decl_column(0x03)
    1158                    
    1159                    
    1160                    $C$DW$T$321     .dwtag  DW_TAG_enumeration_type
    1161                            .dwattr $C$DW$T$321, DW_AT_byte_size(0x01)
    1162                    $C$DW$95        .dwtag  DW_TAG_enumerator
    1163                            .dwattr $C$DW$95, DW_AT_name("RF_RatCaptureSourceRtcUpdate")
    1164                            .dwattr $C$DW$95, DW_AT_const_value(0x14)
    1165                            .dwattr $C$DW$95, DW_AT_decl_file("C:/ti/simplelink_cc13x0_sdk_2_30_00_20/source/ti/drivers/rf
    1166                            .dwattr $C$DW$95, DW_AT_decl_line(0x61b)
    1167                            .dwattr $C$DW$95, DW_AT_decl_column(0x07)
    1168                    
    1169                    $C$DW$96        .dwtag  DW_TAG_enumerator
    1170                            .dwattr $C$DW$96, DW_AT_name("RF_RatCaptureSourceEventGeneric")
    1171                            .dwattr $C$DW$96, DW_AT_const_value(0x15)
    1172                            .dwattr $C$DW$96, DW_AT_decl_file("C:/ti/simplelink_cc13x0_sdk_2_30_00_20/source/ti/drivers/rf
    1173                            .dwattr $C$DW$96, DW_AT_decl_line(0x61c)
    1174                            .dwattr $C$DW$96, DW_AT_decl_column(0x07)
    1175                    
    1176                    $C$DW$97        .dwtag  DW_TAG_enumerator
    1177                            .dwattr $C$DW$97, DW_AT_name("RF_RatCaptureSourceRfcGpi0")
    1178                            .dwattr $C$DW$97, DW_AT_const_value(0x16)
    1179                            .dwattr $C$DW$97, DW_AT_decl_file("C:/ti/simplelink_cc13x0_sdk_2_30_00_20/source/ti/drivers/rf
    1180                            .dwattr $C$DW$97, DW_AT_decl_line(0x61d)
    1181                            .dwattr $C$DW$97, DW_AT_decl_column(0x07)
    1182                    
    1183                    $C$DW$98        .dwtag  DW_TAG_enumerator
    1184                            .dwattr $C$DW$98, DW_AT_name("RF_RatCaptureSourceRfcGpi1")
    1185                            .dwattr $C$DW$98, DW_AT_const_value(0x17)
    1186                            .dwattr $C$DW$98, DW_AT_decl_file("C:/ti/simplelink_cc13x0_sdk_2_30_00_20/source/ti/drivers/rf
    1187                            .dwattr $C$DW$98, DW_AT_decl_line(0x620)
    1188                            .dwattr $C$DW$98, DW_AT_decl_column(0x07)
    1189                    
    1190                            .dwattr $C$DW$T$321, DW_AT_decl_file("C:/ti/simplelink_cc13x0_sdk_2_30_00_20/source/ti/drivers
    1191                            .dwattr $C$DW$T$321, DW_AT_decl_line(0x61a)
    1192                            .dwattr $C$DW$T$321, DW_AT_decl_column(0x0e)
    1193                            .dwendtag $C$DW$T$321
    1194                    
    1195                    $C$DW$T$322     .dwtag  DW_TAG_typedef
    1196                            .dwattr $C$DW$T$322, DW_AT_name("RF_RatCaptureSource")
    1197                            .dwattr $C$DW$T$322, DW_AT_type(*$C$DW$T$321)
    1198                            .dwattr $C$DW$T$322, DW_AT_language(DW_LANG_C)
    1199                            .dwattr $C$DW$T$322, DW_AT_decl_file("C:/ti/simplelink_cc13x0_sdk_2_30_00_20/source/ti/drivers
    1200                            .dwattr $C$DW$T$322, DW_AT_decl_line(0x623)
    1201                            .dwattr $C$DW$T$322, DW_AT_decl_column(0x03)
    1202                    
    1203                    
    1204                    $C$DW$T$323     .dwtag  DW_TAG_enumeration_type
    1205                            .dwattr $C$DW$T$323, DW_AT_byte_size(0x01)
    1206                    $C$DW$99        .dwtag  DW_TAG_enumerator
    1207                            .dwattr $C$DW$99, DW_AT_name("RF_RatCaptureModeRising")
    1208                            .dwattr $C$DW$99, DW_AT_const_value(0x00)
    1209                            .dwattr $C$DW$99, DW_AT_decl_file("C:/ti/simplelink_cc13x0_sdk_2_30_00_20/source/ti/drivers/rf
    1210                            .dwattr $C$DW$99, DW_AT_decl_line(0x62b)
TI ARM Assembler PC v16.9.8 Sat Nov 24 22:21:09 2018

Tools Copyright (c) 1996-2017 Texas Instruments Incorporated
C:\Users\Einstein\AppData\Local\Temp\{0ED9912E-F216-4B11-AF33-9BA1337BDC1F} PAGE   23

    1211                            .dwattr $C$DW$99, DW_AT_decl_column(0x05)
    1212                    
    1213                    $C$DW$100       .dwtag  DW_TAG_enumerator
    1214                            .dwattr $C$DW$100, DW_AT_name("RF_RatCaptureModeFalling")
    1215                            .dwattr $C$DW$100, DW_AT_const_value(0x01)
    1216                            .dwattr $C$DW$100, DW_AT_decl_file("C:/ti/simplelink_cc13x0_sdk_2_30_00_20/source/ti/drivers/r
    1217                            .dwattr $C$DW$100, DW_AT_decl_line(0x62c)
    1218                            .dwattr $C$DW$100, DW_AT_decl_column(0x05)
    1219                    
    1220                    $C$DW$101       .dwtag  DW_TAG_enumerator
    1221                            .dwattr $C$DW$101, DW_AT_name("RF_RatCaptureModeBoth")
    1222                            .dwattr $C$DW$101, DW_AT_const_value(0x02)
    1223                            .dwattr $C$DW$101, DW_AT_decl_file("C:/ti/simplelink_cc13x0_sdk_2_30_00_20/source/ti/drivers/r
    1224                            .dwattr $C$DW$101, DW_AT_decl_line(0x62d)
    1225                            .dwattr $C$DW$101, DW_AT_decl_column(0x05)
    1226                    
    1227                            .dwattr $C$DW$T$323, DW_AT_decl_file("C:/ti/simplelink_cc13x0_sdk_2_30_00_20/source/ti/drivers
    1228                            .dwattr $C$DW$T$323, DW_AT_decl_line(0x62a)
    1229                            .dwattr $C$DW$T$323, DW_AT_decl_column(0x0e)
    1230                            .dwendtag $C$DW$T$323
    1231                    
    1232                    $C$DW$T$324     .dwtag  DW_TAG_typedef
    1233                            .dwattr $C$DW$T$324, DW_AT_name("RF_RatCaptureMode")
    1234                            .dwattr $C$DW$T$324, DW_AT_type(*$C$DW$T$323)
    1235                            .dwattr $C$DW$T$324, DW_AT_language(DW_LANG_C)
    1236                            .dwattr $C$DW$T$324, DW_AT_decl_file("C:/ti/simplelink_cc13x0_sdk_2_30_00_20/source/ti/drivers
    1237                            .dwattr $C$DW$T$324, DW_AT_decl_line(0x62f)
    1238                            .dwattr $C$DW$T$324, DW_AT_decl_column(0x03)
    1239                    
    1240                    
    1241                    $C$DW$T$325     .dwtag  DW_TAG_enumeration_type
    1242                            .dwattr $C$DW$T$325, DW_AT_byte_size(0x01)
    1243                    $C$DW$102       .dwtag  DW_TAG_enumerator
    1244                            .dwattr $C$DW$102, DW_AT_name("RF_RatCaptureSingle")
    1245                            .dwattr $C$DW$102, DW_AT_const_value(0x00)
    1246                            .dwattr $C$DW$102, DW_AT_decl_file("C:/ti/simplelink_cc13x0_sdk_2_30_00_20/source/ti/drivers/r
    1247                            .dwattr $C$DW$102, DW_AT_decl_line(0x638)
    1248                            .dwattr $C$DW$102, DW_AT_decl_column(0x05)
    1249                    
    1250                    $C$DW$103       .dwtag  DW_TAG_enumerator
    1251                            .dwattr $C$DW$103, DW_AT_name("RF_RatCaptureRepeat")
    1252                            .dwattr $C$DW$103, DW_AT_const_value(0x01)
    1253                            .dwattr $C$DW$103, DW_AT_decl_file("C:/ti/simplelink_cc13x0_sdk_2_30_00_20/source/ti/drivers/r
    1254                            .dwattr $C$DW$103, DW_AT_decl_line(0x639)
    1255                            .dwattr $C$DW$103, DW_AT_decl_column(0x05)
    1256                    
    1257                            .dwattr $C$DW$T$325, DW_AT_decl_file("C:/ti/simplelink_cc13x0_sdk_2_30_00_20/source/ti/drivers
    1258                            .dwattr $C$DW$T$325, DW_AT_decl_line(0x637)
    1259                            .dwattr $C$DW$T$325, DW_AT_decl_column(0x0e)
    1260                            .dwendtag $C$DW$T$325
    1261                    
    1262                    $C$DW$T$326     .dwtag  DW_TAG_typedef
    1263                            .dwattr $C$DW$T$326, DW_AT_name("RF_RatCaptureRepetition")
    1264                            .dwattr $C$DW$T$326, DW_AT_type(*$C$DW$T$325)
    1265                            .dwattr $C$DW$T$326, DW_AT_language(DW_LANG_C)
TI ARM Assembler PC v16.9.8 Sat Nov 24 22:21:09 2018

Tools Copyright (c) 1996-2017 Texas Instruments Incorporated
C:\Users\Einstein\AppData\Local\Temp\{0ED9912E-F216-4B11-AF33-9BA1337BDC1F} PAGE   24

    1266                            .dwattr $C$DW$T$326, DW_AT_decl_file("C:/ti/simplelink_cc13x0_sdk_2_30_00_20/source/ti/drivers
    1267                            .dwattr $C$DW$T$326, DW_AT_decl_line(0x63a)
    1268                            .dwattr $C$DW$T$326, DW_AT_decl_column(0x03)
    1269                    
    1270                    
    1271                    $C$DW$T$329     .dwtag  DW_TAG_enumeration_type
    1272                            .dwattr $C$DW$T$329, DW_AT_byte_size(0x01)
    1273                    $C$DW$104       .dwtag  DW_TAG_enumerator
    1274                            .dwattr $C$DW$104, DW_AT_name("RF_RatOutputModePulse")
    1275                            .dwattr $C$DW$104, DW_AT_const_value(0x00)
    1276                            .dwattr $C$DW$104, DW_AT_decl_file("C:/ti/simplelink_cc13x0_sdk_2_30_00_20/source/ti/drivers/r
    1277                            .dwattr $C$DW$104, DW_AT_decl_line(0x64b)
    1278                            .dwattr $C$DW$104, DW_AT_decl_column(0x05)
    1279                    
    1280                    $C$DW$105       .dwtag  DW_TAG_enumerator
    1281                            .dwattr $C$DW$105, DW_AT_name("RF_RatOutputModeSet")
    1282                            .dwattr $C$DW$105, DW_AT_const_value(0x01)
    1283                            .dwattr $C$DW$105, DW_AT_decl_file("C:/ti/simplelink_cc13x0_sdk_2_30_00_20/source/ti/drivers/r
    1284                            .dwattr $C$DW$105, DW_AT_decl_line(0x64c)
    1285                            .dwattr $C$DW$105, DW_AT_decl_column(0x05)
    1286                    
    1287                    $C$DW$106       .dwtag  DW_TAG_enumerator
    1288                            .dwattr $C$DW$106, DW_AT_name("RF_RatOutputModeClear")
    1289                            .dwattr $C$DW$106, DW_AT_const_value(0x02)
    1290                            .dwattr $C$DW$106, DW_AT_decl_file("C:/ti/simplelink_cc13x0_sdk_2_30_00_20/source/ti/drivers/r
    1291                            .dwattr $C$DW$106, DW_AT_decl_line(0x64d)
    1292                            .dwattr $C$DW$106, DW_AT_decl_column(0x05)
    1293                    
    1294                    $C$DW$107       .dwtag  DW_TAG_enumerator
    1295                            .dwattr $C$DW$107, DW_AT_name("RF_RatOutputModeToggle")
    1296                            .dwattr $C$DW$107, DW_AT_const_value(0x03)
    1297                            .dwattr $C$DW$107, DW_AT_decl_file("C:/ti/simplelink_cc13x0_sdk_2_30_00_20/source/ti/drivers/r
    1298                            .dwattr $C$DW$107, DW_AT_decl_line(0x64e)
    1299                            .dwattr $C$DW$107, DW_AT_decl_column(0x05)
    1300                    
    1301                    $C$DW$108       .dwtag  DW_TAG_enumerator
    1302                            .dwattr $C$DW$108, DW_AT_name("RF_RatOutputModeAlwaysZero")
    1303                            .dwattr $C$DW$108, DW_AT_const_value(0x04)
    1304                            .dwattr $C$DW$108, DW_AT_decl_file("C:/ti/simplelink_cc13x0_sdk_2_30_00_20/source/ti/drivers/r
    1305                            .dwattr $C$DW$108, DW_AT_decl_line(0x64f)
    1306                            .dwattr $C$DW$108, DW_AT_decl_column(0x05)
    1307                    
    1308                    $C$DW$109       .dwtag  DW_TAG_enumerator
    1309                            .dwattr $C$DW$109, DW_AT_name("RF_RatOutputModeAlwaysOne")
    1310                            .dwattr $C$DW$109, DW_AT_const_value(0x05)
    1311                            .dwattr $C$DW$109, DW_AT_decl_file("C:/ti/simplelink_cc13x0_sdk_2_30_00_20/source/ti/drivers/r
    1312                            .dwattr $C$DW$109, DW_AT_decl_line(0x650)
    1313                            .dwattr $C$DW$109, DW_AT_decl_column(0x05)
    1314                    
    1315                            .dwattr $C$DW$T$329, DW_AT_decl_file("C:/ti/simplelink_cc13x0_sdk_2_30_00_20/source/ti/drivers
    1316                            .dwattr $C$DW$T$329, DW_AT_decl_line(0x64a)
    1317                            .dwattr $C$DW$T$329, DW_AT_decl_column(0x0e)
    1318                            .dwendtag $C$DW$T$329
    1319                    
    1320                    $C$DW$T$330     .dwtag  DW_TAG_typedef
TI ARM Assembler PC v16.9.8 Sat Nov 24 22:21:09 2018

Tools Copyright (c) 1996-2017 Texas Instruments Incorporated
C:\Users\Einstein\AppData\Local\Temp\{0ED9912E-F216-4B11-AF33-9BA1337BDC1F} PAGE   25

    1321                            .dwattr $C$DW$T$330, DW_AT_name("RF_RatOutputMode")
    1322                            .dwattr $C$DW$T$330, DW_AT_type(*$C$DW$T$329)
    1323                            .dwattr $C$DW$T$330, DW_AT_language(DW_LANG_C)
    1324                            .dwattr $C$DW$T$330, DW_AT_decl_file("C:/ti/simplelink_cc13x0_sdk_2_30_00_20/source/ti/drivers
    1325                            .dwattr $C$DW$T$330, DW_AT_decl_line(0x651)
    1326                            .dwattr $C$DW$T$330, DW_AT_decl_column(0x03)
    1327                    
    1328                    
    1329                    $C$DW$T$331     .dwtag  DW_TAG_enumeration_type
    1330                            .dwattr $C$DW$T$331, DW_AT_byte_size(0x01)
    1331                    $C$DW$110       .dwtag  DW_TAG_enumerator
    1332                            .dwattr $C$DW$110, DW_AT_name("RF_RatOutputSelectRatGpo1")
    1333                            .dwattr $C$DW$110, DW_AT_const_value(0x01)
    1334                            .dwattr $C$DW$110, DW_AT_decl_file("C:/ti/simplelink_cc13x0_sdk_2_30_00_20/source/ti/drivers/r
    1335                            .dwattr $C$DW$110, DW_AT_decl_line(0x65d)
    1336                            .dwattr $C$DW$110, DW_AT_decl_column(0x05)
    1337                    
    1338                    $C$DW$111       .dwtag  DW_TAG_enumerator
    1339                            .dwattr $C$DW$111, DW_AT_name("RF_RatOutputSelectRatGpo2")
    1340                            .dwattr $C$DW$111, DW_AT_const_value(0x02)
    1341                            .dwattr $C$DW$111, DW_AT_decl_file("C:/ti/simplelink_cc13x0_sdk_2_30_00_20/source/ti/drivers/r
    1342                            .dwattr $C$DW$111, DW_AT_decl_line(0x65e)
    1343                            .dwattr $C$DW$111, DW_AT_decl_column(0x05)
    1344                    
    1345                    $C$DW$112       .dwtag  DW_TAG_enumerator
    1346                            .dwattr $C$DW$112, DW_AT_name("RF_RatOutputSelectRatGpo3")
    1347                            .dwattr $C$DW$112, DW_AT_const_value(0x03)
    1348                            .dwattr $C$DW$112, DW_AT_decl_file("C:/ti/simplelink_cc13x0_sdk_2_30_00_20/source/ti/drivers/r
    1349                            .dwattr $C$DW$112, DW_AT_decl_line(0x65f)
    1350                            .dwattr $C$DW$112, DW_AT_decl_column(0x05)
    1351                    
    1352                    $C$DW$113       .dwtag  DW_TAG_enumerator
    1353                            .dwattr $C$DW$113, DW_AT_name("RF_RatOutputSelectRatGpo4")
    1354                            .dwattr $C$DW$113, DW_AT_const_value(0x04)
    1355                            .dwattr $C$DW$113, DW_AT_decl_file("C:/ti/simplelink_cc13x0_sdk_2_30_00_20/source/ti/drivers/r
    1356                            .dwattr $C$DW$113, DW_AT_decl_line(0x660)
    1357                            .dwattr $C$DW$113, DW_AT_decl_column(0x05)
    1358                    
    1359                    $C$DW$114       .dwtag  DW_TAG_enumerator
    1360                            .dwattr $C$DW$114, DW_AT_name("RF_RatOutputSelectRatGpo5")
    1361                            .dwattr $C$DW$114, DW_AT_const_value(0x05)
    1362                            .dwattr $C$DW$114, DW_AT_decl_file("C:/ti/simplelink_cc13x0_sdk_2_30_00_20/source/ti/drivers/r
    1363                            .dwattr $C$DW$114, DW_AT_decl_line(0x661)
    1364                            .dwattr $C$DW$114, DW_AT_decl_column(0x05)
    1365                    
    1366                    $C$DW$115       .dwtag  DW_TAG_enumerator
    1367                            .dwattr $C$DW$115, DW_AT_name("RF_RatOutputSelectRatGpo6")
    1368                            .dwattr $C$DW$115, DW_AT_const_value(0x06)
    1369                            .dwattr $C$DW$115, DW_AT_decl_file("C:/ti/simplelink_cc13x0_sdk_2_30_00_20/source/ti/drivers/r
    1370                            .dwattr $C$DW$115, DW_AT_decl_line(0x662)
    1371                            .dwattr $C$DW$115, DW_AT_decl_column(0x05)
    1372                    
    1373                    $C$DW$116       .dwtag  DW_TAG_enumerator
    1374                            .dwattr $C$DW$116, DW_AT_name("RF_RatOutputSelectRatGpo7")
    1375                            .dwattr $C$DW$116, DW_AT_const_value(0x07)
TI ARM Assembler PC v16.9.8 Sat Nov 24 22:21:09 2018

Tools Copyright (c) 1996-2017 Texas Instruments Incorporated
C:\Users\Einstein\AppData\Local\Temp\{0ED9912E-F216-4B11-AF33-9BA1337BDC1F} PAGE   26

    1376                            .dwattr $C$DW$116, DW_AT_decl_file("C:/ti/simplelink_cc13x0_sdk_2_30_00_20/source/ti/drivers/r
    1377                            .dwattr $C$DW$116, DW_AT_decl_line(0x663)
    1378                            .dwattr $C$DW$116, DW_AT_decl_column(0x05)
    1379                    
    1380                            .dwattr $C$DW$T$331, DW_AT_decl_file("C:/ti/simplelink_cc13x0_sdk_2_30_00_20/source/ti/drivers
    1381                            .dwattr $C$DW$T$331, DW_AT_decl_line(0x65c)
    1382                            .dwattr $C$DW$T$331, DW_AT_decl_column(0x0e)
    1383                            .dwendtag $C$DW$T$331
    1384                    
    1385                    $C$DW$T$332     .dwtag  DW_TAG_typedef
    1386                            .dwattr $C$DW$T$332, DW_AT_name("RF_RatOutputSelect")
    1387                            .dwattr $C$DW$T$332, DW_AT_type(*$C$DW$T$331)
    1388                            .dwattr $C$DW$T$332, DW_AT_language(DW_LANG_C)
    1389                            .dwattr $C$DW$T$332, DW_AT_decl_file("C:/ti/simplelink_cc13x0_sdk_2_30_00_20/source/ti/drivers
    1390                            .dwattr $C$DW$T$332, DW_AT_decl_line(0x664)
    1391                            .dwattr $C$DW$T$332, DW_AT_decl_column(0x03)
    1392                    
    1393                    
    1394                    $C$DW$T$724     .dwtag  DW_TAG_enumeration_type
    1395                            .dwattr $C$DW$T$724, DW_AT_byte_size(0x01)
    1396                    $C$DW$117       .dwtag  DW_TAG_enumerator
    1397                            .dwattr $C$DW$117, DW_AT_name("ApiMac_status_success")
    1398                            .dwattr $C$DW$117, DW_AT_const_value(0x00)
    1399                            .dwattr $C$DW$117, DW_AT_decl_file("C:\Users\Einstein\MyWorkspaceCC1350\collector_cc1350lp\App
    1400                            .dwattr $C$DW$117, DW_AT_decl_line(0x1d7)
    1401                            .dwattr $C$DW$117, DW_AT_decl_column(0x05)
    1402                    
    1403                    $C$DW$118       .dwtag  DW_TAG_enumerator
    1404                            .dwattr $C$DW$118, DW_AT_name("ApiMac_status_subSystemError")
    1405                            .dwattr $C$DW$118, DW_AT_const_value(0x25)
    1406                            .dwattr $C$DW$118, DW_AT_decl_file("C:\Users\Einstein\MyWorkspaceCC1350\collector_cc1350lp\App
    1407                            .dwattr $C$DW$118, DW_AT_decl_line(0x1d9)
    1408                            .dwattr $C$DW$118, DW_AT_decl_column(0x05)
    1409                    
    1410                    $C$DW$119       .dwtag  DW_TAG_enumerator
    1411                            .dwattr $C$DW$119, DW_AT_name("ApiMac_status_commandIDError")
    1412                            .dwattr $C$DW$119, DW_AT_const_value(0x26)
    1413                            .dwattr $C$DW$119, DW_AT_decl_file("C:\Users\Einstein\MyWorkspaceCC1350\collector_cc1350lp\App
    1414                            .dwattr $C$DW$119, DW_AT_decl_line(0x1db)
    1415                            .dwattr $C$DW$119, DW_AT_decl_column(0x05)
    1416                    
    1417                    $C$DW$120       .dwtag  DW_TAG_enumerator
    1418                            .dwattr $C$DW$120, DW_AT_name("ApiMac_status_lengthError")
    1419                            .dwattr $C$DW$120, DW_AT_const_value(0x27)
    1420                            .dwattr $C$DW$120, DW_AT_decl_file("C:\Users\Einstein\MyWorkspaceCC1350\collector_cc1350lp\App
    1421                            .dwattr $C$DW$120, DW_AT_decl_line(0x1dd)
    1422                            .dwattr $C$DW$120, DW_AT_decl_column(0x05)
    1423                    
    1424                    $C$DW$121       .dwtag  DW_TAG_enumerator
    1425                            .dwattr $C$DW$121, DW_AT_name("ApiMac_status_unsupportedType")
    1426                            .dwattr $C$DW$121, DW_AT_const_value(0x28)
    1427                            .dwattr $C$DW$121, DW_AT_decl_file("C:\Users\Einstein\MyWorkspaceCC1350\collector_cc1350lp\App
    1428                            .dwattr $C$DW$121, DW_AT_decl_line(0x1df)
    1429                            .dwattr $C$DW$121, DW_AT_decl_column(0x05)
    1430                    
TI ARM Assembler PC v16.9.8 Sat Nov 24 22:21:09 2018

Tools Copyright (c) 1996-2017 Texas Instruments Incorporated
C:\Users\Einstein\AppData\Local\Temp\{0ED9912E-F216-4B11-AF33-9BA1337BDC1F} PAGE   27

    1431                    $C$DW$122       .dwtag  DW_TAG_enumerator
    1432                            .dwattr $C$DW$122, DW_AT_name("ApiMac_status_autoAckPendingAllOn")
    1433                            .dwattr $C$DW$122, DW_AT_const_value(0xfe)
    1434                            .dwattr $C$DW$122, DW_AT_decl_file("C:\Users\Einstein\MyWorkspaceCC1350\collector_cc1350lp\App
    1435                            .dwattr $C$DW$122, DW_AT_decl_line(0x1e1)
    1436                            .dwattr $C$DW$122, DW_AT_decl_column(0x05)
    1437                    
    1438                    $C$DW$123       .dwtag  DW_TAG_enumerator
    1439                            .dwattr $C$DW$123, DW_AT_name("ApiMac_status_autoAckPendingAllOff")
    1440                            .dwattr $C$DW$123, DW_AT_const_value(0xff)
    1441                            .dwattr $C$DW$123, DW_AT_decl_file("C:\Users\Einstein\MyWorkspaceCC1350\collector_cc1350lp\App
    1442                            .dwattr $C$DW$123, DW_AT_decl_line(0x1e3)
    1443                            .dwattr $C$DW$123, DW_AT_decl_column(0x05)
    1444                    
    1445                    $C$DW$124       .dwtag  DW_TAG_enumerator
    1446                            .dwattr $C$DW$124, DW_AT_name("ApiMac_status_beaconLoss")
    1447                            .dwattr $C$DW$124, DW_AT_const_value(0xe0)
    1448                            .dwattr $C$DW$124, DW_AT_decl_file("C:\Users\Einstein\MyWorkspaceCC1350\collector_cc1350lp\App
    1449                            .dwattr $C$DW$124, DW_AT_decl_line(0x1e5)
    1450                            .dwattr $C$DW$124, DW_AT_decl_column(0x05)
    1451                    
    1452                    $C$DW$125       .dwtag  DW_TAG_enumerator
    1453                            .dwattr $C$DW$125, DW_AT_name("ApiMac_status_channelAccessFailure")
    1454                            .dwattr $C$DW$125, DW_AT_const_value(0xe1)
    1455                            .dwattr $C$DW$125, DW_AT_decl_file("C:\Users\Einstein\MyWorkspaceCC1350\collector_cc1350lp\App
    1456                            .dwattr $C$DW$125, DW_AT_decl_line(0x1e9)
    1457                            .dwattr $C$DW$125, DW_AT_decl_column(0x05)
    1458                    
    1459                    $C$DW$126       .dwtag  DW_TAG_enumerator
    1460                            .dwattr $C$DW$126, DW_AT_name("ApiMac_status_counterError")
    1461                            .dwattr $C$DW$126, DW_AT_const_value(0xdb)
    1462                            .dwattr $C$DW$126, DW_AT_decl_file("C:\Users\Einstein\MyWorkspaceCC1350\collector_cc1350lp\App
    1463                            .dwattr $C$DW$126, DW_AT_decl_line(0x1ee)
    1464                            .dwattr $C$DW$126, DW_AT_decl_column(0x05)
    1465                    
    1466                    $C$DW$127       .dwtag  DW_TAG_enumerator
    1467                            .dwattr $C$DW$127, DW_AT_name("ApiMac_status_denied")
    1468                            .dwattr $C$DW$127, DW_AT_const_value(0xe2)
    1469                            .dwattr $C$DW$127, DW_AT_decl_file("C:\Users\Einstein\MyWorkspaceCC1350\collector_cc1350lp\App
    1470                            .dwattr $C$DW$127, DW_AT_decl_line(0x1f0)
    1471                            .dwattr $C$DW$127, DW_AT_decl_column(0x05)
    1472                    
    1473                    $C$DW$128       .dwtag  DW_TAG_enumerator
    1474                            .dwattr $C$DW$128, DW_AT_name("ApiMac_status_disabledTrxFailure")
    1475                            .dwattr $C$DW$128, DW_AT_const_value(0xe3)
    1476                            .dwattr $C$DW$128, DW_AT_decl_file("C:\Users\Einstein\MyWorkspaceCC1350\collector_cc1350lp\App
    1477                            .dwattr $C$DW$128, DW_AT_decl_line(0x1f2)
    1478                            .dwattr $C$DW$128, DW_AT_decl_column(0x05)
    1479                    
    1480                    $C$DW$129       .dwtag  DW_TAG_enumerator
    1481                            .dwattr $C$DW$129, DW_AT_name("ApiMac_status_frameTooLong")
    1482                            .dwattr $C$DW$129, DW_AT_const_value(0xe5)
    1483                            .dwattr $C$DW$129, DW_AT_decl_file("C:\Users\Einstein\MyWorkspaceCC1350\collector_cc1350lp\App
    1484                            .dwattr $C$DW$129, DW_AT_decl_line(0x1f7)
    1485                            .dwattr $C$DW$129, DW_AT_decl_column(0x05)
TI ARM Assembler PC v16.9.8 Sat Nov 24 22:21:09 2018

Tools Copyright (c) 1996-2017 Texas Instruments Incorporated
C:\Users\Einstein\AppData\Local\Temp\{0ED9912E-F216-4B11-AF33-9BA1337BDC1F} PAGE   28

    1486                    
    1487                    $C$DW$130       .dwtag  DW_TAG_enumerator
    1488                            .dwattr $C$DW$130, DW_AT_name("ApiMac_status_improperKeyType")
    1489                            .dwattr $C$DW$130, DW_AT_const_value(0xdc)
    1490                            .dwattr $C$DW$130, DW_AT_decl_file("C:\Users\Einstein\MyWorkspaceCC1350\collector_cc1350lp\App
    1491                            .dwattr $C$DW$130, DW_AT_decl_line(0x1fc)
    1492                            .dwattr $C$DW$130, DW_AT_decl_column(0x05)
    1493                    
    1494                    $C$DW$131       .dwtag  DW_TAG_enumerator
    1495                            .dwattr $C$DW$131, DW_AT_name("ApiMac_status_improperSecurityLevel")
    1496                            .dwattr $C$DW$131, DW_AT_const_value(0xdd)
    1497                            .dwattr $C$DW$131, DW_AT_decl_file("C:\Users\Einstein\MyWorkspaceCC1350\collector_cc1350lp\App
    1498                            .dwattr $C$DW$131, DW_AT_decl_line(0x201)
    1499                            .dwattr $C$DW$131, DW_AT_decl_column(0x05)
    1500                    
    1501                    $C$DW$132       .dwtag  DW_TAG_enumerator
    1502                            .dwattr $C$DW$132, DW_AT_name("ApiMac_status_invalidAddress")
    1503                            .dwattr $C$DW$132, DW_AT_const_value(0xf5)
    1504                            .dwattr $C$DW$132, DW_AT_decl_file("C:\Users\Einstein\MyWorkspaceCC1350\collector_cc1350lp\App
    1505                            .dwattr $C$DW$132, DW_AT_decl_line(0x206)
    1506                            .dwattr $C$DW$132, DW_AT_decl_column(0x05)
    1507                    
    1508                    $C$DW$133       .dwtag  DW_TAG_enumerator
    1509                            .dwattr $C$DW$133, DW_AT_name("ApiMac_status_invalidGts")
    1510                            .dwattr $C$DW$133, DW_AT_const_value(0xe6)
    1511                            .dwattr $C$DW$133, DW_AT_decl_file("C:\Users\Einstein\MyWorkspaceCC1350\collector_cc1350lp\App
    1512                            .dwattr $C$DW$133, DW_AT_decl_line(0x208)
    1513                            .dwattr $C$DW$133, DW_AT_decl_column(0x05)
    1514                    
    1515                    $C$DW$134       .dwtag  DW_TAG_enumerator
    1516                            .dwattr $C$DW$134, DW_AT_name("ApiMac_status_invalidHandle")
    1517                            .dwattr $C$DW$134, DW_AT_const_value(0xe7)
    1518                            .dwattr $C$DW$134, DW_AT_decl_file("C:\Users\Einstein\MyWorkspaceCC1350\collector_cc1350lp\App
    1519                            .dwattr $C$DW$134, DW_AT_decl_line(0x20a)
    1520                            .dwattr $C$DW$134, DW_AT_decl_column(0x05)
    1521                    
    1522                    $C$DW$135       .dwtag  DW_TAG_enumerator
    1523                            .dwattr $C$DW$135, DW_AT_name("ApiMac_status_invalidIndex")
    1524                            .dwattr $C$DW$135, DW_AT_const_value(0xf9)
    1525                            .dwattr $C$DW$135, DW_AT_decl_file("C:\Users\Einstein\MyWorkspaceCC1350\collector_cc1350lp\App
    1526                            .dwattr $C$DW$135, DW_AT_decl_line(0x20c)
    1527                            .dwattr $C$DW$135, DW_AT_decl_column(0x05)
    1528                    
    1529                    $C$DW$136       .dwtag  DW_TAG_enumerator
    1530                            .dwattr $C$DW$136, DW_AT_name("ApiMac_status_invalidParameter")
    1531                            .dwattr $C$DW$136, DW_AT_const_value(0xe8)
    1532                            .dwattr $C$DW$136, DW_AT_decl_file("C:\Users\Einstein\MyWorkspaceCC1350\collector_cc1350lp\App
    1533                            .dwattr $C$DW$136, DW_AT_decl_line(0x20e)
    1534                            .dwattr $C$DW$136, DW_AT_decl_column(0x05)
    1535                    
    1536                    $C$DW$137       .dwtag  DW_TAG_enumerator
    1537                            .dwattr $C$DW$137, DW_AT_name("ApiMac_status_limitReached")
    1538                            .dwattr $C$DW$137, DW_AT_const_value(0xfa)
    1539                            .dwattr $C$DW$137, DW_AT_decl_file("C:\Users\Einstein\MyWorkspaceCC1350\collector_cc1350lp\App
    1540                            .dwattr $C$DW$137, DW_AT_decl_line(0x213)
TI ARM Assembler PC v16.9.8 Sat Nov 24 22:21:09 2018

Tools Copyright (c) 1996-2017 Texas Instruments Incorporated
C:\Users\Einstein\AppData\Local\Temp\{0ED9912E-F216-4B11-AF33-9BA1337BDC1F} PAGE   29

    1541                            .dwattr $C$DW$137, DW_AT_decl_column(0x05)
    1542                    
    1543                    $C$DW$138       .dwtag  DW_TAG_enumerator
    1544                            .dwattr $C$DW$138, DW_AT_name("ApiMac_status_noAck")
    1545                            .dwattr $C$DW$138, DW_AT_const_value(0xe9)
    1546                            .dwattr $C$DW$138, DW_AT_decl_file("C:\Users\Einstein\MyWorkspaceCC1350\collector_cc1350lp\App
    1547                            .dwattr $C$DW$138, DW_AT_decl_line(0x218)
    1548                            .dwattr $C$DW$138, DW_AT_decl_column(0x05)
    1549                    
    1550                    $C$DW$139       .dwtag  DW_TAG_enumerator
    1551                            .dwattr $C$DW$139, DW_AT_name("ApiMac_status_noBeacon")
    1552                            .dwattr $C$DW$139, DW_AT_const_value(0xea)
    1553                            .dwattr $C$DW$139, DW_AT_decl_file("C:\Users\Einstein\MyWorkspaceCC1350\collector_cc1350lp\App
    1554                            .dwattr $C$DW$139, DW_AT_decl_line(0x21d)
    1555                            .dwattr $C$DW$139, DW_AT_decl_column(0x05)
    1556                    
    1557                    $C$DW$140       .dwtag  DW_TAG_enumerator
    1558                            .dwattr $C$DW$140, DW_AT_name("ApiMac_status_noData")
    1559                            .dwattr $C$DW$140, DW_AT_const_value(0xeb)
    1560                            .dwattr $C$DW$140, DW_AT_decl_file("C:\Users\Einstein\MyWorkspaceCC1350\collector_cc1350lp\App
    1561                            .dwattr $C$DW$140, DW_AT_decl_line(0x222)
    1562                            .dwattr $C$DW$140, DW_AT_decl_column(0x05)
    1563                    
    1564                    $C$DW$141       .dwtag  DW_TAG_enumerator
    1565                            .dwattr $C$DW$141, DW_AT_name("ApiMac_status_noShortAddress")
    1566                            .dwattr $C$DW$141, DW_AT_const_value(0xec)
    1567                            .dwattr $C$DW$141, DW_AT_decl_file("C:\Users\Einstein\MyWorkspaceCC1350\collector_cc1350lp\App
    1568                            .dwattr $C$DW$141, DW_AT_decl_line(0x224)
    1569                            .dwattr $C$DW$141, DW_AT_decl_column(0x05)
    1570                    
    1571                    $C$DW$142       .dwtag  DW_TAG_enumerator
    1572                            .dwattr $C$DW$142, DW_AT_name("ApiMac_status_onTimeTooLong")
    1573                            .dwattr $C$DW$142, DW_AT_const_value(0xf6)
    1574                            .dwattr $C$DW$142, DW_AT_decl_file("C:\Users\Einstein\MyWorkspaceCC1350\collector_cc1350lp\App
    1575                            .dwattr $C$DW$142, DW_AT_decl_line(0x226)
    1576                            .dwattr $C$DW$142, DW_AT_decl_column(0x05)
    1577                    
    1578                    $C$DW$143       .dwtag  DW_TAG_enumerator
    1579                            .dwattr $C$DW$143, DW_AT_name("ApiMac_status_outOfCap")
    1580                            .dwattr $C$DW$143, DW_AT_const_value(0xed)
    1581                            .dwattr $C$DW$143, DW_AT_decl_file("C:\Users\Einstein\MyWorkspaceCC1350\collector_cc1350lp\App
    1582                            .dwattr $C$DW$143, DW_AT_decl_line(0x228)
    1583                            .dwattr $C$DW$143, DW_AT_decl_column(0x05)
    1584                    
    1585                    $C$DW$144       .dwtag  DW_TAG_enumerator
    1586                            .dwattr $C$DW$144, DW_AT_name("ApiMac_status_panIdConflict")
    1587                            .dwattr $C$DW$144, DW_AT_const_value(0xee)
    1588                            .dwattr $C$DW$144, DW_AT_decl_file("C:\Users\Einstein\MyWorkspaceCC1350\collector_cc1350lp\App
    1589                            .dwattr $C$DW$144, DW_AT_decl_line(0x22d)
    1590                            .dwattr $C$DW$144, DW_AT_decl_column(0x05)
    1591                    
    1592                    $C$DW$145       .dwtag  DW_TAG_enumerator
    1593                            .dwattr $C$DW$145, DW_AT_name("ApiMac_status_pastTime")
    1594                            .dwattr $C$DW$145, DW_AT_const_value(0xf7)
    1595                            .dwattr $C$DW$145, DW_AT_decl_file("C:\Users\Einstein\MyWorkspaceCC1350\collector_cc1350lp\App
TI ARM Assembler PC v16.9.8 Sat Nov 24 22:21:09 2018

Tools Copyright (c) 1996-2017 Texas Instruments Incorporated
C:\Users\Einstein\AppData\Local\Temp\{0ED9912E-F216-4B11-AF33-9BA1337BDC1F} PAGE   30

    1596                            .dwattr $C$DW$145, DW_AT_decl_line(0x22f)
    1597                            .dwattr $C$DW$145, DW_AT_decl_column(0x05)
    1598                    
    1599                    $C$DW$146       .dwtag  DW_TAG_enumerator
    1600                            .dwattr $C$DW$146, DW_AT_name("ApiMac_status_readOnly")
    1601                            .dwattr $C$DW$146, DW_AT_const_value(0xfb)
    1602                            .dwattr $C$DW$146, DW_AT_decl_file("C:\Users\Einstein\MyWorkspaceCC1350\collector_cc1350lp\App
    1603                            .dwattr $C$DW$146, DW_AT_decl_line(0x231)
    1604                            .dwattr $C$DW$146, DW_AT_decl_column(0x05)
    1605                    
    1606                    $C$DW$147       .dwtag  DW_TAG_enumerator
    1607                            .dwattr $C$DW$147, DW_AT_name("ApiMac_status_realignment")
    1608                            .dwattr $C$DW$147, DW_AT_const_value(0xef)
    1609                            .dwattr $C$DW$147, DW_AT_decl_file("C:\Users\Einstein\MyWorkspaceCC1350\collector_cc1350lp\App
    1610                            .dwattr $C$DW$147, DW_AT_decl_line(0x233)
    1611                            .dwattr $C$DW$147, DW_AT_decl_column(0x05)
    1612                    
    1613                    $C$DW$148       .dwtag  DW_TAG_enumerator
    1614                            .dwattr $C$DW$148, DW_AT_name("ApiMac_status_scanInProgress")
    1615                            .dwattr $C$DW$148, DW_AT_const_value(0xfc)
    1616                            .dwattr $C$DW$148, DW_AT_decl_file("C:\Users\Einstein\MyWorkspaceCC1350\collector_cc1350lp\App
    1617                            .dwattr $C$DW$148, DW_AT_decl_line(0x235)
    1618                            .dwattr $C$DW$148, DW_AT_decl_column(0x05)
    1619                    
    1620                    $C$DW$149       .dwtag  DW_TAG_enumerator
    1621                            .dwattr $C$DW$149, DW_AT_name("ApiMac_status_securityError")
    1622                            .dwattr $C$DW$149, DW_AT_const_value(0xe4)
    1623                            .dwattr $C$DW$149, DW_AT_decl_file("C:\Users\Einstein\MyWorkspaceCC1350\collector_cc1350lp\App
    1624                            .dwattr $C$DW$149, DW_AT_decl_line(0x237)
    1625                            .dwattr $C$DW$149, DW_AT_decl_column(0x05)
    1626                    
    1627                    $C$DW$150       .dwtag  DW_TAG_enumerator
    1628                            .dwattr $C$DW$150, DW_AT_name("ApiMac_status_superframeOverlap")
    1629                            .dwattr $C$DW$150, DW_AT_const_value(0xfd)
    1630                            .dwattr $C$DW$150, DW_AT_decl_file("C:\Users\Einstein\MyWorkspaceCC1350\collector_cc1350lp\App
    1631                            .dwattr $C$DW$150, DW_AT_decl_line(0x239)
    1632                            .dwattr $C$DW$150, DW_AT_decl_column(0x05)
    1633                    
    1634                    $C$DW$151       .dwtag  DW_TAG_enumerator
    1635                            .dwattr $C$DW$151, DW_AT_name("ApiMac_status_trackingOff")
    1636                            .dwattr $C$DW$151, DW_AT_const_value(0xf8)
    1637                            .dwattr $C$DW$151, DW_AT_decl_file("C:\Users\Einstein\MyWorkspaceCC1350\collector_cc1350lp\App
    1638                            .dwattr $C$DW$151, DW_AT_decl_line(0x23e)
    1639                            .dwattr $C$DW$151, DW_AT_decl_column(0x05)
    1640                    
    1641                    $C$DW$152       .dwtag  DW_TAG_enumerator
    1642                            .dwattr $C$DW$152, DW_AT_name("ApiMac_status_transactionExpired")
    1643                            .dwattr $C$DW$152, DW_AT_const_value(0xf0)
    1644                            .dwattr $C$DW$152, DW_AT_decl_file("C:\Users\Einstein\MyWorkspaceCC1350\collector_cc1350lp\App
    1645                            .dwattr $C$DW$152, DW_AT_decl_line(0x244)
    1646                            .dwattr $C$DW$152, DW_AT_decl_column(0x05)
    1647                    
    1648                    $C$DW$153       .dwtag  DW_TAG_enumerator
    1649                            .dwattr $C$DW$153, DW_AT_name("ApiMac_status_transactionOverflow")
    1650                            .dwattr $C$DW$153, DW_AT_const_value(0xf1)
TI ARM Assembler PC v16.9.8 Sat Nov 24 22:21:09 2018

Tools Copyright (c) 1996-2017 Texas Instruments Incorporated
C:\Users\Einstein\AppData\Local\Temp\{0ED9912E-F216-4B11-AF33-9BA1337BDC1F} PAGE   31

    1651                            .dwattr $C$DW$153, DW_AT_decl_file("C:\Users\Einstein\MyWorkspaceCC1350\collector_cc1350lp\App
    1652                            .dwattr $C$DW$153, DW_AT_decl_line(0x246)
    1653                            .dwattr $C$DW$153, DW_AT_decl_column(0x05)
    1654                    
    1655                    $C$DW$154       .dwtag  DW_TAG_enumerator
    1656                            .dwattr $C$DW$154, DW_AT_name("ApiMac_status_txActive")
    1657                            .dwattr $C$DW$154, DW_AT_const_value(0xf2)
    1658                            .dwattr $C$DW$154, DW_AT_decl_file("C:\Users\Einstein\MyWorkspaceCC1350\collector_cc1350lp\App
    1659                            .dwattr $C$DW$154, DW_AT_decl_line(0x248)
    1660                            .dwattr $C$DW$154, DW_AT_decl_column(0x05)
    1661                    
    1662                    $C$DW$155       .dwtag  DW_TAG_enumerator
    1663                            .dwattr $C$DW$155, DW_AT_name("ApiMac_status_unavailableKey")
    1664                            .dwattr $C$DW$155, DW_AT_const_value(0xf3)
    1665                            .dwattr $C$DW$155, DW_AT_decl_file("C:\Users\Einstein\MyWorkspaceCC1350\collector_cc1350lp\App
    1666                            .dwattr $C$DW$155, DW_AT_decl_line(0x24d)
    1667                            .dwattr $C$DW$155, DW_AT_decl_column(0x05)
    1668                    
    1669                    $C$DW$156       .dwtag  DW_TAG_enumerator
    1670                            .dwattr $C$DW$156, DW_AT_name("ApiMac_status_unsupportedAttribute")
    1671                            .dwattr $C$DW$156, DW_AT_const_value(0xf4)
    1672                            .dwattr $C$DW$156, DW_AT_decl_file("C:\Users\Einstein\MyWorkspaceCC1350\collector_cc1350lp\App
    1673                            .dwattr $C$DW$156, DW_AT_decl_line(0x24f)
    1674                            .dwattr $C$DW$156, DW_AT_decl_column(0x05)
    1675                    
    1676                    $C$DW$157       .dwtag  DW_TAG_enumerator
    1677                            .dwattr $C$DW$157, DW_AT_name("ApiMac_status_unsupportedLegacy")
    1678                            .dwattr $C$DW$157, DW_AT_const_value(0xde)
    1679                            .dwattr $C$DW$157, DW_AT_decl_file("C:\Users\Einstein\MyWorkspaceCC1350\collector_cc1350lp\App
    1680                            .dwattr $C$DW$157, DW_AT_decl_line(0x254)
    1681                            .dwattr $C$DW$157, DW_AT_decl_column(0x05)
    1682                    
    1683                    $C$DW$158       .dwtag  DW_TAG_enumerator
    1684                            .dwattr $C$DW$158, DW_AT_name("ApiMac_status_unsupportedSecurity")
    1685                            .dwattr $C$DW$158, DW_AT_const_value(0xdf)
    1686                            .dwattr $C$DW$158, DW_AT_decl_file("C:\Users\Einstein\MyWorkspaceCC1350\collector_cc1350lp\App
    1687                            .dwattr $C$DW$158, DW_AT_decl_line(0x256)
    1688                            .dwattr $C$DW$158, DW_AT_decl_column(0x05)
    1689                    
    1690                    $C$DW$159       .dwtag  DW_TAG_enumerator
    1691                            .dwattr $C$DW$159, DW_AT_name("ApiMac_status_unsupported")
    1692                            .dwattr $C$DW$159, DW_AT_const_value(0x18)
    1693                            .dwattr $C$DW$159, DW_AT_decl_file("C:\Users\Einstein\MyWorkspaceCC1350\collector_cc1350lp\App
    1694                            .dwattr $C$DW$159, DW_AT_decl_line(0x258)
    1695                            .dwattr $C$DW$159, DW_AT_decl_column(0x05)
    1696                    
    1697                    $C$DW$160       .dwtag  DW_TAG_enumerator
    1698                            .dwattr $C$DW$160, DW_AT_name("ApiMac_status_badState")
    1699                            .dwattr $C$DW$160, DW_AT_const_value(0x19)
    1700                            .dwattr $C$DW$160, DW_AT_decl_file("C:\Users\Einstein\MyWorkspaceCC1350\collector_cc1350lp\App
    1701                            .dwattr $C$DW$160, DW_AT_decl_line(0x25a)
    1702                            .dwattr $C$DW$160, DW_AT_decl_column(0x05)
    1703                    
    1704                    $C$DW$161       .dwtag  DW_TAG_enumerator
    1705                            .dwattr $C$DW$161, DW_AT_name("ApiMac_status_noResources")
TI ARM Assembler PC v16.9.8 Sat Nov 24 22:21:09 2018

Tools Copyright (c) 1996-2017 Texas Instruments Incorporated
C:\Users\Einstein\AppData\Local\Temp\{0ED9912E-F216-4B11-AF33-9BA1337BDC1F} PAGE   32

    1706                            .dwattr $C$DW$161, DW_AT_const_value(0x1a)
    1707                            .dwattr $C$DW$161, DW_AT_decl_file("C:\Users\Einstein\MyWorkspaceCC1350\collector_cc1350lp\App
    1708                            .dwattr $C$DW$161, DW_AT_decl_line(0x25f)
    1709                            .dwattr $C$DW$161, DW_AT_decl_column(0x05)
    1710                    
    1711                    $C$DW$162       .dwtag  DW_TAG_enumerator
    1712                            .dwattr $C$DW$162, DW_AT_name("ApiMac_status_ackPending")
    1713                            .dwattr $C$DW$162, DW_AT_const_value(0x1b)
    1714                            .dwattr $C$DW$162, DW_AT_decl_file("C:\Users\Einstein\MyWorkspaceCC1350\collector_cc1350lp\App
    1715                            .dwattr $C$DW$162, DW_AT_decl_line(0x261)
    1716                            .dwattr $C$DW$162, DW_AT_decl_column(0x05)
    1717                    
    1718                    $C$DW$163       .dwtag  DW_TAG_enumerator
    1719                            .dwattr $C$DW$163, DW_AT_name("ApiMac_status_noTime")
    1720                            .dwattr $C$DW$163, DW_AT_const_value(0x1c)
    1721                            .dwattr $C$DW$163, DW_AT_decl_file("C:\Users\Einstein\MyWorkspaceCC1350\collector_cc1350lp\App
    1722                            .dwattr $C$DW$163, DW_AT_decl_line(0x263)
    1723                            .dwattr $C$DW$163, DW_AT_decl_column(0x05)
    1724                    
    1725                    $C$DW$164       .dwtag  DW_TAG_enumerator
    1726                            .dwattr $C$DW$164, DW_AT_name("ApiMac_status_txAborted")
    1727                            .dwattr $C$DW$164, DW_AT_const_value(0x1d)
    1728                            .dwattr $C$DW$164, DW_AT_decl_file("C:\Users\Einstein\MyWorkspaceCC1350\collector_cc1350lp\App
    1729                            .dwattr $C$DW$164, DW_AT_decl_line(0x265)
    1730                            .dwattr $C$DW$164, DW_AT_decl_column(0x05)
    1731                    
    1732                    $C$DW$165       .dwtag  DW_TAG_enumerator
    1733                            .dwattr $C$DW$165, DW_AT_name("ApiMac_status_duplicateEntry")
    1734                            .dwattr $C$DW$165, DW_AT_const_value(0x1e)
    1735                            .dwattr $C$DW$165, DW_AT_decl_file("C:\Users\Einstein\MyWorkspaceCC1350\collector_cc1350lp\App
    1736                            .dwattr $C$DW$165, DW_AT_decl_line(0x26a)
    1737                            .dwattr $C$DW$165, DW_AT_decl_column(0x05)
    1738                    
    1739                    $C$DW$166       .dwtag  DW_TAG_enumerator
    1740                            .dwattr $C$DW$166, DW_AT_name("ApiMac_status_fhError")
    1741                            .dwattr $C$DW$166, DW_AT_const_value(0x61)
    1742                            .dwattr $C$DW$166, DW_AT_decl_file("C:\Users\Einstein\MyWorkspaceCC1350\collector_cc1350lp\App
    1743                            .dwattr $C$DW$166, DW_AT_decl_line(0x26c)
    1744                            .dwattr $C$DW$166, DW_AT_decl_column(0x05)
    1745                    
    1746                    $C$DW$167       .dwtag  DW_TAG_enumerator
    1747                            .dwattr $C$DW$167, DW_AT_name("ApiMac_status_fhIeNotSupported")
    1748                            .dwattr $C$DW$167, DW_AT_const_value(0x62)
    1749                            .dwattr $C$DW$167, DW_AT_decl_file("C:\Users\Einstein\MyWorkspaceCC1350\collector_cc1350lp\App
    1750                            .dwattr $C$DW$167, DW_AT_decl_line(0x26e)
    1751                            .dwattr $C$DW$167, DW_AT_decl_column(0x05)
    1752                    
    1753                    $C$DW$168       .dwtag  DW_TAG_enumerator
    1754                            .dwattr $C$DW$168, DW_AT_name("ApiMac_status_fhNotInAsync")
    1755                            .dwattr $C$DW$168, DW_AT_const_value(0x63)
    1756                            .dwattr $C$DW$168, DW_AT_decl_file("C:\Users\Einstein\MyWorkspaceCC1350\collector_cc1350lp\App
    1757                            .dwattr $C$DW$168, DW_AT_decl_line(0x270)
    1758                            .dwattr $C$DW$168, DW_AT_decl_column(0x05)
    1759                    
    1760                    $C$DW$169       .dwtag  DW_TAG_enumerator
TI ARM Assembler PC v16.9.8 Sat Nov 24 22:21:09 2018

Tools Copyright (c) 1996-2017 Texas Instruments Incorporated
C:\Users\Einstein\AppData\Local\Temp\{0ED9912E-F216-4B11-AF33-9BA1337BDC1F} PAGE   33

    1761                            .dwattr $C$DW$169, DW_AT_name("ApiMac_status_fhNotInNeighborTable")
    1762                            .dwattr $C$DW$169, DW_AT_const_value(0x64)
    1763                            .dwattr $C$DW$169, DW_AT_decl_file("C:\Users\Einstein\MyWorkspaceCC1350\collector_cc1350lp\App
    1764                            .dwattr $C$DW$169, DW_AT_decl_line(0x272)
    1765                            .dwattr $C$DW$169, DW_AT_decl_column(0x05)
    1766                    
    1767                    $C$DW$170       .dwtag  DW_TAG_enumerator
    1768                            .dwattr $C$DW$170, DW_AT_name("ApiMac_status_fhOutSlot")
    1769                            .dwattr $C$DW$170, DW_AT_const_value(0x65)
    1770                            .dwattr $C$DW$170, DW_AT_decl_file("C:\Users\Einstein\MyWorkspaceCC1350\collector_cc1350lp\App
    1771                            .dwattr $C$DW$170, DW_AT_decl_line(0x274)
    1772                            .dwattr $C$DW$170, DW_AT_decl_column(0x05)
    1773                    
    1774                    $C$DW$171       .dwtag  DW_TAG_enumerator
    1775                            .dwattr $C$DW$171, DW_AT_name("ApiMac_status_fhInvalidAddress")
    1776                            .dwattr $C$DW$171, DW_AT_const_value(0x66)
    1777                            .dwattr $C$DW$171, DW_AT_decl_file("C:\Users\Einstein\MyWorkspaceCC1350\collector_cc1350lp\App
    1778                            .dwattr $C$DW$171, DW_AT_decl_line(0x276)
    1779                            .dwattr $C$DW$171, DW_AT_decl_column(0x05)
    1780                    
    1781                    $C$DW$172       .dwtag  DW_TAG_enumerator
    1782                            .dwattr $C$DW$172, DW_AT_name("ApiMac_status_fhIeFormatInvalid")
    1783                            .dwattr $C$DW$172, DW_AT_const_value(0x67)
    1784                            .dwattr $C$DW$172, DW_AT_decl_file("C:\Users\Einstein\MyWorkspaceCC1350\collector_cc1350lp\App
    1785                            .dwattr $C$DW$172, DW_AT_decl_line(0x278)
    1786                            .dwattr $C$DW$172, DW_AT_decl_column(0x05)
    1787                    
    1788                    $C$DW$173       .dwtag  DW_TAG_enumerator
    1789                            .dwattr $C$DW$173, DW_AT_name("ApiMac_status_fhPibNotSupported")
    1790                            .dwattr $C$DW$173, DW_AT_const_value(0x68)
    1791                            .dwattr $C$DW$173, DW_AT_decl_file("C:\Users\Einstein\MyWorkspaceCC1350\collector_cc1350lp\App
    1792                            .dwattr $C$DW$173, DW_AT_decl_line(0x27a)
    1793                            .dwattr $C$DW$173, DW_AT_decl_column(0x05)
    1794                    
    1795                    $C$DW$174       .dwtag  DW_TAG_enumerator
    1796                            .dwattr $C$DW$174, DW_AT_name("ApiMac_status_fhPibReadOnly")
    1797                            .dwattr $C$DW$174, DW_AT_const_value(0x69)
    1798                            .dwattr $C$DW$174, DW_AT_decl_file("C:\Users\Einstein\MyWorkspaceCC1350\collector_cc1350lp\App
    1799                            .dwattr $C$DW$174, DW_AT_decl_line(0x27c)
    1800                            .dwattr $C$DW$174, DW_AT_decl_column(0x05)
    1801                    
    1802                    $C$DW$175       .dwtag  DW_TAG_enumerator
    1803                            .dwattr $C$DW$175, DW_AT_name("ApiMac_status_fhPibInvalidParameter")
    1804                            .dwattr $C$DW$175, DW_AT_const_value(0x6a)
    1805                            .dwattr $C$DW$175, DW_AT_decl_file("C:\Users\Einstein\MyWorkspaceCC1350\collector_cc1350lp\App
    1806                            .dwattr $C$DW$175, DW_AT_decl_line(0x27e)
    1807                            .dwattr $C$DW$175, DW_AT_decl_column(0x05)
    1808                    
    1809                    $C$DW$176       .dwtag  DW_TAG_enumerator
    1810                            .dwattr $C$DW$176, DW_AT_name("ApiMac_status_fhInvalidFrameType")
    1811                            .dwattr $C$DW$176, DW_AT_const_value(0x6b)
    1812                            .dwattr $C$DW$176, DW_AT_decl_file("C:\Users\Einstein\MyWorkspaceCC1350\collector_cc1350lp\App
    1813                            .dwattr $C$DW$176, DW_AT_decl_line(0x280)
    1814                            .dwattr $C$DW$176, DW_AT_decl_column(0x05)
    1815                    
TI ARM Assembler PC v16.9.8 Sat Nov 24 22:21:09 2018

Tools Copyright (c) 1996-2017 Texas Instruments Incorporated
C:\Users\Einstein\AppData\Local\Temp\{0ED9912E-F216-4B11-AF33-9BA1337BDC1F} PAGE   34

    1816                    $C$DW$177       .dwtag  DW_TAG_enumerator
    1817                            .dwattr $C$DW$177, DW_AT_name("ApiMac_status_fhExpiredNode")
    1818                            .dwattr $C$DW$177, DW_AT_const_value(0x6c)
    1819                            .dwattr $C$DW$177, DW_AT_decl_file("C:\Users\Einstein\MyWorkspaceCC1350\collector_cc1350lp\App
    1820                            .dwattr $C$DW$177, DW_AT_decl_line(0x282)
    1821                            .dwattr $C$DW$177, DW_AT_decl_column(0x05)
    1822                    
    1823                    $C$DW$178       .dwtag  DW_TAG_enumerator
    1824                            .dwattr $C$DW$178, DW_AT_name("ApiMac_status_fhNoPatch")
    1825                            .dwattr $C$DW$178, DW_AT_const_value(0x6d)
    1826                            .dwattr $C$DW$178, DW_AT_decl_file("C:\Users\Einstein\MyWorkspaceCC1350\collector_cc1350lp\App
    1827                            .dwattr $C$DW$178, DW_AT_decl_line(0x284)
    1828                            .dwattr $C$DW$178, DW_AT_decl_column(0x05)
    1829                    
    1830                            .dwattr $C$DW$T$724, DW_AT_decl_file("C:\Users\Einstein\MyWorkspaceCC1350\collector_cc1350lp\A
    1831                            .dwattr $C$DW$T$724, DW_AT_decl_line(0x1d5)
    1832                            .dwattr $C$DW$T$724, DW_AT_decl_column(0x01)
    1833                            .dwendtag $C$DW$T$724
    1834                    
    1835                    $C$DW$T$725     .dwtag  DW_TAG_typedef
    1836                            .dwattr $C$DW$T$725, DW_AT_name("ApiMac_status_t")
    1837                            .dwattr $C$DW$T$725, DW_AT_type(*$C$DW$T$724)
    1838                            .dwattr $C$DW$T$725, DW_AT_language(DW_LANG_C)
    1839                            .dwattr $C$DW$T$725, DW_AT_decl_file("C:\Users\Einstein\MyWorkspaceCC1350\collector_cc1350lp\A
    1840                            .dwattr $C$DW$T$725, DW_AT_decl_line(0x285)
    1841                            .dwattr $C$DW$T$725, DW_AT_decl_column(0x03)
    1842                    
    1843                    
    1844                    $C$DW$T$727     .dwtag  DW_TAG_enumeration_type
    1845                            .dwattr $C$DW$T$727, DW_AT_byte_size(0x01)
    1846                    $C$DW$179       .dwtag  DW_TAG_enumerator
    1847                            .dwattr $C$DW$179, DW_AT_name("ApiMac_fhFrameType_panAdvert")
    1848                            .dwattr $C$DW$179, DW_AT_const_value(0x00)
    1849                            .dwattr $C$DW$179, DW_AT_decl_file("C:\Users\Einstein\MyWorkspaceCC1350\collector_cc1350lp\App
    1850                            .dwattr $C$DW$179, DW_AT_decl_line(0x44a)
    1851                            .dwattr $C$DW$179, DW_AT_decl_column(0x05)
    1852                    
    1853                    $C$DW$180       .dwtag  DW_TAG_enumerator
    1854                            .dwattr $C$DW$180, DW_AT_name("ApiMac_fhFrameType_panAdvertSolicit")
    1855                            .dwattr $C$DW$180, DW_AT_const_value(0x01)
    1856                            .dwattr $C$DW$180, DW_AT_decl_file("C:\Users\Einstein\MyWorkspaceCC1350\collector_cc1350lp\App
    1857                            .dwattr $C$DW$180, DW_AT_decl_line(0x44c)
    1858                            .dwattr $C$DW$180, DW_AT_decl_column(0x05)
    1859                    
    1860                    $C$DW$181       .dwtag  DW_TAG_enumerator
    1861                            .dwattr $C$DW$181, DW_AT_name("ApiMac_fhFrameType_config")
    1862                            .dwattr $C$DW$181, DW_AT_const_value(0x02)
    1863                            .dwattr $C$DW$181, DW_AT_decl_file("C:\Users\Einstein\MyWorkspaceCC1350\collector_cc1350lp\App
    1864                            .dwattr $C$DW$181, DW_AT_decl_line(0x44e)
    1865                            .dwattr $C$DW$181, DW_AT_decl_column(0x05)
    1866                    
    1867                    $C$DW$182       .dwtag  DW_TAG_enumerator
    1868                            .dwattr $C$DW$182, DW_AT_name("ApiMac_fhFrameType_configSolicit")
    1869                            .dwattr $C$DW$182, DW_AT_const_value(0x03)
    1870                            .dwattr $C$DW$182, DW_AT_decl_file("C:\Users\Einstein\MyWorkspaceCC1350\collector_cc1350lp\App
TI ARM Assembler PC v16.9.8 Sat Nov 24 22:21:09 2018

Tools Copyright (c) 1996-2017 Texas Instruments Incorporated
C:\Users\Einstein\AppData\Local\Temp\{0ED9912E-F216-4B11-AF33-9BA1337BDC1F} PAGE   35

    1871                            .dwattr $C$DW$182, DW_AT_decl_line(0x450)
    1872                            .dwattr $C$DW$182, DW_AT_decl_column(0x05)
    1873                    
    1874                    $C$DW$183       .dwtag  DW_TAG_enumerator
    1875                            .dwattr $C$DW$183, DW_AT_name("ApiMac_fhFrameType_data")
    1876                            .dwattr $C$DW$183, DW_AT_const_value(0x04)
    1877                            .dwattr $C$DW$183, DW_AT_decl_file("C:\Users\Einstein\MyWorkspaceCC1350\collector_cc1350lp\App
    1878                            .dwattr $C$DW$183, DW_AT_decl_line(0x452)
    1879                            .dwattr $C$DW$183, DW_AT_decl_column(0x05)
    1880                    
    1881                    $C$DW$184       .dwtag  DW_TAG_enumerator
    1882                            .dwattr $C$DW$184, DW_AT_name("ApiMac_fhFrameType_ack")
    1883                            .dwattr $C$DW$184, DW_AT_const_value(0x05)
    1884                            .dwattr $C$DW$184, DW_AT_decl_file("C:\Users\Einstein\MyWorkspaceCC1350\collector_cc1350lp\App
    1885                            .dwattr $C$DW$184, DW_AT_decl_line(0x454)
    1886                            .dwattr $C$DW$184, DW_AT_decl_column(0x05)
    1887                    
    1888                    $C$DW$185       .dwtag  DW_TAG_enumerator
    1889                            .dwattr $C$DW$185, DW_AT_name("ApiMac_fhFrameType_eapol")
    1890                            .dwattr $C$DW$185, DW_AT_const_value(0x06)
    1891                            .dwattr $C$DW$185, DW_AT_decl_file("C:\Users\Einstein\MyWorkspaceCC1350\collector_cc1350lp\App
    1892                            .dwattr $C$DW$185, DW_AT_decl_line(0x456)
    1893                            .dwattr $C$DW$185, DW_AT_decl_column(0x05)
    1894                    
    1895                    $C$DW$186       .dwtag  DW_TAG_enumerator
    1896                            .dwattr $C$DW$186, DW_AT_name("ApiMac_fhFrameType_invalid")
    1897                            .dwattr $C$DW$186, DW_AT_const_value(0xff)
    1898                            .dwattr $C$DW$186, DW_AT_decl_file("C:\Users\Einstein\MyWorkspaceCC1350\collector_cc1350lp\App
    1899                            .dwattr $C$DW$186, DW_AT_decl_line(0x458)
    1900                            .dwattr $C$DW$186, DW_AT_decl_column(0x05)
    1901                    
    1902                            .dwattr $C$DW$T$727, DW_AT_decl_file("C:\Users\Einstein\MyWorkspaceCC1350\collector_cc1350lp\A
    1903                            .dwattr $C$DW$T$727, DW_AT_decl_line(0x448)
    1904                            .dwattr $C$DW$T$727, DW_AT_decl_column(0x01)
    1905                            .dwendtag $C$DW$T$727
    1906                    
    1907                    $C$DW$T$728     .dwtag  DW_TAG_typedef
    1908                            .dwattr $C$DW$T$728, DW_AT_name("ApiMac_fhFrameType_t")
    1909                            .dwattr $C$DW$T$728, DW_AT_type(*$C$DW$T$727)
    1910                            .dwattr $C$DW$T$728, DW_AT_language(DW_LANG_C)
    1911                            .dwattr $C$DW$T$728, DW_AT_decl_file("C:\Users\Einstein\MyWorkspaceCC1350\collector_cc1350lp\A
    1912                            .dwattr $C$DW$T$728, DW_AT_decl_line(0x459)
    1913                            .dwattr $C$DW$T$728, DW_AT_decl_column(0x03)
    1914                    
    1915                    
    1916                    $C$DW$T$729     .dwtag  DW_TAG_enumeration_type
    1917                            .dwattr $C$DW$T$729, DW_AT_byte_size(0x01)
    1918                    $C$DW$187       .dwtag  DW_TAG_enumerator
    1919                            .dwattr $C$DW$187, DW_AT_name("ApiMac_fhDispatchType_none")
    1920                            .dwattr $C$DW$187, DW_AT_const_value(0x00)
    1921                            .dwattr $C$DW$187, DW_AT_decl_file("C:\Users\Einstein\MyWorkspaceCC1350\collector_cc1350lp\App
    1922                            .dwattr $C$DW$187, DW_AT_decl_line(0x4c0)
    1923                            .dwattr $C$DW$187, DW_AT_decl_column(0x05)
    1924                    
    1925                    $C$DW$188       .dwtag  DW_TAG_enumerator
TI ARM Assembler PC v16.9.8 Sat Nov 24 22:21:09 2018

Tools Copyright (c) 1996-2017 Texas Instruments Incorporated
C:\Users\Einstein\AppData\Local\Temp\{0ED9912E-F216-4B11-AF33-9BA1337BDC1F} PAGE   36

    1926                            .dwattr $C$DW$188, DW_AT_name("ApiMac_fhDispatchType_MHD_PDU")
    1927                            .dwattr $C$DW$188, DW_AT_const_value(0x01)
    1928                            .dwattr $C$DW$188, DW_AT_decl_file("C:\Users\Einstein\MyWorkspaceCC1350\collector_cc1350lp\App
    1929                            .dwattr $C$DW$188, DW_AT_decl_line(0x4c2)
    1930                            .dwattr $C$DW$188, DW_AT_decl_column(0x05)
    1931                    
    1932                    $C$DW$189       .dwtag  DW_TAG_enumerator
    1933                            .dwattr $C$DW$189, DW_AT_name("ApiMac_fhDispatchType_6LowPAN")
    1934                            .dwattr $C$DW$189, DW_AT_const_value(0x02)
    1935                            .dwattr $C$DW$189, DW_AT_decl_file("C:\Users\Einstein\MyWorkspaceCC1350\collector_cc1350lp\App
    1936                            .dwattr $C$DW$189, DW_AT_decl_line(0x4c4)
    1937                            .dwattr $C$DW$189, DW_AT_decl_column(0x05)
    1938                    
    1939                            .dwattr $C$DW$T$729, DW_AT_decl_file("C:\Users\Einstein\MyWorkspaceCC1350\collector_cc1350lp\A
    1940                            .dwattr $C$DW$T$729, DW_AT_decl_line(0x4be)
    1941                            .dwattr $C$DW$T$729, DW_AT_decl_column(0x01)
    1942                            .dwendtag $C$DW$T$729
    1943                    
    1944                    $C$DW$T$730     .dwtag  DW_TAG_typedef
    1945                            .dwattr $C$DW$T$730, DW_AT_name("ApiMac_fhDispatchType_t")
    1946                            .dwattr $C$DW$T$730, DW_AT_type(*$C$DW$T$729)
    1947                            .dwattr $C$DW$T$730, DW_AT_language(DW_LANG_C)
    1948                            .dwattr $C$DW$T$730, DW_AT_decl_file("C:\Users\Einstein\MyWorkspaceCC1350\collector_cc1350lp\A
    1949                            .dwattr $C$DW$T$730, DW_AT_decl_line(0x4c5)
    1950                            .dwattr $C$DW$T$730, DW_AT_decl_column(0x03)
    1951                    
    1952                    
    1953                    $C$DW$T$736     .dwtag  DW_TAG_enumeration_type
    1954                            .dwattr $C$DW$T$736, DW_AT_byte_size(0x01)
    1955                    $C$DW$190       .dwtag  DW_TAG_enumerator
    1956                            .dwattr $C$DW$190, DW_AT_name("ApiMac_assocStatus_success")
    1957                            .dwattr $C$DW$190, DW_AT_const_value(0x00)
    1958                            .dwattr $C$DW$190, DW_AT_decl_file("C:\Users\Einstein\MyWorkspaceCC1350\collector_cc1350lp\App
    1959                            .dwattr $C$DW$190, DW_AT_decl_line(0x19c)
    1960                            .dwattr $C$DW$190, DW_AT_decl_column(0x05)
    1961                    
    1962                    $C$DW$191       .dwtag  DW_TAG_enumerator
    1963                            .dwattr $C$DW$191, DW_AT_name("ApiMac_assocStatus_panAtCapacity")
    1964                            .dwattr $C$DW$191, DW_AT_const_value(0x01)
    1965                            .dwattr $C$DW$191, DW_AT_decl_file("C:\Users\Einstein\MyWorkspaceCC1350\collector_cc1350lp\App
    1966                            .dwattr $C$DW$191, DW_AT_decl_line(0x19e)
    1967                            .dwattr $C$DW$191, DW_AT_decl_column(0x05)
    1968                    
    1969                    $C$DW$192       .dwtag  DW_TAG_enumerator
    1970                            .dwattr $C$DW$192, DW_AT_name("ApiMac_assocStatus_panAccessDenied")
    1971                            .dwattr $C$DW$192, DW_AT_const_value(0x02)
    1972                            .dwattr $C$DW$192, DW_AT_decl_file("C:\Users\Einstein\MyWorkspaceCC1350\collector_cc1350lp\App
    1973                            .dwattr $C$DW$192, DW_AT_decl_line(0x1a0)
    1974                            .dwattr $C$DW$192, DW_AT_decl_column(0x05)
    1975                    
    1976                            .dwattr $C$DW$T$736, DW_AT_decl_file("C:\Users\Einstein\MyWorkspaceCC1350\collector_cc1350lp\A
    1977                            .dwattr $C$DW$T$736, DW_AT_decl_line(0x19a)
    1978                            .dwattr $C$DW$T$736, DW_AT_decl_column(0x01)
    1979                            .dwendtag $C$DW$T$736
    1980                    
TI ARM Assembler PC v16.9.8 Sat Nov 24 22:21:09 2018

Tools Copyright (c) 1996-2017 Texas Instruments Incorporated
C:\Users\Einstein\AppData\Local\Temp\{0ED9912E-F216-4B11-AF33-9BA1337BDC1F} PAGE   37

    1981                    $C$DW$T$737     .dwtag  DW_TAG_typedef
    1982                            .dwattr $C$DW$T$737, DW_AT_name("ApiMac_assocStatus_t")
    1983                            .dwattr $C$DW$T$737, DW_AT_type(*$C$DW$T$736)
    1984                            .dwattr $C$DW$T$737, DW_AT_language(DW_LANG_C)
    1985                            .dwattr $C$DW$T$737, DW_AT_decl_file("C:\Users\Einstein\MyWorkspaceCC1350\collector_cc1350lp\A
    1986                            .dwattr $C$DW$T$737, DW_AT_decl_line(0x1a1)
    1987                            .dwattr $C$DW$T$737, DW_AT_decl_column(0x03)
    1988                    
    1989                    
    1990                    $C$DW$T$741     .dwtag  DW_TAG_enumeration_type
    1991                            .dwattr $C$DW$T$741, DW_AT_byte_size(0x01)
    1992                    $C$DW$193       .dwtag  DW_TAG_enumerator
    1993                            .dwattr $C$DW$193, DW_AT_name("ApiMac_commStatusReason_assocRsp")
    1994                            .dwattr $C$DW$193, DW_AT_const_value(0x00)
    1995                            .dwattr $C$DW$193, DW_AT_decl_file("C:\Users\Einstein\MyWorkspaceCC1350\collector_cc1350lp\App
    1996                            .dwattr $C$DW$193, DW_AT_decl_line(0x1c8)
    1997                            .dwattr $C$DW$193, DW_AT_decl_column(0x05)
    1998                    
    1999                    $C$DW$194       .dwtag  DW_TAG_enumerator
    2000                            .dwattr $C$DW$194, DW_AT_name("ApiMac_commStatusReason_orphanRsp")
    2001                            .dwattr $C$DW$194, DW_AT_const_value(0x01)
    2002                            .dwattr $C$DW$194, DW_AT_decl_file("C:\Users\Einstein\MyWorkspaceCC1350\collector_cc1350lp\App
    2003                            .dwattr $C$DW$194, DW_AT_decl_line(0x1cc)
    2004                            .dwattr $C$DW$194, DW_AT_decl_column(0x05)
    2005                    
    2006                    $C$DW$195       .dwtag  DW_TAG_enumerator
    2007                            .dwattr $C$DW$195, DW_AT_name("ApiMac_commStatusReason_rxSecure")
    2008                            .dwattr $C$DW$195, DW_AT_const_value(0x02)
    2009                            .dwattr $C$DW$195, DW_AT_decl_file("C:\Users\Einstein\MyWorkspaceCC1350\collector_cc1350lp\App
    2010                            .dwattr $C$DW$195, DW_AT_decl_line(0x1d0)
    2011                            .dwattr $C$DW$195, DW_AT_decl_column(0x05)
    2012                    
    2013                            .dwattr $C$DW$T$741, DW_AT_decl_file("C:\Users\Einstein\MyWorkspaceCC1350\collector_cc1350lp\A
    2014                            .dwattr $C$DW$T$741, DW_AT_decl_line(0x1c4)
    2015                            .dwattr $C$DW$T$741, DW_AT_decl_column(0x01)
    2016                            .dwendtag $C$DW$T$741
    2017                    
    2018                    $C$DW$T$742     .dwtag  DW_TAG_typedef
    2019                            .dwattr $C$DW$T$742, DW_AT_name("ApiMac_commStatusReason_t")
    2020                            .dwattr $C$DW$T$742, DW_AT_type(*$C$DW$T$741)
    2021                            .dwattr $C$DW$T$742, DW_AT_language(DW_LANG_C)
    2022                            .dwattr $C$DW$T$742, DW_AT_decl_file("C:\Users\Einstein\MyWorkspaceCC1350\collector_cc1350lp\A
    2023                            .dwattr $C$DW$T$742, DW_AT_decl_line(0x1d1)
    2024                            .dwattr $C$DW$T$742, DW_AT_decl_column(0x03)
    2025                    
    2026                    
    2027                    $C$DW$T$745     .dwtag  DW_TAG_enumeration_type
    2028                            .dwattr $C$DW$T$745, DW_AT_byte_size(0x01)
    2029                    $C$DW$196       .dwtag  DW_TAG_enumerator
    2030                            .dwattr $C$DW$196, DW_AT_name("ApiMac_disassocateReason_coord")
    2031                            .dwattr $C$DW$196, DW_AT_const_value(0x01)
    2032                            .dwattr $C$DW$196, DW_AT_decl_file("C:\Users\Einstein\MyWorkspaceCC1350\collector_cc1350lp\App
    2033                            .dwattr $C$DW$196, DW_AT_decl_line(0x1bd)
    2034                            .dwattr $C$DW$196, DW_AT_decl_column(0x05)
    2035                    
TI ARM Assembler PC v16.9.8 Sat Nov 24 22:21:09 2018

Tools Copyright (c) 1996-2017 Texas Instruments Incorporated
C:\Users\Einstein\AppData\Local\Temp\{0ED9912E-F216-4B11-AF33-9BA1337BDC1F} PAGE   38

    2036                    $C$DW$197       .dwtag  DW_TAG_enumerator
    2037                            .dwattr $C$DW$197, DW_AT_name("ApiMac_disassocateReason_device")
    2038                            .dwattr $C$DW$197, DW_AT_const_value(0x02)
    2039                            .dwattr $C$DW$197, DW_AT_decl_file("C:\Users\Einstein\MyWorkspaceCC1350\collector_cc1350lp\App
    2040                            .dwattr $C$DW$197, DW_AT_decl_line(0x1bf)
    2041                            .dwattr $C$DW$197, DW_AT_decl_column(0x05)
    2042                    
    2043                            .dwattr $C$DW$T$745, DW_AT_decl_file("C:\Users\Einstein\MyWorkspaceCC1350\collector_cc1350lp\A
    2044                            .dwattr $C$DW$T$745, DW_AT_decl_line(0x1bb)
    2045                            .dwattr $C$DW$T$745, DW_AT_decl_column(0x01)
    2046                            .dwendtag $C$DW$T$745
    2047                    
    2048                    $C$DW$T$746     .dwtag  DW_TAG_typedef
    2049                            .dwattr $C$DW$T$746, DW_AT_name("ApiMac_disassocateReason_t")
    2050                            .dwattr $C$DW$T$746, DW_AT_type(*$C$DW$T$745)
    2051                            .dwattr $C$DW$T$746, DW_AT_language(DW_LANG_C)
    2052                            .dwattr $C$DW$T$746, DW_AT_decl_file("C:\Users\Einstein\MyWorkspaceCC1350\collector_cc1350lp\A
    2053                            .dwattr $C$DW$T$746, DW_AT_decl_line(0x1c0)
    2054                            .dwattr $C$DW$T$746, DW_AT_decl_column(0x03)
    2055                    
    2056                    
    2057                    $C$DW$T$754     .dwtag  DW_TAG_enumeration_type
    2058                            .dwattr $C$DW$T$754, DW_AT_byte_size(0x01)
    2059                    $C$DW$198       .dwtag  DW_TAG_enumerator
    2060                            .dwattr $C$DW$198, DW_AT_name("ApiMac_scantype_energyDetect")
    2061                            .dwattr $C$DW$198, DW_AT_const_value(0x00)
    2062                            .dwattr $C$DW$198, DW_AT_decl_file("C:\Users\Einstein\MyWorkspaceCC1350\collector_cc1350lp\App
    2063                            .dwattr $C$DW$198, DW_AT_decl_line(0x48c)
    2064                            .dwattr $C$DW$198, DW_AT_decl_column(0x05)
    2065                    
    2066                    $C$DW$199       .dwtag  DW_TAG_enumerator
    2067                            .dwattr $C$DW$199, DW_AT_name("ApiMac_scantype_active")
    2068                            .dwattr $C$DW$199, DW_AT_const_value(0x01)
    2069                            .dwattr $C$DW$199, DW_AT_decl_file("C:\Users\Einstein\MyWorkspaceCC1350\collector_cc1350lp\App
    2070                            .dwattr $C$DW$199, DW_AT_decl_line(0x492)
    2071                            .dwattr $C$DW$199, DW_AT_decl_column(0x05)
    2072                    
    2073                    $C$DW$200       .dwtag  DW_TAG_enumerator
    2074                            .dwattr $C$DW$200, DW_AT_name("ApiMac_scantype_passive")
    2075                            .dwattr $C$DW$200, DW_AT_const_value(0x02)
    2076                            .dwattr $C$DW$200, DW_AT_decl_file("C:\Users\Einstein\MyWorkspaceCC1350\collector_cc1350lp\App
    2077                            .dwattr $C$DW$200, DW_AT_decl_line(0x497)
    2078                            .dwattr $C$DW$200, DW_AT_decl_column(0x05)
    2079                    
    2080                    $C$DW$201       .dwtag  DW_TAG_enumerator
    2081                            .dwattr $C$DW$201, DW_AT_name("ApiMac_scantype_orphan")
    2082                            .dwattr $C$DW$201, DW_AT_const_value(0x03)
    2083                            .dwattr $C$DW$201, DW_AT_decl_file("C:\Users\Einstein\MyWorkspaceCC1350\collector_cc1350lp\App
    2084                            .dwattr $C$DW$201, DW_AT_decl_line(0x49d)
    2085                            .dwattr $C$DW$201, DW_AT_decl_column(0x05)
    2086                    
    2087                    $C$DW$202       .dwtag  DW_TAG_enumerator
    2088                            .dwattr $C$DW$202, DW_AT_name("ApiMac_scantype_activeEnhanced")
    2089                            .dwattr $C$DW$202, DW_AT_const_value(0x05)
    2090                            .dwattr $C$DW$202, DW_AT_decl_file("C:\Users\Einstein\MyWorkspaceCC1350\collector_cc1350lp\App
TI ARM Assembler PC v16.9.8 Sat Nov 24 22:21:09 2018

Tools Copyright (c) 1996-2017 Texas Instruments Incorporated
C:\Users\Einstein\AppData\Local\Temp\{0ED9912E-F216-4B11-AF33-9BA1337BDC1F} PAGE   39

    2091                            .dwattr $C$DW$202, DW_AT_decl_line(0x4a3)
    2092                            .dwattr $C$DW$202, DW_AT_decl_column(0x05)
    2093                    
    2094                            .dwattr $C$DW$T$754, DW_AT_decl_file("C:\Users\Einstein\MyWorkspaceCC1350\collector_cc1350lp\A
    2095                            .dwattr $C$DW$T$754, DW_AT_decl_line(0x486)
    2096                            .dwattr $C$DW$T$754, DW_AT_decl_column(0x01)
    2097                            .dwendtag $C$DW$T$754
    2098                    
    2099                    $C$DW$T$755     .dwtag  DW_TAG_typedef
    2100                            .dwattr $C$DW$T$755, DW_AT_name("ApiMac_scantype_t")
    2101                            .dwattr $C$DW$T$755, DW_AT_type(*$C$DW$T$754)
    2102                            .dwattr $C$DW$T$755, DW_AT_language(DW_LANG_C)
    2103                            .dwattr $C$DW$T$755, DW_AT_decl_file("C:\Users\Einstein\MyWorkspaceCC1350\collector_cc1350lp\A
    2104                            .dwattr $C$DW$T$755, DW_AT_decl_line(0x4a4)
    2105                            .dwattr $C$DW$T$755, DW_AT_decl_column(0x03)
    2106                    
    2107                    
    2108                    $C$DW$T$765     .dwtag  DW_TAG_enumeration_type
    2109                            .dwattr $C$DW$T$765, DW_AT_byte_size(0x01)
    2110                    $C$DW$203       .dwtag  DW_TAG_enumerator
    2111                            .dwattr $C$DW$203, DW_AT_name("ApiMac_wisunAsycnOperation_start")
    2112                            .dwattr $C$DW$203, DW_AT_const_value(0x00)
    2113                            .dwattr $C$DW$203, DW_AT_decl_file("C:\Users\Einstein\MyWorkspaceCC1350\collector_cc1350lp\App
    2114                            .dwattr $C$DW$203, DW_AT_decl_line(0x4aa)
    2115                            .dwattr $C$DW$203, DW_AT_decl_column(0x05)
    2116                    
    2117                    $C$DW$204       .dwtag  DW_TAG_enumerator
    2118                            .dwattr $C$DW$204, DW_AT_name("ApiMac_wisunAsycnOperation_stop")
    2119                            .dwattr $C$DW$204, DW_AT_const_value(0x01)
    2120                            .dwattr $C$DW$204, DW_AT_decl_file("C:\Users\Einstein\MyWorkspaceCC1350\collector_cc1350lp\App
    2121                            .dwattr $C$DW$204, DW_AT_decl_line(0x4ac)
    2122                            .dwattr $C$DW$204, DW_AT_decl_column(0x05)
    2123                    
    2124                            .dwattr $C$DW$T$765, DW_AT_decl_file("C:\Users\Einstein\MyWorkspaceCC1350\collector_cc1350lp\A
    2125                            .dwattr $C$DW$T$765, DW_AT_decl_line(0x4a8)
    2126                            .dwattr $C$DW$T$765, DW_AT_decl_column(0x01)
    2127                            .dwendtag $C$DW$T$765
    2128                    
    2129                    $C$DW$T$766     .dwtag  DW_TAG_typedef
    2130                            .dwattr $C$DW$T$766, DW_AT_name("ApiMac_wisunAsycnOperation_t")
    2131                            .dwattr $C$DW$T$766, DW_AT_type(*$C$DW$T$765)
    2132                            .dwattr $C$DW$T$766, DW_AT_language(DW_LANG_C)
    2133                            .dwattr $C$DW$T$766, DW_AT_decl_file("C:\Users\Einstein\MyWorkspaceCC1350\collector_cc1350lp\A
    2134                            .dwattr $C$DW$T$766, DW_AT_decl_line(0x4ad)
    2135                            .dwattr $C$DW$T$766, DW_AT_decl_column(0x03)
    2136                    
    2137                    
    2138                    $C$DW$T$767     .dwtag  DW_TAG_enumeration_type
    2139                            .dwattr $C$DW$T$767, DW_AT_byte_size(0x01)
    2140                    $C$DW$205       .dwtag  DW_TAG_enumerator
    2141                            .dwattr $C$DW$205, DW_AT_name("ApiMac_wisunAsyncFrame_advertisement")
    2142                            .dwattr $C$DW$205, DW_AT_const_value(0x00)
    2143                            .dwattr $C$DW$205, DW_AT_decl_file("C:\Users\Einstein\MyWorkspaceCC1350\collector_cc1350lp\App
    2144                            .dwattr $C$DW$205, DW_AT_decl_line(0x4b3)
    2145                            .dwattr $C$DW$205, DW_AT_decl_column(0x05)
TI ARM Assembler PC v16.9.8 Sat Nov 24 22:21:09 2018

Tools Copyright (c) 1996-2017 Texas Instruments Incorporated
C:\Users\Einstein\AppData\Local\Temp\{0ED9912E-F216-4B11-AF33-9BA1337BDC1F} PAGE   40

    2146                    
    2147                    $C$DW$206       .dwtag  DW_TAG_enumerator
    2148                            .dwattr $C$DW$206, DW_AT_name("ApiMac_wisunAsyncFrame_advertisementSolicit")
    2149                            .dwattr $C$DW$206, DW_AT_const_value(0x01)
    2150                            .dwattr $C$DW$206, DW_AT_decl_file("C:\Users\Einstein\MyWorkspaceCC1350\collector_cc1350lp\App
    2151                            .dwattr $C$DW$206, DW_AT_decl_line(0x4b5)
    2152                            .dwattr $C$DW$206, DW_AT_decl_column(0x05)
    2153                    
    2154                    $C$DW$207       .dwtag  DW_TAG_enumerator
    2155                            .dwattr $C$DW$207, DW_AT_name("ApiMac_wisunAsyncFrame_config")
    2156                            .dwattr $C$DW$207, DW_AT_const_value(0x02)
    2157                            .dwattr $C$DW$207, DW_AT_decl_file("C:\Users\Einstein\MyWorkspaceCC1350\collector_cc1350lp\App
    2158                            .dwattr $C$DW$207, DW_AT_decl_line(0x4b7)
    2159                            .dwattr $C$DW$207, DW_AT_decl_column(0x05)
    2160                    
    2161                    $C$DW$208       .dwtag  DW_TAG_enumerator
    2162                            .dwattr $C$DW$208, DW_AT_name("ApiMac_wisunAsyncFrame_configSolicit")
    2163                            .dwattr $C$DW$208, DW_AT_const_value(0x03)
    2164                            .dwattr $C$DW$208, DW_AT_decl_file("C:\Users\Einstein\MyWorkspaceCC1350\collector_cc1350lp\App
    2165                            .dwattr $C$DW$208, DW_AT_decl_line(0x4b9)
    2166                            .dwattr $C$DW$208, DW_AT_decl_column(0x05)
    2167                    
    2168                            .dwattr $C$DW$T$767, DW_AT_decl_file("C:\Users\Einstein\MyWorkspaceCC1350\collector_cc1350lp\A
    2169                            .dwattr $C$DW$T$767, DW_AT_decl_line(0x4b1)
    2170                            .dwattr $C$DW$T$767, DW_AT_decl_column(0x01)
    2171                            .dwendtag $C$DW$T$767
    2172                    
    2173                    $C$DW$T$768     .dwtag  DW_TAG_typedef
    2174                            .dwattr $C$DW$T$768, DW_AT_name("ApiMac_wisunAsyncFrame_t")
    2175                            .dwattr $C$DW$T$768, DW_AT_type(*$C$DW$T$767)
    2176                            .dwattr $C$DW$T$768, DW_AT_language(DW_LANG_C)
    2177                            .dwattr $C$DW$T$768, DW_AT_decl_file("C:\Users\Einstein\MyWorkspaceCC1350\collector_cc1350lp\A
    2178                            .dwattr $C$DW$T$768, DW_AT_decl_line(0x4ba)
    2179                            .dwattr $C$DW$T$768, DW_AT_decl_column(0x03)
    2180                    
    2181                    
    2182                    $C$DW$T$991     .dwtag  DW_TAG_enumeration_type
    2183                            .dwattr $C$DW$T$991, DW_AT_byte_size(0x01)
    2184                    $C$DW$209       .dwtag  DW_TAG_enumerator
    2185                            .dwattr $C$DW$209, DW_AT_name("HWREV_Unknown")
    2186                            .dwattr $C$DW$209, DW_AT_const_value(-1)
    2187                            .dwattr $C$DW$209, DW_AT_decl_file("C:/ti/simplelink_cc13x0_sdk_2_30_00_20/source/ti/devices/c
    2188                            .dwattr $C$DW$209, DW_AT_decl_line(0x1df)
    2189                            .dwattr $C$DW$209, DW_AT_decl_column(0x04)
    2190                    
    2191                    $C$DW$210       .dwtag  DW_TAG_enumerator
    2192                            .dwattr $C$DW$210, DW_AT_name("HWREV_1_0")
    2193                            .dwattr $C$DW$210, DW_AT_const_value(0x0a)
    2194                            .dwattr $C$DW$210, DW_AT_decl_file("C:/ti/simplelink_cc13x0_sdk_2_30_00_20/source/ti/devices/c
    2195                            .dwattr $C$DW$210, DW_AT_decl_line(0x1e0)
    2196                            .dwattr $C$DW$210, DW_AT_decl_column(0x04)
    2197                    
    2198                    $C$DW$211       .dwtag  DW_TAG_enumerator
    2199                            .dwattr $C$DW$211, DW_AT_name("HWREV_1_1")
    2200                            .dwattr $C$DW$211, DW_AT_const_value(0x0b)
TI ARM Assembler PC v16.9.8 Sat Nov 24 22:21:09 2018

Tools Copyright (c) 1996-2017 Texas Instruments Incorporated
C:\Users\Einstein\AppData\Local\Temp\{0ED9912E-F216-4B11-AF33-9BA1337BDC1F} PAGE   41

    2201                            .dwattr $C$DW$211, DW_AT_decl_file("C:/ti/simplelink_cc13x0_sdk_2_30_00_20/source/ti/devices/c
    2202                            .dwattr $C$DW$211, DW_AT_decl_line(0x1e1)
    2203                            .dwattr $C$DW$211, DW_AT_decl_column(0x04)
    2204                    
    2205                    $C$DW$212       .dwtag  DW_TAG_enumerator
    2206                            .dwattr $C$DW$212, DW_AT_name("HWREV_2_0")
    2207                            .dwattr $C$DW$212, DW_AT_const_value(0x14)
    2208                            .dwattr $C$DW$212, DW_AT_decl_file("C:/ti/simplelink_cc13x0_sdk_2_30_00_20/source/ti/devices/c
    2209                            .dwattr $C$DW$212, DW_AT_decl_line(0x1e2)
    2210                            .dwattr $C$DW$212, DW_AT_decl_column(0x04)
    2211                    
    2212                    $C$DW$213       .dwtag  DW_TAG_enumerator
    2213                            .dwattr $C$DW$213, DW_AT_name("HWREV_2_1")
    2214                            .dwattr $C$DW$213, DW_AT_const_value(0x15)
    2215                            .dwattr $C$DW$213, DW_AT_decl_file("C:/ti/simplelink_cc13x0_sdk_2_30_00_20/source/ti/devices/c
    2216                            .dwattr $C$DW$213, DW_AT_decl_line(0x1e3)
    2217                            .dwattr $C$DW$213, DW_AT_decl_column(0x04)
    2218                    
    2219                    $C$DW$214       .dwtag  DW_TAG_enumerator
    2220                            .dwattr $C$DW$214, DW_AT_name("HWREV_2_2")
    2221                            .dwattr $C$DW$214, DW_AT_const_value(0x16)
    2222                            .dwattr $C$DW$214, DW_AT_decl_file("C:/ti/simplelink_cc13x0_sdk_2_30_00_20/source/ti/devices/c
    2223                            .dwattr $C$DW$214, DW_AT_decl_line(0x1e4)
    2224                            .dwattr $C$DW$214, DW_AT_decl_column(0x04)
    2225                    
    2226                    $C$DW$215       .dwtag  DW_TAG_enumerator
    2227                            .dwattr $C$DW$215, DW_AT_name("HWREV_2_3")
    2228                            .dwattr $C$DW$215, DW_AT_const_value(0x17)
    2229                            .dwattr $C$DW$215, DW_AT_decl_file("C:/ti/simplelink_cc13x0_sdk_2_30_00_20/source/ti/devices/c
    2230                            .dwattr $C$DW$215, DW_AT_decl_line(0x1e5)
    2231                            .dwattr $C$DW$215, DW_AT_decl_column(0x04)
    2232                    
    2233                    $C$DW$216       .dwtag  DW_TAG_enumerator
    2234                            .dwattr $C$DW$216, DW_AT_name("HWREV_2_4")
    2235                            .dwattr $C$DW$216, DW_AT_const_value(0x18)
    2236                            .dwattr $C$DW$216, DW_AT_decl_file("C:/ti/simplelink_cc13x0_sdk_2_30_00_20/source/ti/devices/c
    2237                            .dwattr $C$DW$216, DW_AT_decl_line(0x1e6)
    2238                            .dwattr $C$DW$216, DW_AT_decl_column(0x04)
    2239                    
    2240                            .dwattr $C$DW$T$991, DW_AT_decl_file("C:/ti/simplelink_cc13x0_sdk_2_30_00_20/source/ti/devices
    2241                            .dwattr $C$DW$T$991, DW_AT_decl_line(0x1de)
    2242                            .dwattr $C$DW$T$991, DW_AT_decl_column(0x0e)
    2243                            .dwendtag $C$DW$T$991
    2244                    
    2245                    $C$DW$T$992     .dwtag  DW_TAG_typedef
    2246                            .dwattr $C$DW$T$992, DW_AT_name("HwRevision_t")
    2247                            .dwattr $C$DW$T$992, DW_AT_type(*$C$DW$T$991)
    2248                            .dwattr $C$DW$T$992, DW_AT_language(DW_LANG_C)
    2249                            .dwattr $C$DW$T$992, DW_AT_decl_file("C:/ti/simplelink_cc13x0_sdk_2_30_00_20/source/ti/devices
    2250                            .dwattr $C$DW$T$992, DW_AT_decl_line(0x1e7)
    2251                            .dwattr $C$DW$T$992, DW_AT_decl_column(0x03)
    2252                    
    2253                    
    2254                    $C$DW$T$995     .dwtag  DW_TAG_enumeration_type
    2255                            .dwattr $C$DW$T$995, DW_AT_byte_size(0x01)
TI ARM Assembler PC v16.9.8 Sat Nov 24 22:21:09 2018

Tools Copyright (c) 1996-2017 Texas Instruments Incorporated
C:\Users\Einstein\AppData\Local\Temp\{0ED9912E-F216-4B11-AF33-9BA1337BDC1F} PAGE   42

    2256                    $C$DW$217       .dwtag  DW_TAG_enumerator
    2257                            .dwattr $C$DW$217, DW_AT_name("ICALL_RTI_APP_CMD_EVENT")
    2258                            .dwattr $C$DW$217, DW_AT_const_value(0xe0)
    2259                            .dwattr $C$DW$217, DW_AT_decl_file("C:/ti/simplelink_cc13x0_sdk_2_30_00_20/source/ti/ti154stac
    2260                            .dwattr $C$DW$217, DW_AT_decl_line(0x3de)
    2261                            .dwattr $C$DW$217, DW_AT_decl_column(0x04)
    2262                    
    2263                    $C$DW$218       .dwtag  DW_TAG_enumerator
    2264                            .dwattr $C$DW$218, DW_AT_name("ICALL_RTI_STACK_CMD_EVENT")
    2265                            .dwattr $C$DW$218, DW_AT_const_value(0xe1)
    2266                            .dwattr $C$DW$218, DW_AT_decl_file("C:/ti/simplelink_cc13x0_sdk_2_30_00_20/source/ti/ti154stac
    2267                            .dwattr $C$DW$218, DW_AT_decl_line(0x3e0)
    2268                            .dwattr $C$DW$218, DW_AT_decl_column(0x04)
    2269                    
    2270                    $C$DW$219       .dwtag  DW_TAG_enumerator
    2271                            .dwattr $C$DW$219, DW_AT_name("ICALL_RTI_APP_ASYNC_CMD_EVENT")
    2272                            .dwattr $C$DW$219, DW_AT_const_value(0xe2)
    2273                            .dwattr $C$DW$219, DW_AT_decl_file("C:/ti/simplelink_cc13x0_sdk_2_30_00_20/source/ti/ti154stac
    2274                            .dwattr $C$DW$219, DW_AT_decl_line(0x3e2)
    2275                            .dwattr $C$DW$219, DW_AT_decl_column(0x04)
    2276                    
    2277                    $C$DW$220       .dwtag  DW_TAG_enumerator
    2278                            .dwattr $C$DW$220, DW_AT_name("ICALL_RTI_APP_SYNC_CMD_EVENT")
    2279                            .dwattr $C$DW$220, DW_AT_const_value(0xe3)
    2280                            .dwattr $C$DW$220, DW_AT_decl_file("C:/ti/simplelink_cc13x0_sdk_2_30_00_20/source/ti/ti154stac
    2281                            .dwattr $C$DW$220, DW_AT_decl_line(0x3e4)
    2282                            .dwattr $C$DW$220, DW_AT_decl_column(0x04)
    2283                    
    2284                    $C$DW$221       .dwtag  DW_TAG_enumerator
    2285                            .dwattr $C$DW$221, DW_AT_name("ICALL_RCN_APP_ASYNC_CMD_EVENT")
    2286                            .dwattr $C$DW$221, DW_AT_const_value(0xe4)
    2287                            .dwattr $C$DW$221, DW_AT_decl_file("C:/ti/simplelink_cc13x0_sdk_2_30_00_20/source/ti/ti154stac
    2288                            .dwattr $C$DW$221, DW_AT_decl_line(0x3e6)
    2289                            .dwattr $C$DW$221, DW_AT_decl_column(0x04)
    2290                    
    2291                    $C$DW$222       .dwtag  DW_TAG_enumerator
    2292                            .dwattr $C$DW$222, DW_AT_name("ICALL_RCN_APP_SYNC_CMD_EVENT")
    2293                            .dwattr $C$DW$222, DW_AT_const_value(0xe5)
    2294                            .dwattr $C$DW$222, DW_AT_decl_file("C:/ti/simplelink_cc13x0_sdk_2_30_00_20/source/ti/ti154stac
    2295                            .dwattr $C$DW$222, DW_AT_decl_line(0x3e8)
    2296                            .dwattr $C$DW$222, DW_AT_decl_column(0x04)
    2297                    
    2298                            .dwattr $C$DW$T$995, DW_AT_decl_file("C:/ti/simplelink_cc13x0_sdk_2_30_00_20/source/ti/ti154st
    2299                            .dwattr $C$DW$T$995, DW_AT_decl_line(0x3dc)
    2300                            .dwattr $C$DW$T$995, DW_AT_decl_column(0x01)
    2301                            .dwendtag $C$DW$T$995
    2302                    
    2303                    $C$DW$T$996     .dwtag  DW_TAG_typedef
    2304                            .dwattr $C$DW$T$996, DW_AT_name("ICall_RemotiCmdEvent_t")
    2305                            .dwattr $C$DW$T$996, DW_AT_type(*$C$DW$T$995)
    2306                            .dwattr $C$DW$T$996, DW_AT_language(DW_LANG_C)
    2307                            .dwattr $C$DW$T$996, DW_AT_decl_file("C:/ti/simplelink_cc13x0_sdk_2_30_00_20/source/ti/ti154st
    2308                            .dwattr $C$DW$T$996, DW_AT_decl_line(0x3e9)
    2309                            .dwattr $C$DW$T$996, DW_AT_decl_column(0x02)
    2310                    
TI ARM Assembler PC v16.9.8 Sat Nov 24 22:21:09 2018

Tools Copyright (c) 1996-2017 Texas Instruments Incorporated
C:\Users\Einstein\AppData\Local\Temp\{0ED9912E-F216-4B11-AF33-9BA1337BDC1F} PAGE   43

    2311                    
    2312                    $C$DW$T$997     .dwtag  DW_TAG_enumeration_type
    2313                            .dwattr $C$DW$T$997, DW_AT_byte_size(0x01)
    2314                    $C$DW$223       .dwtag  DW_TAG_enumerator
    2315                            .dwattr $C$DW$223, DW_AT_name("AddrNotPresent")
    2316                            .dwattr $C$DW$223, DW_AT_const_value(0x00)
    2317                            .dwattr $C$DW$223, DW_AT_decl_file("C:/ti/simplelink_cc13x0_sdk_2_30_00_20/source/ti/ti154stac
    2318                            .dwattr $C$DW$223, DW_AT_decl_line(0x128)
    2319                            .dwattr $C$DW$223, DW_AT_decl_column(0x03)
    2320                    
    2321                    $C$DW$224       .dwtag  DW_TAG_enumerator
    2322                            .dwattr $C$DW$224, DW_AT_name("AddrGroup")
    2323                            .dwattr $C$DW$224, DW_AT_const_value(0x01)
    2324                            .dwattr $C$DW$224, DW_AT_decl_file("C:/ti/simplelink_cc13x0_sdk_2_30_00_20/source/ti/ti154stac
    2325                            .dwattr $C$DW$224, DW_AT_decl_line(0x129)
    2326                            .dwattr $C$DW$224, DW_AT_decl_column(0x03)
    2327                    
    2328                    $C$DW$225       .dwtag  DW_TAG_enumerator
    2329                            .dwattr $C$DW$225, DW_AT_name("Addr16Bit")
    2330                            .dwattr $C$DW$225, DW_AT_const_value(0x02)
    2331                            .dwattr $C$DW$225, DW_AT_decl_file("C:/ti/simplelink_cc13x0_sdk_2_30_00_20/source/ti/ti154stac
    2332                            .dwattr $C$DW$225, DW_AT_decl_line(0x12a)
    2333                            .dwattr $C$DW$225, DW_AT_decl_column(0x03)
    2334                    
    2335                    $C$DW$226       .dwtag  DW_TAG_enumerator
    2336                            .dwattr $C$DW$226, DW_AT_name("Addr64Bit")
    2337                            .dwattr $C$DW$226, DW_AT_const_value(0x03)
    2338                            .dwattr $C$DW$226, DW_AT_decl_file("C:/ti/simplelink_cc13x0_sdk_2_30_00_20/source/ti/ti154stac
    2339                            .dwattr $C$DW$226, DW_AT_decl_line(0x12b)
    2340                            .dwattr $C$DW$226, DW_AT_decl_column(0x03)
    2341                    
    2342                    $C$DW$227       .dwtag  DW_TAG_enumerator
    2343                            .dwattr $C$DW$227, DW_AT_name("AddrBroadcast")
    2344                            .dwattr $C$DW$227, DW_AT_const_value(0x0f)
    2345                            .dwattr $C$DW$227, DW_AT_decl_file("C:/ti/simplelink_cc13x0_sdk_2_30_00_20/source/ti/ti154stac
    2346                            .dwattr $C$DW$227, DW_AT_decl_line(0x12c)
    2347                            .dwattr $C$DW$227, DW_AT_decl_column(0x03)
    2348                    
    2349                            .dwattr $C$DW$T$997, DW_AT_decl_file("C:/ti/simplelink_cc13x0_sdk_2_30_00_20/source/ti/ti154st
    2350                            .dwattr $C$DW$T$997, DW_AT_decl_line(0x127)
    2351                            .dwattr $C$DW$T$997, DW_AT_decl_column(0x01)
    2352                            .dwendtag $C$DW$T$997
    2353                    
    2354                    
    2355                    $C$DW$T$998     .dwtag  DW_TAG_enumeration_type
    2356                            .dwattr $C$DW$T$998, DW_AT_byte_size(0x01)
    2357                    $C$DW$228       .dwtag  DW_TAG_enumerator
    2358                            .dwattr $C$DW$228, DW_AT_name("PIN_SUCCESS")
    2359                            .dwattr $C$DW$228, DW_AT_const_value(0x00)
    2360                            .dwattr $C$DW$228, DW_AT_decl_file("C:/ti/simplelink_cc13x0_sdk_2_30_00_20/source/ti/drivers/P
    2361                            .dwattr $C$DW$228, DW_AT_decl_line(0x2cd)
    2362                            .dwattr $C$DW$228, DW_AT_decl_column(0x05)
    2363                    
    2364                    $C$DW$229       .dwtag  DW_TAG_enumerator
    2365                            .dwattr $C$DW$229, DW_AT_name("PIN_ALREADY_ALLOCATED")
TI ARM Assembler PC v16.9.8 Sat Nov 24 22:21:09 2018

Tools Copyright (c) 1996-2017 Texas Instruments Incorporated
C:\Users\Einstein\AppData\Local\Temp\{0ED9912E-F216-4B11-AF33-9BA1337BDC1F} PAGE   44

    2366                            .dwattr $C$DW$229, DW_AT_const_value(0x01)
    2367                            .dwattr $C$DW$229, DW_AT_decl_file("C:/ti/simplelink_cc13x0_sdk_2_30_00_20/source/ti/drivers/P
    2368                            .dwattr $C$DW$229, DW_AT_decl_line(0x2ce)
    2369                            .dwattr $C$DW$229, DW_AT_decl_column(0x05)
    2370                    
    2371                    $C$DW$230       .dwtag  DW_TAG_enumerator
    2372                            .dwattr $C$DW$230, DW_AT_name("PIN_NO_ACCESS")
    2373                            .dwattr $C$DW$230, DW_AT_const_value(0x02)
    2374                            .dwattr $C$DW$230, DW_AT_decl_file("C:/ti/simplelink_cc13x0_sdk_2_30_00_20/source/ti/drivers/P
    2375                            .dwattr $C$DW$230, DW_AT_decl_line(0x2cf)
    2376                            .dwattr $C$DW$230, DW_AT_decl_column(0x05)
    2377                    
    2378                    $C$DW$231       .dwtag  DW_TAG_enumerator
    2379                            .dwattr $C$DW$231, DW_AT_name("PIN_UNSUPPORTED")
    2380                            .dwattr $C$DW$231, DW_AT_const_value(0x03)
    2381                            .dwattr $C$DW$231, DW_AT_decl_file("C:/ti/simplelink_cc13x0_sdk_2_30_00_20/source/ti/drivers/P
    2382                            .dwattr $C$DW$231, DW_AT_decl_line(0x2d0)
    2383                            .dwattr $C$DW$231, DW_AT_decl_column(0x05)
    2384                    
    2385                            .dwattr $C$DW$T$998, DW_AT_decl_file("C:/ti/simplelink_cc13x0_sdk_2_30_00_20/source/ti/drivers
    2386                            .dwattr $C$DW$T$998, DW_AT_decl_line(0x2cc)
    2387                            .dwattr $C$DW$T$998, DW_AT_decl_column(0x0e)
    2388                            .dwendtag $C$DW$T$998
    2389                    
    2390                    $C$DW$T$999     .dwtag  DW_TAG_typedef
    2391                            .dwattr $C$DW$T$999, DW_AT_name("PIN_Status")
    2392                            .dwattr $C$DW$T$999, DW_AT_type(*$C$DW$T$998)
    2393                            .dwattr $C$DW$T$999, DW_AT_language(DW_LANG_C)
    2394                            .dwattr $C$DW$T$999, DW_AT_decl_file("C:/ti/simplelink_cc13x0_sdk_2_30_00_20/source/ti/drivers
    2395                            .dwattr $C$DW$T$999, DW_AT_decl_line(0x2d1)
    2396                            .dwattr $C$DW$T$999, DW_AT_decl_column(0x03)
    2397                    
    2398                    
    2399                    $C$DW$T$1000    .dwtag  DW_TAG_enumeration_type
    2400                            .dwattr $C$DW$T$1000, DW_AT_byte_size(0x01)
    2401                    $C$DW$232       .dwtag  DW_TAG_enumerator
    2402                            .dwattr $C$DW$232, DW_AT_name("PROTOCOL_Unknown")
    2403                            .dwattr $C$DW$232, DW_AT_const_value(0x00)
    2404                            .dwattr $C$DW$232, DW_AT_decl_file("C:/ti/simplelink_cc13x0_sdk_2_30_00_20/source/ti/devices/c
    2405                            .dwattr $C$DW$232, DW_AT_decl_line(0x64)
    2406                            .dwattr $C$DW$232, DW_AT_decl_column(0x04)
    2407                    
    2408                    $C$DW$233       .dwtag  DW_TAG_enumerator
    2409                            .dwattr $C$DW$233, DW_AT_name("PROTOCOLBIT_BLE")
    2410                            .dwattr $C$DW$233, DW_AT_const_value(0x02)
    2411                            .dwattr $C$DW$233, DW_AT_decl_file("C:/ti/simplelink_cc13x0_sdk_2_30_00_20/source/ti/devices/c
    2412                            .dwattr $C$DW$233, DW_AT_decl_line(0x65)
    2413                            .dwattr $C$DW$233, DW_AT_decl_column(0x04)
    2414                    
    2415                    $C$DW$234       .dwtag  DW_TAG_enumerator
    2416                            .dwattr $C$DW$234, DW_AT_name("PROTOCOLBIT_IEEE_802_15_4")
    2417                            .dwattr $C$DW$234, DW_AT_const_value(0x04)
    2418                            .dwattr $C$DW$234, DW_AT_decl_file("C:/ti/simplelink_cc13x0_sdk_2_30_00_20/source/ti/devices/c
    2419                            .dwattr $C$DW$234, DW_AT_decl_line(0x66)
    2420                            .dwattr $C$DW$234, DW_AT_decl_column(0x04)
TI ARM Assembler PC v16.9.8 Sat Nov 24 22:21:09 2018

Tools Copyright (c) 1996-2017 Texas Instruments Incorporated
C:\Users\Einstein\AppData\Local\Temp\{0ED9912E-F216-4B11-AF33-9BA1337BDC1F} PAGE   45

    2421                    
    2422                    $C$DW$235       .dwtag  DW_TAG_enumerator
    2423                            .dwattr $C$DW$235, DW_AT_name("PROTOCOLBIT_Proprietary")
    2424                            .dwattr $C$DW$235, DW_AT_const_value(0x08)
    2425                            .dwattr $C$DW$235, DW_AT_decl_file("C:/ti/simplelink_cc13x0_sdk_2_30_00_20/source/ti/devices/c
    2426                            .dwattr $C$DW$235, DW_AT_decl_line(0x67)
    2427                            .dwattr $C$DW$235, DW_AT_decl_column(0x04)
    2428                    
    2429                            .dwattr $C$DW$T$1000, DW_AT_decl_file("C:/ti/simplelink_cc13x0_sdk_2_30_00_20/source/ti/device
    2430                            .dwattr $C$DW$T$1000, DW_AT_decl_line(0x63)
    2431                            .dwattr $C$DW$T$1000, DW_AT_decl_column(0x0e)
    2432                            .dwendtag $C$DW$T$1000
    2433                    
    2434                    $C$DW$T$1001    .dwtag  DW_TAG_typedef
    2435                            .dwattr $C$DW$T$1001, DW_AT_name("ProtocolBitVector_t")
    2436                            .dwattr $C$DW$T$1001, DW_AT_type(*$C$DW$T$1000)
    2437                            .dwattr $C$DW$T$1001, DW_AT_language(DW_LANG_C)
    2438                            .dwattr $C$DW$T$1001, DW_AT_decl_file("C:/ti/simplelink_cc13x0_sdk_2_30_00_20/source/ti/device
    2439                            .dwattr $C$DW$T$1001, DW_AT_decl_line(0x68)
    2440                            .dwattr $C$DW$T$1001, DW_AT_decl_column(0x03)
    2441                    
    2442                    
    2443                    $C$DW$T$1002    .dwtag  DW_TAG_enumeration_type
    2444                            .dwattr $C$DW$T$1002, DW_AT_byte_size(0x01)
    2445                    $C$DW$236       .dwtag  DW_TAG_enumerator
    2446                            .dwattr $C$DW$236, DW_AT_name("PACKAGE_Unknown")
    2447                            .dwattr $C$DW$236, DW_AT_const_value(-1)
    2448                            .dwattr $C$DW$236, DW_AT_decl_file("C:/ti/simplelink_cc13x0_sdk_2_30_00_20/source/ti/devices/c
    2449                            .dwattr $C$DW$236, DW_AT_decl_line(0xa7)
    2450                            .dwattr $C$DW$236, DW_AT_decl_column(0x04)
    2451                    
    2452                    $C$DW$237       .dwtag  DW_TAG_enumerator
    2453                            .dwattr $C$DW$237, DW_AT_name("PACKAGE_4x4")
    2454                            .dwattr $C$DW$237, DW_AT_const_value(0x00)
    2455                            .dwattr $C$DW$237, DW_AT_decl_file("C:/ti/simplelink_cc13x0_sdk_2_30_00_20/source/ti/devices/c
    2456                            .dwattr $C$DW$237, DW_AT_decl_line(0xa8)
    2457                            .dwattr $C$DW$237, DW_AT_decl_column(0x04)
    2458                    
    2459                    $C$DW$238       .dwtag  DW_TAG_enumerator
    2460                            .dwattr $C$DW$238, DW_AT_name("PACKAGE_5x5")
    2461                            .dwattr $C$DW$238, DW_AT_const_value(0x01)
    2462                            .dwattr $C$DW$238, DW_AT_decl_file("C:/ti/simplelink_cc13x0_sdk_2_30_00_20/source/ti/devices/c
    2463                            .dwattr $C$DW$238, DW_AT_decl_line(0xa9)
    2464                            .dwattr $C$DW$238, DW_AT_decl_column(0x04)
    2465                    
    2466                    $C$DW$239       .dwtag  DW_TAG_enumerator
    2467                            .dwattr $C$DW$239, DW_AT_name("PACKAGE_7x7")
    2468                            .dwattr $C$DW$239, DW_AT_const_value(0x02)
    2469                            .dwattr $C$DW$239, DW_AT_decl_file("C:/ti/simplelink_cc13x0_sdk_2_30_00_20/source/ti/devices/c
    2470                            .dwattr $C$DW$239, DW_AT_decl_line(0xaa)
    2471                            .dwattr $C$DW$239, DW_AT_decl_column(0x04)
    2472                    
    2473                    $C$DW$240       .dwtag  DW_TAG_enumerator
    2474                            .dwattr $C$DW$240, DW_AT_name("PACKAGE_WAFER")
    2475                            .dwattr $C$DW$240, DW_AT_const_value(0x03)
TI ARM Assembler PC v16.9.8 Sat Nov 24 22:21:09 2018

Tools Copyright (c) 1996-2017 Texas Instruments Incorporated
C:\Users\Einstein\AppData\Local\Temp\{0ED9912E-F216-4B11-AF33-9BA1337BDC1F} PAGE   46

    2476                            .dwattr $C$DW$240, DW_AT_decl_file("C:/ti/simplelink_cc13x0_sdk_2_30_00_20/source/ti/devices/c
    2477                            .dwattr $C$DW$240, DW_AT_decl_line(0xab)
    2478                            .dwattr $C$DW$240, DW_AT_decl_column(0x04)
    2479                    
    2480                    $C$DW$241       .dwtag  DW_TAG_enumerator
    2481                            .dwattr $C$DW$241, DW_AT_name("PACKAGE_WCSP")
    2482                            .dwattr $C$DW$241, DW_AT_const_value(0x04)
    2483                            .dwattr $C$DW$241, DW_AT_decl_file("C:/ti/simplelink_cc13x0_sdk_2_30_00_20/source/ti/devices/c
    2484                            .dwattr $C$DW$241, DW_AT_decl_line(0xac)
    2485                            .dwattr $C$DW$241, DW_AT_decl_column(0x04)
    2486                    
    2487                    $C$DW$242       .dwtag  DW_TAG_enumerator
    2488                            .dwattr $C$DW$242, DW_AT_name("PACKAGE_7x7_Q1")
    2489                            .dwattr $C$DW$242, DW_AT_const_value(0x05)
    2490                            .dwattr $C$DW$242, DW_AT_decl_file("C:/ti/simplelink_cc13x0_sdk_2_30_00_20/source/ti/devices/c
    2491                            .dwattr $C$DW$242, DW_AT_decl_line(0xad)
    2492                            .dwattr $C$DW$242, DW_AT_decl_column(0x04)
    2493                    
    2494                            .dwattr $C$DW$T$1002, DW_AT_decl_file("C:/ti/simplelink_cc13x0_sdk_2_30_00_20/source/ti/device
    2495                            .dwattr $C$DW$T$1002, DW_AT_decl_line(0xa6)
    2496                            .dwattr $C$DW$T$1002, DW_AT_decl_column(0x0e)
    2497                            .dwendtag $C$DW$T$1002
    2498                    
    2499                    $C$DW$T$1003    .dwtag  DW_TAG_typedef
    2500                            .dwattr $C$DW$T$1003, DW_AT_name("PackageType_t")
    2501                            .dwattr $C$DW$T$1003, DW_AT_type(*$C$DW$T$1002)
    2502                            .dwattr $C$DW$T$1003, DW_AT_language(DW_LANG_C)
    2503                            .dwattr $C$DW$T$1003, DW_AT_decl_file("C:/ti/simplelink_cc13x0_sdk_2_30_00_20/source/ti/device
    2504                            .dwattr $C$DW$T$1003, DW_AT_decl_line(0xae)
    2505                            .dwattr $C$DW$T$1003, DW_AT_decl_column(0x03)
    2506                    
    2507                    
    2508                    $C$DW$T$1004    .dwtag  DW_TAG_enumeration_type
    2509                            .dwattr $C$DW$T$1004, DW_AT_byte_size(0x01)
    2510                    $C$DW$243       .dwtag  DW_TAG_enumerator
    2511                            .dwattr $C$DW$243, DW_AT_name("CHIP_TYPE_Unknown")
    2512                            .dwattr $C$DW$243, DW_AT_const_value(-1)
    2513                            .dwattr $C$DW$243, DW_AT_decl_file("C:/ti/simplelink_cc13x0_sdk_2_30_00_20/source/ti/devices/c
    2514                            .dwattr $C$DW$243, DW_AT_decl_line(0x14b)
    2515                            .dwattr $C$DW$243, DW_AT_decl_column(0x04)
    2516                    
    2517                    $C$DW$244       .dwtag  DW_TAG_enumerator
    2518                            .dwattr $C$DW$244, DW_AT_name("CHIP_TYPE_CC1310")
    2519                            .dwattr $C$DW$244, DW_AT_const_value(0x00)
    2520                            .dwattr $C$DW$244, DW_AT_decl_file("C:/ti/simplelink_cc13x0_sdk_2_30_00_20/source/ti/devices/c
    2521                            .dwattr $C$DW$244, DW_AT_decl_line(0x14c)
    2522                            .dwattr $C$DW$244, DW_AT_decl_column(0x04)
    2523                    
    2524                    $C$DW$245       .dwtag  DW_TAG_enumerator
    2525                            .dwattr $C$DW$245, DW_AT_name("CHIP_TYPE_CC1350")
    2526                            .dwattr $C$DW$245, DW_AT_const_value(0x01)
    2527                            .dwattr $C$DW$245, DW_AT_decl_file("C:/ti/simplelink_cc13x0_sdk_2_30_00_20/source/ti/devices/c
    2528                            .dwattr $C$DW$245, DW_AT_decl_line(0x14d)
    2529                            .dwattr $C$DW$245, DW_AT_decl_column(0x04)
    2530                    
TI ARM Assembler PC v16.9.8 Sat Nov 24 22:21:09 2018

Tools Copyright (c) 1996-2017 Texas Instruments Incorporated
C:\Users\Einstein\AppData\Local\Temp\{0ED9912E-F216-4B11-AF33-9BA1337BDC1F} PAGE   47

    2531                    $C$DW$246       .dwtag  DW_TAG_enumerator
    2532                            .dwattr $C$DW$246, DW_AT_name("CHIP_TYPE_CC2620")
    2533                            .dwattr $C$DW$246, DW_AT_const_value(0x02)
    2534                            .dwattr $C$DW$246, DW_AT_decl_file("C:/ti/simplelink_cc13x0_sdk_2_30_00_20/source/ti/devices/c
    2535                            .dwattr $C$DW$246, DW_AT_decl_line(0x14e)
    2536                            .dwattr $C$DW$246, DW_AT_decl_column(0x04)
    2537                    
    2538                    $C$DW$247       .dwtag  DW_TAG_enumerator
    2539                            .dwattr $C$DW$247, DW_AT_name("CHIP_TYPE_CC2630")
    2540                            .dwattr $C$DW$247, DW_AT_const_value(0x03)
    2541                            .dwattr $C$DW$247, DW_AT_decl_file("C:/ti/simplelink_cc13x0_sdk_2_30_00_20/source/ti/devices/c
    2542                            .dwattr $C$DW$247, DW_AT_decl_line(0x14f)
    2543                            .dwattr $C$DW$247, DW_AT_decl_column(0x04)
    2544                    
    2545                    $C$DW$248       .dwtag  DW_TAG_enumerator
    2546                            .dwattr $C$DW$248, DW_AT_name("CHIP_TYPE_CC2640")
    2547                            .dwattr $C$DW$248, DW_AT_const_value(0x04)
    2548                            .dwattr $C$DW$248, DW_AT_decl_file("C:/ti/simplelink_cc13x0_sdk_2_30_00_20/source/ti/devices/c
    2549                            .dwattr $C$DW$248, DW_AT_decl_line(0x150)
    2550                            .dwattr $C$DW$248, DW_AT_decl_column(0x04)
    2551                    
    2552                    $C$DW$249       .dwtag  DW_TAG_enumerator
    2553                            .dwattr $C$DW$249, DW_AT_name("CHIP_TYPE_CC2650")
    2554                            .dwattr $C$DW$249, DW_AT_const_value(0x05)
    2555                            .dwattr $C$DW$249, DW_AT_decl_file("C:/ti/simplelink_cc13x0_sdk_2_30_00_20/source/ti/devices/c
    2556                            .dwattr $C$DW$249, DW_AT_decl_line(0x151)
    2557                            .dwattr $C$DW$249, DW_AT_decl_column(0x04)
    2558                    
    2559                    $C$DW$250       .dwtag  DW_TAG_enumerator
    2560                            .dwattr $C$DW$250, DW_AT_name("CHIP_TYPE_CUSTOM_0")
    2561                            .dwattr $C$DW$250, DW_AT_const_value(0x06)
    2562                            .dwattr $C$DW$250, DW_AT_decl_file("C:/ti/simplelink_cc13x0_sdk_2_30_00_20/source/ti/devices/c
    2563                            .dwattr $C$DW$250, DW_AT_decl_line(0x152)
    2564                            .dwattr $C$DW$250, DW_AT_decl_column(0x04)
    2565                    
    2566                    $C$DW$251       .dwtag  DW_TAG_enumerator
    2567                            .dwattr $C$DW$251, DW_AT_name("CHIP_TYPE_CUSTOM_1")
    2568                            .dwattr $C$DW$251, DW_AT_const_value(0x07)
    2569                            .dwattr $C$DW$251, DW_AT_decl_file("C:/ti/simplelink_cc13x0_sdk_2_30_00_20/source/ti/devices/c
    2570                            .dwattr $C$DW$251, DW_AT_decl_line(0x153)
    2571                            .dwattr $C$DW$251, DW_AT_decl_column(0x04)
    2572                    
    2573                    $C$DW$252       .dwtag  DW_TAG_enumerator
    2574                            .dwattr $C$DW$252, DW_AT_name("CHIP_TYPE_CC2640R2")
    2575                            .dwattr $C$DW$252, DW_AT_const_value(0x08)
    2576                            .dwattr $C$DW$252, DW_AT_decl_file("C:/ti/simplelink_cc13x0_sdk_2_30_00_20/source/ti/devices/c
    2577                            .dwattr $C$DW$252, DW_AT_decl_line(0x154)
    2578                            .dwattr $C$DW$252, DW_AT_decl_column(0x04)
    2579                    
    2580                    $C$DW$253       .dwtag  DW_TAG_enumerator
    2581                            .dwattr $C$DW$253, DW_AT_name("CHIP_TYPE_CC2642")
    2582                            .dwattr $C$DW$253, DW_AT_const_value(0x09)
    2583                            .dwattr $C$DW$253, DW_AT_decl_file("C:/ti/simplelink_cc13x0_sdk_2_30_00_20/source/ti/devices/c
    2584                            .dwattr $C$DW$253, DW_AT_decl_line(0x155)
    2585                            .dwattr $C$DW$253, DW_AT_decl_column(0x04)
TI ARM Assembler PC v16.9.8 Sat Nov 24 22:21:09 2018

Tools Copyright (c) 1996-2017 Texas Instruments Incorporated
C:\Users\Einstein\AppData\Local\Temp\{0ED9912E-F216-4B11-AF33-9BA1337BDC1F} PAGE   48

    2586                    
    2587                    $C$DW$254       .dwtag  DW_TAG_enumerator
    2588                            .dwattr $C$DW$254, DW_AT_name("CHIP_TYPE_unused")
    2589                            .dwattr $C$DW$254, DW_AT_const_value(0x0a)
    2590                            .dwattr $C$DW$254, DW_AT_decl_file("C:/ti/simplelink_cc13x0_sdk_2_30_00_20/source/ti/devices/c
    2591                            .dwattr $C$DW$254, DW_AT_decl_line(0x156)
    2592                            .dwattr $C$DW$254, DW_AT_decl_column(0x04)
    2593                    
    2594                    $C$DW$255       .dwtag  DW_TAG_enumerator
    2595                            .dwattr $C$DW$255, DW_AT_name("CHIP_TYPE_CC2652")
    2596                            .dwattr $C$DW$255, DW_AT_const_value(0x0b)
    2597                            .dwattr $C$DW$255, DW_AT_decl_file("C:/ti/simplelink_cc13x0_sdk_2_30_00_20/source/ti/devices/c
    2598                            .dwattr $C$DW$255, DW_AT_decl_line(0x157)
    2599                            .dwattr $C$DW$255, DW_AT_decl_column(0x04)
    2600                    
    2601                    $C$DW$256       .dwtag  DW_TAG_enumerator
    2602                            .dwattr $C$DW$256, DW_AT_name("CHIP_TYPE_CC1312")
    2603                            .dwattr $C$DW$256, DW_AT_const_value(0x0c)
    2604                            .dwattr $C$DW$256, DW_AT_decl_file("C:/ti/simplelink_cc13x0_sdk_2_30_00_20/source/ti/devices/c
    2605                            .dwattr $C$DW$256, DW_AT_decl_line(0x158)
    2606                            .dwattr $C$DW$256, DW_AT_decl_column(0x04)
    2607                    
    2608                    $C$DW$257       .dwtag  DW_TAG_enumerator
    2609                            .dwattr $C$DW$257, DW_AT_name("CHIP_TYPE_CC1352")
    2610                            .dwattr $C$DW$257, DW_AT_const_value(0x0d)
    2611                            .dwattr $C$DW$257, DW_AT_decl_file("C:/ti/simplelink_cc13x0_sdk_2_30_00_20/source/ti/devices/c
    2612                            .dwattr $C$DW$257, DW_AT_decl_line(0x159)
    2613                            .dwattr $C$DW$257, DW_AT_decl_column(0x04)
    2614                    
    2615                    $C$DW$258       .dwtag  DW_TAG_enumerator
    2616                            .dwattr $C$DW$258, DW_AT_name("CHIP_TYPE_CC1352P")
    2617                            .dwattr $C$DW$258, DW_AT_const_value(0x0e)
    2618                            .dwattr $C$DW$258, DW_AT_decl_file("C:/ti/simplelink_cc13x0_sdk_2_30_00_20/source/ti/devices/c
    2619                            .dwattr $C$DW$258, DW_AT_decl_line(0x15a)
    2620                            .dwattr $C$DW$258, DW_AT_decl_column(0x04)
    2621                    
    2622                            .dwattr $C$DW$T$1004, DW_AT_decl_file("C:/ti/simplelink_cc13x0_sdk_2_30_00_20/source/ti/device
    2623                            .dwattr $C$DW$T$1004, DW_AT_decl_line(0x14a)
    2624                            .dwattr $C$DW$T$1004, DW_AT_decl_column(0x0e)
    2625                            .dwendtag $C$DW$T$1004
    2626                    
    2627                    $C$DW$T$1005    .dwtag  DW_TAG_typedef
    2628                            .dwattr $C$DW$T$1005, DW_AT_name("ChipType_t")
    2629                            .dwattr $C$DW$T$1005, DW_AT_type(*$C$DW$T$1004)
    2630                            .dwattr $C$DW$T$1005, DW_AT_language(DW_LANG_C)
    2631                            .dwattr $C$DW$T$1005, DW_AT_decl_file("C:/ti/simplelink_cc13x0_sdk_2_30_00_20/source/ti/device
    2632                            .dwattr $C$DW$T$1005, DW_AT_decl_line(0x15b)
    2633                            .dwattr $C$DW$T$1005, DW_AT_decl_column(0x03)
    2634                    
    2635                    
    2636                    $C$DW$T$1006    .dwtag  DW_TAG_enumeration_type
    2637                            .dwattr $C$DW$T$1006, DW_AT_byte_size(0x01)
    2638                    $C$DW$259       .dwtag  DW_TAG_enumerator
    2639                            .dwattr $C$DW$259, DW_AT_name("FAMILY_Unknown")
    2640                            .dwattr $C$DW$259, DW_AT_const_value(-1)
TI ARM Assembler PC v16.9.8 Sat Nov 24 22:21:09 2018

Tools Copyright (c) 1996-2017 Texas Instruments Incorporated
C:\Users\Einstein\AppData\Local\Temp\{0ED9912E-F216-4B11-AF33-9BA1337BDC1F} PAGE   49

    2641                            .dwattr $C$DW$259, DW_AT_decl_file("C:/ti/simplelink_cc13x0_sdk_2_30_00_20/source/ti/devices/c
    2642                            .dwattr $C$DW$259, DW_AT_decl_line(0x16d)
    2643                            .dwattr $C$DW$259, DW_AT_decl_column(0x04)
    2644                    
    2645                    $C$DW$260       .dwtag  DW_TAG_enumerator
    2646                            .dwattr $C$DW$260, DW_AT_name("FAMILY_CC26x0")
    2647                            .dwattr $C$DW$260, DW_AT_const_value(0x00)
    2648                            .dwattr $C$DW$260, DW_AT_decl_file("C:/ti/simplelink_cc13x0_sdk_2_30_00_20/source/ti/devices/c
    2649                            .dwattr $C$DW$260, DW_AT_decl_line(0x16e)
    2650                            .dwattr $C$DW$260, DW_AT_decl_column(0x04)
    2651                    
    2652                    $C$DW$261       .dwtag  DW_TAG_enumerator
    2653                            .dwattr $C$DW$261, DW_AT_name("FAMILY_CC13x0")
    2654                            .dwattr $C$DW$261, DW_AT_const_value(0x01)
    2655                            .dwattr $C$DW$261, DW_AT_decl_file("C:/ti/simplelink_cc13x0_sdk_2_30_00_20/source/ti/devices/c
    2656                            .dwattr $C$DW$261, DW_AT_decl_line(0x16f)
    2657                            .dwattr $C$DW$261, DW_AT_decl_column(0x04)
    2658                    
    2659                    $C$DW$262       .dwtag  DW_TAG_enumerator
    2660                            .dwattr $C$DW$262, DW_AT_name("FAMILY_CC26x1")
    2661                            .dwattr $C$DW$262, DW_AT_const_value(0x02)
    2662                            .dwattr $C$DW$262, DW_AT_decl_file("C:/ti/simplelink_cc13x0_sdk_2_30_00_20/source/ti/devices/c
    2663                            .dwattr $C$DW$262, DW_AT_decl_line(0x170)
    2664                            .dwattr $C$DW$262, DW_AT_decl_column(0x04)
    2665                    
    2666                    $C$DW$263       .dwtag  DW_TAG_enumerator
    2667                            .dwattr $C$DW$263, DW_AT_name("FAMILY_CC26x0R2")
    2668                            .dwattr $C$DW$263, DW_AT_const_value(0x03)
    2669                            .dwattr $C$DW$263, DW_AT_decl_file("C:/ti/simplelink_cc13x0_sdk_2_30_00_20/source/ti/devices/c
    2670                            .dwattr $C$DW$263, DW_AT_decl_line(0x171)
    2671                            .dwattr $C$DW$263, DW_AT_decl_column(0x04)
    2672                    
    2673                    $C$DW$264       .dwtag  DW_TAG_enumerator
    2674                            .dwattr $C$DW$264, DW_AT_name("FAMILY_CC13x2_CC26x2")
    2675                            .dwattr $C$DW$264, DW_AT_const_value(0x04)
    2676                            .dwattr $C$DW$264, DW_AT_decl_file("C:/ti/simplelink_cc13x0_sdk_2_30_00_20/source/ti/devices/c
    2677                            .dwattr $C$DW$264, DW_AT_decl_line(0x172)
    2678                            .dwattr $C$DW$264, DW_AT_decl_column(0x04)
    2679                    
    2680                            .dwattr $C$DW$T$1006, DW_AT_decl_file("C:/ti/simplelink_cc13x0_sdk_2_30_00_20/source/ti/device
    2681                            .dwattr $C$DW$T$1006, DW_AT_decl_line(0x16c)
    2682                            .dwattr $C$DW$T$1006, DW_AT_decl_column(0x0e)
    2683                            .dwendtag $C$DW$T$1006
    2684                    
    2685                    $C$DW$T$1007    .dwtag  DW_TAG_typedef
    2686                            .dwattr $C$DW$T$1007, DW_AT_name("ChipFamily_t")
    2687                            .dwattr $C$DW$T$1007, DW_AT_type(*$C$DW$T$1006)
    2688                            .dwattr $C$DW$T$1007, DW_AT_language(DW_LANG_C)
    2689                            .dwattr $C$DW$T$1007, DW_AT_decl_file("C:/ti/simplelink_cc13x0_sdk_2_30_00_20/source/ti/device
    2690                            .dwattr $C$DW$T$1007, DW_AT_decl_line(0x173)
    2691                            .dwattr $C$DW$T$1007, DW_AT_decl_column(0x03)
    2692                    
    2693                    
    2694                    $C$DW$T$1008    .dwtag  DW_TAG_enumeration_type
    2695                            .dwattr $C$DW$T$1008, DW_AT_byte_size(0x01)
TI ARM Assembler PC v16.9.8 Sat Nov 24 22:21:09 2018

Tools Copyright (c) 1996-2017 Texas Instruments Incorporated
C:\Users\Einstein\AppData\Local\Temp\{0ED9912E-F216-4B11-AF33-9BA1337BDC1F} PAGE   50

    2696                    $C$DW$265       .dwtag  DW_TAG_enumerator
    2697                            .dwattr $C$DW$265, DW_AT_name("ApiMac_secLevel_none")
    2698                            .dwattr $C$DW$265, DW_AT_const_value(0x00)
    2699                            .dwattr $C$DW$265, DW_AT_decl_file("C:\Users\Einstein\MyWorkspaceCC1350\collector_cc1350lp\App
    2700                            .dwattr $C$DW$265, DW_AT_decl_line(0x28b)
    2701                            .dwattr $C$DW$265, DW_AT_decl_column(0x05)
    2702                    
    2703                    $C$DW$266       .dwtag  DW_TAG_enumerator
    2704                            .dwattr $C$DW$266, DW_AT_name("ApiMac_secLevel_mic32")
    2705                            .dwattr $C$DW$266, DW_AT_const_value(0x01)
    2706                            .dwattr $C$DW$266, DW_AT_decl_file("C:\Users\Einstein\MyWorkspaceCC1350\collector_cc1350lp\App
    2707                            .dwattr $C$DW$266, DW_AT_decl_line(0x28d)
    2708                            .dwattr $C$DW$266, DW_AT_decl_column(0x05)
    2709                    
    2710                    $C$DW$267       .dwtag  DW_TAG_enumerator
    2711                            .dwattr $C$DW$267, DW_AT_name("ApiMac_secLevel_mic64")
    2712                            .dwattr $C$DW$267, DW_AT_const_value(0x02)
    2713                            .dwattr $C$DW$267, DW_AT_decl_file("C:\Users\Einstein\MyWorkspaceCC1350\collector_cc1350lp\App
    2714                            .dwattr $C$DW$267, DW_AT_decl_line(0x28f)
    2715                            .dwattr $C$DW$267, DW_AT_decl_column(0x05)
    2716                    
    2717                    $C$DW$268       .dwtag  DW_TAG_enumerator
    2718                            .dwattr $C$DW$268, DW_AT_name("ApiMac_secLevel_mic128")
    2719                            .dwattr $C$DW$268, DW_AT_const_value(0x03)
    2720                            .dwattr $C$DW$268, DW_AT_decl_file("C:\Users\Einstein\MyWorkspaceCC1350\collector_cc1350lp\App
    2721                            .dwattr $C$DW$268, DW_AT_decl_line(0x291)
    2722                            .dwattr $C$DW$268, DW_AT_decl_column(0x05)
    2723                    
    2724                    $C$DW$269       .dwtag  DW_TAG_enumerator
    2725                            .dwattr $C$DW$269, DW_AT_name("ApiMac_secLevel_enc")
    2726                            .dwattr $C$DW$269, DW_AT_const_value(0x04)
    2727                            .dwattr $C$DW$269, DW_AT_decl_file("C:\Users\Einstein\MyWorkspaceCC1350\collector_cc1350lp\App
    2728                            .dwattr $C$DW$269, DW_AT_decl_line(0x293)
    2729                            .dwattr $C$DW$269, DW_AT_decl_column(0x05)
    2730                    
    2731                    $C$DW$270       .dwtag  DW_TAG_enumerator
    2732                            .dwattr $C$DW$270, DW_AT_name("ApiMac_secLevel_encMic32")
    2733                            .dwattr $C$DW$270, DW_AT_const_value(0x05)
    2734                            .dwattr $C$DW$270, DW_AT_decl_file("C:\Users\Einstein\MyWorkspaceCC1350\collector_cc1350lp\App
    2735                            .dwattr $C$DW$270, DW_AT_decl_line(0x295)
    2736                            .dwattr $C$DW$270, DW_AT_decl_column(0x05)
    2737                    
    2738                    $C$DW$271       .dwtag  DW_TAG_enumerator
    2739                            .dwattr $C$DW$271, DW_AT_name("ApiMac_secLevel_encMic64")
    2740                            .dwattr $C$DW$271, DW_AT_const_value(0x06)
    2741                            .dwattr $C$DW$271, DW_AT_decl_file("C:\Users\Einstein\MyWorkspaceCC1350\collector_cc1350lp\App
    2742                            .dwattr $C$DW$271, DW_AT_decl_line(0x297)
    2743                            .dwattr $C$DW$271, DW_AT_decl_column(0x05)
    2744                    
    2745                    $C$DW$272       .dwtag  DW_TAG_enumerator
    2746                            .dwattr $C$DW$272, DW_AT_name("ApiMac_secLevel_encMic128")
    2747                            .dwattr $C$DW$272, DW_AT_const_value(0x07)
    2748                            .dwattr $C$DW$272, DW_AT_decl_file("C:\Users\Einstein\MyWorkspaceCC1350\collector_cc1350lp\App
    2749                            .dwattr $C$DW$272, DW_AT_decl_line(0x299)
    2750                            .dwattr $C$DW$272, DW_AT_decl_column(0x05)
TI ARM Assembler PC v16.9.8 Sat Nov 24 22:21:09 2018

Tools Copyright (c) 1996-2017 Texas Instruments Incorporated
C:\Users\Einstein\AppData\Local\Temp\{0ED9912E-F216-4B11-AF33-9BA1337BDC1F} PAGE   51

    2751                    
    2752                            .dwattr $C$DW$T$1008, DW_AT_decl_file("C:\Users\Einstein\MyWorkspaceCC1350\collector_cc1350lp\
    2753                            .dwattr $C$DW$T$1008, DW_AT_decl_line(0x289)
    2754                            .dwattr $C$DW$T$1008, DW_AT_decl_column(0x01)
    2755                            .dwendtag $C$DW$T$1008
    2756                    
    2757                    $C$DW$T$1009    .dwtag  DW_TAG_typedef
    2758                            .dwattr $C$DW$T$1009, DW_AT_name("ApiMac_secLevel_t")
    2759                            .dwattr $C$DW$T$1009, DW_AT_type(*$C$DW$T$1008)
    2760                            .dwattr $C$DW$T$1009, DW_AT_language(DW_LANG_C)
    2761                            .dwattr $C$DW$T$1009, DW_AT_decl_file("C:\Users\Einstein\MyWorkspaceCC1350\collector_cc1350lp\
    2762                            .dwattr $C$DW$T$1009, DW_AT_decl_line(0x29a)
    2763                            .dwattr $C$DW$T$1009, DW_AT_decl_column(0x03)
    2764                    
    2765                    
    2766                    $C$DW$T$1010    .dwtag  DW_TAG_enumeration_type
    2767                            .dwattr $C$DW$T$1010, DW_AT_byte_size(0x01)
    2768                    $C$DW$273       .dwtag  DW_TAG_enumerator
    2769                            .dwattr $C$DW$273, DW_AT_name("ApiMac_keyIdMode_implicit")
    2770                            .dwattr $C$DW$273, DW_AT_const_value(0x00)
    2771                            .dwattr $C$DW$273, DW_AT_decl_file("C:\Users\Einstein\MyWorkspaceCC1350\collector_cc1350lp\App
    2772                            .dwattr $C$DW$273, DW_AT_decl_line(0x2a0)
    2773                            .dwattr $C$DW$273, DW_AT_decl_column(0x05)
    2774                    
    2775                    $C$DW$274       .dwtag  DW_TAG_enumerator
    2776                            .dwattr $C$DW$274, DW_AT_name("ApiMac_keyIdMode_1")
    2777                            .dwattr $C$DW$274, DW_AT_const_value(0x01)
    2778                            .dwattr $C$DW$274, DW_AT_decl_file("C:\Users\Einstein\MyWorkspaceCC1350\collector_cc1350lp\App
    2779                            .dwattr $C$DW$274, DW_AT_decl_line(0x2a2)
    2780                            .dwattr $C$DW$274, DW_AT_decl_column(0x05)
    2781                    
    2782                    $C$DW$275       .dwtag  DW_TAG_enumerator
    2783                            .dwattr $C$DW$275, DW_AT_name("ApiMac_keyIdMode_4")
    2784                            .dwattr $C$DW$275, DW_AT_const_value(0x02)
    2785                            .dwattr $C$DW$275, DW_AT_decl_file("C:\Users\Einstein\MyWorkspaceCC1350\collector_cc1350lp\App
    2786                            .dwattr $C$DW$275, DW_AT_decl_line(0x2a4)
    2787                            .dwattr $C$DW$275, DW_AT_decl_column(0x05)
    2788                    
    2789                    $C$DW$276       .dwtag  DW_TAG_enumerator
    2790                            .dwattr $C$DW$276, DW_AT_name("ApiMac_keyIdMode_8")
    2791                            .dwattr $C$DW$276, DW_AT_const_value(0x03)
    2792                            .dwattr $C$DW$276, DW_AT_decl_file("C:\Users\Einstein\MyWorkspaceCC1350\collector_cc1350lp\App
    2793                            .dwattr $C$DW$276, DW_AT_decl_line(0x2a6)
    2794                            .dwattr $C$DW$276, DW_AT_decl_column(0x05)
    2795                    
    2796                            .dwattr $C$DW$T$1010, DW_AT_decl_file("C:\Users\Einstein\MyWorkspaceCC1350\collector_cc1350lp\
    2797                            .dwattr $C$DW$T$1010, DW_AT_decl_line(0x29e)
    2798                            .dwattr $C$DW$T$1010, DW_AT_decl_column(0x01)
    2799                            .dwendtag $C$DW$T$1010
    2800                    
    2801                    $C$DW$T$1011    .dwtag  DW_TAG_typedef
    2802                            .dwattr $C$DW$T$1011, DW_AT_name("ApiMac_keyIdMode_t")
    2803                            .dwattr $C$DW$T$1011, DW_AT_type(*$C$DW$T$1010)
    2804                            .dwattr $C$DW$T$1011, DW_AT_language(DW_LANG_C)
    2805                            .dwattr $C$DW$T$1011, DW_AT_decl_file("C:\Users\Einstein\MyWorkspaceCC1350\collector_cc1350lp\
TI ARM Assembler PC v16.9.8 Sat Nov 24 22:21:09 2018

Tools Copyright (c) 1996-2017 Texas Instruments Incorporated
C:\Users\Einstein\AppData\Local\Temp\{0ED9912E-F216-4B11-AF33-9BA1337BDC1F} PAGE   52

    2806                            .dwattr $C$DW$T$1011, DW_AT_decl_line(0x2a7)
    2807                            .dwattr $C$DW$T$1011, DW_AT_decl_column(0x03)
    2808                    
    2809                    
    2810                    $C$DW$T$1012    .dwtag  DW_TAG_enumeration_type
    2811                            .dwattr $C$DW$T$1012, DW_AT_byte_size(0x01)
    2812                    $C$DW$277       .dwtag  DW_TAG_enumerator
    2813                            .dwattr $C$DW$277, DW_AT_name("ApiMac_attribute_associatePermit")
    2814                            .dwattr $C$DW$277, DW_AT_const_value(0x41)
    2815                            .dwattr $C$DW$277, DW_AT_decl_file("C:\Users\Einstein\MyWorkspaceCC1350\collector_cc1350lp\App
    2816                            .dwattr $C$DW$277, DW_AT_decl_line(0x2ad)
    2817                            .dwattr $C$DW$277, DW_AT_decl_column(0x05)
    2818                    
    2819                    $C$DW$278       .dwtag  DW_TAG_enumerator
    2820                            .dwattr $C$DW$278, DW_AT_name("ApiMac_attribute_autoRequest")
    2821                            .dwattr $C$DW$278, DW_AT_const_value(0x42)
    2822                            .dwattr $C$DW$278, DW_AT_decl_file("C:\Users\Einstein\MyWorkspaceCC1350\collector_cc1350lp\App
    2823                            .dwattr $C$DW$278, DW_AT_decl_line(0x2b2)
    2824                            .dwattr $C$DW$278, DW_AT_decl_column(0x05)
    2825                    
    2826                    $C$DW$279       .dwtag  DW_TAG_enumerator
    2827                            .dwattr $C$DW$279, DW_AT_name("ApiMac_attribute_battLifeExt")
    2828                            .dwattr $C$DW$279, DW_AT_const_value(0x43)
    2829                            .dwattr $C$DW$279, DW_AT_decl_file("C:\Users\Einstein\MyWorkspaceCC1350\collector_cc1350lp\App
    2830                            .dwattr $C$DW$279, DW_AT_decl_line(0x2b4)
    2831                            .dwattr $C$DW$279, DW_AT_decl_column(0x05)
    2832                    
    2833                    $C$DW$280       .dwtag  DW_TAG_enumerator
    2834                            .dwattr $C$DW$280, DW_AT_name("ApiMac_attribute_gtsPermit")
    2835                            .dwattr $C$DW$280, DW_AT_const_value(0x4d)
    2836                            .dwattr $C$DW$280, DW_AT_decl_file("C:\Users\Einstein\MyWorkspaceCC1350\collector_cc1350lp\App
    2837                            .dwattr $C$DW$280, DW_AT_decl_line(0x2b6)
    2838                            .dwattr $C$DW$280, DW_AT_decl_column(0x05)
    2839                    
    2840                    $C$DW$281       .dwtag  DW_TAG_enumerator
    2841                            .dwattr $C$DW$281, DW_AT_name("ApiMac_attribute_promiscuousMode")
    2842                            .dwattr $C$DW$281, DW_AT_const_value(0x51)
    2843                            .dwattr $C$DW$281, DW_AT_decl_file("C:\Users\Einstein\MyWorkspaceCC1350\collector_cc1350lp\App
    2844                            .dwattr $C$DW$281, DW_AT_decl_line(0x2b8)
    2845                            .dwattr $C$DW$281, DW_AT_decl_column(0x05)
    2846                    
    2847                    $C$DW$282       .dwtag  DW_TAG_enumerator
    2848                            .dwattr $C$DW$282, DW_AT_name("ApiMac_attribute_RxOnWhenIdle")
    2849                            .dwattr $C$DW$282, DW_AT_const_value(0x52)
    2850                            .dwattr $C$DW$282, DW_AT_decl_file("C:\Users\Einstein\MyWorkspaceCC1350\collector_cc1350lp\App
    2851                            .dwattr $C$DW$282, DW_AT_decl_line(0x2ba)
    2852                            .dwattr $C$DW$282, DW_AT_decl_column(0x05)
    2853                    
    2854                    $C$DW$283       .dwtag  DW_TAG_enumerator
    2855                            .dwattr $C$DW$283, DW_AT_name("ApiMac_attribute_associatedPanCoord")
    2856                            .dwattr $C$DW$283, DW_AT_const_value(0x56)
    2857                            .dwattr $C$DW$283, DW_AT_decl_file("C:\Users\Einstein\MyWorkspaceCC1350\collector_cc1350lp\App
    2858                            .dwattr $C$DW$283, DW_AT_decl_line(0x2bc)
    2859                            .dwattr $C$DW$283, DW_AT_decl_column(0x05)
    2860                    
TI ARM Assembler PC v16.9.8 Sat Nov 24 22:21:09 2018

Tools Copyright (c) 1996-2017 Texas Instruments Incorporated
C:\Users\Einstein\AppData\Local\Temp\{0ED9912E-F216-4B11-AF33-9BA1337BDC1F} PAGE   53

    2861                    $C$DW$284       .dwtag  DW_TAG_enumerator
    2862                            .dwattr $C$DW$284, DW_AT_name("ApiMac_attribute_timestampSupported")
    2863                            .dwattr $C$DW$284, DW_AT_const_value(0x5c)
    2864                            .dwattr $C$DW$284, DW_AT_decl_file("C:\Users\Einstein\MyWorkspaceCC1350\collector_cc1350lp\App
    2865                            .dwattr $C$DW$284, DW_AT_decl_line(0x2be)
    2866                            .dwattr $C$DW$284, DW_AT_decl_column(0x05)
    2867                    
    2868                    $C$DW$285       .dwtag  DW_TAG_enumerator
    2869                            .dwattr $C$DW$285, DW_AT_name("ApiMac_attribute_securityEnabled")
    2870                            .dwattr $C$DW$285, DW_AT_const_value(0x5d)
    2871                            .dwattr $C$DW$285, DW_AT_decl_file("C:\Users\Einstein\MyWorkspaceCC1350\collector_cc1350lp\App
    2872                            .dwattr $C$DW$285, DW_AT_decl_line(0x2c0)
    2873                            .dwattr $C$DW$285, DW_AT_decl_column(0x05)
    2874                    
    2875                    $C$DW$286       .dwtag  DW_TAG_enumerator
    2876                            .dwattr $C$DW$286, DW_AT_name("ApiMac_attribute_includeMPMIE")
    2877                            .dwattr $C$DW$286, DW_AT_const_value(0x62)
    2878                            .dwattr $C$DW$286, DW_AT_decl_file("C:\Users\Einstein\MyWorkspaceCC1350\collector_cc1350lp\App
    2879                            .dwattr $C$DW$286, DW_AT_decl_line(0x2c2)
    2880                            .dwattr $C$DW$286, DW_AT_decl_column(0x05)
    2881                    
    2882                    $C$DW$287       .dwtag  DW_TAG_enumerator
    2883                            .dwattr $C$DW$287, DW_AT_name("ApiMac_attribute_fcsType")
    2884                            .dwattr $C$DW$287, DW_AT_const_value(0xe9)
    2885                            .dwattr $C$DW$287, DW_AT_decl_file("C:\Users\Einstein\MyWorkspaceCC1350\collector_cc1350lp\App
    2886                            .dwattr $C$DW$287, DW_AT_decl_line(0x2c4)
    2887                            .dwattr $C$DW$287, DW_AT_decl_column(0x05)
    2888                    
    2889                            .dwattr $C$DW$T$1012, DW_AT_decl_file("C:\Users\Einstein\MyWorkspaceCC1350\collector_cc1350lp\
    2890                            .dwattr $C$DW$T$1012, DW_AT_decl_line(0x2ab)
    2891                            .dwattr $C$DW$T$1012, DW_AT_decl_column(0x01)
    2892                            .dwendtag $C$DW$T$1012
    2893                    
    2894                    $C$DW$T$1013    .dwtag  DW_TAG_typedef
    2895                            .dwattr $C$DW$T$1013, DW_AT_name("ApiMac_attribute_bool_t")
    2896                            .dwattr $C$DW$T$1013, DW_AT_type(*$C$DW$T$1012)
    2897                            .dwattr $C$DW$T$1013, DW_AT_language(DW_LANG_C)
    2898                            .dwattr $C$DW$T$1013, DW_AT_decl_file("C:\Users\Einstein\MyWorkspaceCC1350\collector_cc1350lp\
    2899                            .dwattr $C$DW$T$1013, DW_AT_decl_line(0x2c5)
    2900                            .dwattr $C$DW$T$1013, DW_AT_decl_column(0x03)
    2901                    
    2902                    
    2903                    $C$DW$T$1014    .dwtag  DW_TAG_enumeration_type
    2904                            .dwattr $C$DW$T$1014, DW_AT_byte_size(0x01)
    2905                    $C$DW$288       .dwtag  DW_TAG_enumerator
    2906                            .dwattr $C$DW$288, DW_AT_name("ApiMac_attribute_ackWaitDuration")
    2907                            .dwattr $C$DW$288, DW_AT_const_value(0x40)
    2908                            .dwattr $C$DW$288, DW_AT_decl_file("C:\Users\Einstein\MyWorkspaceCC1350\collector_cc1350lp\App
    2909                            .dwattr $C$DW$288, DW_AT_decl_line(0x2cb)
    2910                            .dwattr $C$DW$288, DW_AT_decl_column(0x05)
    2911                    
    2912                    $C$DW$289       .dwtag  DW_TAG_enumerator
    2913                            .dwattr $C$DW$289, DW_AT_name("ApiMac_attribute_battLifeExtPeriods")
    2914                            .dwattr $C$DW$289, DW_AT_const_value(0x44)
    2915                            .dwattr $C$DW$289, DW_AT_decl_file("C:\Users\Einstein\MyWorkspaceCC1350\collector_cc1350lp\App
TI ARM Assembler PC v16.9.8 Sat Nov 24 22:21:09 2018

Tools Copyright (c) 1996-2017 Texas Instruments Incorporated
C:\Users\Einstein\AppData\Local\Temp\{0ED9912E-F216-4B11-AF33-9BA1337BDC1F} PAGE   54

    2916                            .dwattr $C$DW$289, DW_AT_decl_line(0x2d0)
    2917                            .dwattr $C$DW$289, DW_AT_decl_column(0x05)
    2918                    
    2919                    $C$DW$290       .dwtag  DW_TAG_enumerator
    2920                            .dwattr $C$DW$290, DW_AT_name("ApiMac_attribute_beaconPayloadLength")
    2921                            .dwattr $C$DW$290, DW_AT_const_value(0x46)
    2922                            .dwattr $C$DW$290, DW_AT_decl_file("C:\Users\Einstein\MyWorkspaceCC1350\collector_cc1350lp\App
    2923                            .dwattr $C$DW$290, DW_AT_decl_line(0x2d5)
    2924                            .dwattr $C$DW$290, DW_AT_decl_column(0x05)
    2925                    
    2926                    $C$DW$291       .dwtag  DW_TAG_enumerator
    2927                            .dwattr $C$DW$291, DW_AT_name("ApiMac_attribute_beaconOrder")
    2928                            .dwattr $C$DW$291, DW_AT_const_value(0x47)
    2929                            .dwattr $C$DW$291, DW_AT_decl_file("C:\Users\Einstein\MyWorkspaceCC1350\collector_cc1350lp\App
    2930                            .dwattr $C$DW$291, DW_AT_decl_line(0x2d7)
    2931                            .dwattr $C$DW$291, DW_AT_decl_column(0x05)
    2932                    
    2933                    $C$DW$292       .dwtag  DW_TAG_enumerator
    2934                            .dwattr $C$DW$292, DW_AT_name("ApiMac_attribute_bsn")
    2935                            .dwattr $C$DW$292, DW_AT_const_value(0x49)
    2936                            .dwattr $C$DW$292, DW_AT_decl_file("C:\Users\Einstein\MyWorkspaceCC1350\collector_cc1350lp\App
    2937                            .dwattr $C$DW$292, DW_AT_decl_line(0x2d9)
    2938                            .dwattr $C$DW$292, DW_AT_decl_column(0x05)
    2939                    
    2940                    $C$DW$293       .dwtag  DW_TAG_enumerator
    2941                            .dwattr $C$DW$293, DW_AT_name("ApiMac_attribute_dsn")
    2942                            .dwattr $C$DW$293, DW_AT_const_value(0x4c)
    2943                            .dwattr $C$DW$293, DW_AT_decl_file("C:\Users\Einstein\MyWorkspaceCC1350\collector_cc1350lp\App
    2944                            .dwattr $C$DW$293, DW_AT_decl_line(0x2db)
    2945                            .dwattr $C$DW$293, DW_AT_decl_column(0x05)
    2946                    
    2947                    $C$DW$294       .dwtag  DW_TAG_enumerator
    2948                            .dwattr $C$DW$294, DW_AT_name("ApiMac_attribute_maxCsmaBackoffs")
    2949                            .dwattr $C$DW$294, DW_AT_const_value(0x4e)
    2950                            .dwattr $C$DW$294, DW_AT_decl_file("C:\Users\Einstein\MyWorkspaceCC1350\collector_cc1350lp\App
    2951                            .dwattr $C$DW$294, DW_AT_decl_line(0x2e0)
    2952                            .dwattr $C$DW$294, DW_AT_decl_column(0x05)
    2953                    
    2954                    $C$DW$295       .dwtag  DW_TAG_enumerator
    2955                            .dwattr $C$DW$295, DW_AT_name("ApiMac_attribute_backoffExponent")
    2956                            .dwattr $C$DW$295, DW_AT_const_value(0x4f)
    2957                            .dwattr $C$DW$295, DW_AT_decl_file("C:\Users\Einstein\MyWorkspaceCC1350\collector_cc1350lp\App
    2958                            .dwattr $C$DW$295, DW_AT_decl_line(0x2e8)
    2959                            .dwattr $C$DW$295, DW_AT_decl_column(0x05)
    2960                    
    2961                    $C$DW$296       .dwtag  DW_TAG_enumerator
    2962                            .dwattr $C$DW$296, DW_AT_name("ApiMac_attribute_superframeOrder")
    2963                            .dwattr $C$DW$296, DW_AT_const_value(0x54)
    2964                            .dwattr $C$DW$296, DW_AT_decl_file("C:\Users\Einstein\MyWorkspaceCC1350\collector_cc1350lp\App
    2965                            .dwattr $C$DW$296, DW_AT_decl_line(0x2ea)
    2966                            .dwattr $C$DW$296, DW_AT_decl_column(0x05)
    2967                    
    2968                    $C$DW$297       .dwtag  DW_TAG_enumerator
    2969                            .dwattr $C$DW$297, DW_AT_name("ApiMac_attribute_maxBackoffExponent")
    2970                            .dwattr $C$DW$297, DW_AT_const_value(0x57)
TI ARM Assembler PC v16.9.8 Sat Nov 24 22:21:09 2018

Tools Copyright (c) 1996-2017 Texas Instruments Incorporated
C:\Users\Einstein\AppData\Local\Temp\{0ED9912E-F216-4B11-AF33-9BA1337BDC1F} PAGE   55

    2971                            .dwattr $C$DW$297, DW_AT_decl_file("C:\Users\Einstein\MyWorkspaceCC1350\collector_cc1350lp\App
    2972                            .dwattr $C$DW$297, DW_AT_decl_line(0x2ec)
    2973                            .dwattr $C$DW$297, DW_AT_decl_column(0x05)
    2974                    
    2975                    $C$DW$298       .dwtag  DW_TAG_enumerator
    2976                            .dwattr $C$DW$298, DW_AT_name("ApiMac_attribute_maxFrameRetries")
    2977                            .dwattr $C$DW$298, DW_AT_const_value(0x59)
    2978                            .dwattr $C$DW$298, DW_AT_decl_file("C:\Users\Einstein\MyWorkspaceCC1350\collector_cc1350lp\App
    2979                            .dwattr $C$DW$298, DW_AT_decl_line(0x2ee)
    2980                            .dwattr $C$DW$298, DW_AT_decl_column(0x05)
    2981                    
    2982                    $C$DW$299       .dwtag  DW_TAG_enumerator
    2983                            .dwattr $C$DW$299, DW_AT_name("ApiMac_attribute_responseWaitTime")
    2984                            .dwattr $C$DW$299, DW_AT_const_value(0x5a)
    2985                            .dwattr $C$DW$299, DW_AT_decl_file("C:\Users\Einstein\MyWorkspaceCC1350\collector_cc1350lp\App
    2986                            .dwattr $C$DW$299, DW_AT_decl_line(0x2f4)
    2987                            .dwattr $C$DW$299, DW_AT_decl_column(0x05)
    2988                    
    2989                    $C$DW$300       .dwtag  DW_TAG_enumerator
    2990                            .dwattr $C$DW$300, DW_AT_name("ApiMac_attribute_syncSymbolOffset")
    2991                            .dwattr $C$DW$300, DW_AT_const_value(0x5b)
    2992                            .dwattr $C$DW$300, DW_AT_decl_file("C:\Users\Einstein\MyWorkspaceCC1350\collector_cc1350lp\App
    2993                            .dwattr $C$DW$300, DW_AT_decl_line(0x2f6)
    2994                            .dwattr $C$DW$300, DW_AT_decl_column(0x05)
    2995                    
    2996                    $C$DW$301       .dwtag  DW_TAG_enumerator
    2997                            .dwattr $C$DW$301, DW_AT_name("ApiMac_attribute_eBeaconSequenceNumber")
    2998                            .dwattr $C$DW$301, DW_AT_const_value(0x5e)
    2999                            .dwattr $C$DW$301, DW_AT_decl_file("C:\Users\Einstein\MyWorkspaceCC1350\collector_cc1350lp\App
    3000                            .dwattr $C$DW$301, DW_AT_decl_line(0x2f8)
    3001                            .dwattr $C$DW$301, DW_AT_decl_column(0x05)
    3002                    
    3003                    $C$DW$302       .dwtag  DW_TAG_enumerator
    3004                            .dwattr $C$DW$302, DW_AT_name("ApiMac_attribute_eBeaconOrder")
    3005                            .dwattr $C$DW$302, DW_AT_const_value(0x5f)
    3006                            .dwattr $C$DW$302, DW_AT_decl_file("C:\Users\Einstein\MyWorkspaceCC1350\collector_cc1350lp\App
    3007                            .dwattr $C$DW$302, DW_AT_decl_line(0x2fa)
    3008                            .dwattr $C$DW$302, DW_AT_decl_column(0x05)
    3009                    
    3010                    $C$DW$303       .dwtag  DW_TAG_enumerator
    3011                            .dwattr $C$DW$303, DW_AT_name("ApiMac_attribute_offsetTimeslot")
    3012                            .dwattr $C$DW$303, DW_AT_const_value(0x61)
    3013                            .dwattr $C$DW$303, DW_AT_decl_file("C:\Users\Einstein\MyWorkspaceCC1350\collector_cc1350lp\App
    3014                            .dwattr $C$DW$303, DW_AT_decl_line(0x2fc)
    3015                            .dwattr $C$DW$303, DW_AT_decl_column(0x05)
    3016                    
    3017                    $C$DW$304       .dwtag  DW_TAG_enumerator
    3018                            .dwattr $C$DW$304, DW_AT_name("ApiMac_attribute_phyTransmitPowerSigned")
    3019                            .dwattr $C$DW$304, DW_AT_const_value(0xe0)
    3020                            .dwattr $C$DW$304, DW_AT_decl_file("C:\Users\Einstein\MyWorkspaceCC1350\collector_cc1350lp\App
    3021                            .dwattr $C$DW$304, DW_AT_decl_line(0x301)
    3022                            .dwattr $C$DW$304, DW_AT_decl_column(0x05)
    3023                    
    3024                    $C$DW$305       .dwtag  DW_TAG_enumerator
    3025                            .dwattr $C$DW$305, DW_AT_name("ApiMac_attribute_logicalChannel")
TI ARM Assembler PC v16.9.8 Sat Nov 24 22:21:09 2018

Tools Copyright (c) 1996-2017 Texas Instruments Incorporated
C:\Users\Einstein\AppData\Local\Temp\{0ED9912E-F216-4B11-AF33-9BA1337BDC1F} PAGE   56

    3026                            .dwattr $C$DW$305, DW_AT_const_value(0xe1)
    3027                            .dwattr $C$DW$305, DW_AT_decl_file("C:\Users\Einstein\MyWorkspaceCC1350\collector_cc1350lp\App
    3028                            .dwattr $C$DW$305, DW_AT_decl_line(0x303)
    3029                            .dwattr $C$DW$305, DW_AT_decl_column(0x05)
    3030                    
    3031                    $C$DW$306       .dwtag  DW_TAG_enumerator
    3032                            .dwattr $C$DW$306, DW_AT_name("ApiMac_attribute_altBackoffExponent")
    3033                            .dwattr $C$DW$306, DW_AT_const_value(0xe3)
    3034                            .dwattr $C$DW$306, DW_AT_decl_file("C:\Users\Einstein\MyWorkspaceCC1350\collector_cc1350lp\App
    3035                            .dwattr $C$DW$306, DW_AT_decl_line(0x305)
