TI ARM Assembler PC v16.9.8 Thu Nov 22 09:24:44 2018

Tools Copyright (c) 1996-2017 Texas Instruments Incorporated
C:\Users\Einstein\AppData\Local\Temp\{D2CEF35E-DD0F-4D6B-8D7C-7424DE07D15F} PAGE    1

       1                    ;******************************************************************************
       2                    ;* TI ARM C/C++ Codegen                                        PC v16.9.8.LTS *
       3                    ;* Date/Time created: Thu Nov 22 09:24:44 2018                                *
       4                    ;******************************************************************************
       5                            .compiler_opts --abi=eabi --arm_vmrs_si_workaround=off --code_state=16 --diag_wrap=off --embed
       6 00000000                   .thumb
       7                    
       8                    $C$DW$CU        .dwtag  DW_TAG_compile_unit
       9                            .dwattr $C$DW$CU, DW_AT_name("../Application/PALNA/board_palna.c")
      10                            .dwattr $C$DW$CU, DW_AT_producer("TI TI ARM C/C++ Codegen PC v16.9.8.LTS Copyright (c) 1996-20
      11                            .dwattr $C$DW$CU, DW_AT_TI_version(0x01)
      12                            .dwattr $C$DW$CU, DW_AT_comp_dir("C:\Users\Einstein\MyWorkspaceCC1350\sensor_cc1350lp\sensor_c
      13                    
      14                    $C$DW$1 .dwtag  DW_TAG_subprogram
      15                            .dwattr $C$DW$1, DW_AT_name("PIN_open")
      16                            .dwattr $C$DW$1, DW_AT_TI_symbol_name("PIN_open")
      17                            .dwattr $C$DW$1, DW_AT_type(*$C$DW$T$77)
      18                            .dwattr $C$DW$1, DW_AT_declaration
      19                            .dwattr $C$DW$1, DW_AT_external
      20                            .dwattr $C$DW$1, DW_AT_decl_file("C:/ti/simplelink_cc13x0_sdk_2_30_00_20/source/ti/drivers/PIN
      21                            .dwattr $C$DW$1, DW_AT_decl_line(0x2f5)
      22                            .dwattr $C$DW$1, DW_AT_decl_column(0x13)
      23                    $C$DW$2 .dwtag  DW_TAG_formal_parameter
      24                            .dwattr $C$DW$2, DW_AT_type(*$C$DW$T$76)
      25                    
      26                    $C$DW$3 .dwtag  DW_TAG_formal_parameter
      27                            .dwattr $C$DW$3, DW_AT_type(*$C$DW$T$133)
      28                    
      29                            .dwendtag $C$DW$1
      30                    
      31                    
      32                    $C$DW$4 .dwtag  DW_TAG_subprogram
      33                            .dwattr $C$DW$4, DW_AT_name("PIN_setOutputValue")
      34                            .dwattr $C$DW$4, DW_AT_TI_symbol_name("PIN_setOutputValue")
      35                            .dwattr $C$DW$4, DW_AT_type(*$C$DW$T$85)
      36                            .dwattr $C$DW$4, DW_AT_declaration
      37                            .dwattr $C$DW$4, DW_AT_external
      38                            .dwattr $C$DW$4, DW_AT_decl_file("C:/ti/simplelink_cc13x0_sdk_2_30_00_20/source/ti/drivers/PIN
      39                            .dwattr $C$DW$4, DW_AT_decl_line(0x367)
      40                            .dwattr $C$DW$4, DW_AT_decl_column(0x13)
      41                    $C$DW$5 .dwtag  DW_TAG_formal_parameter
      42                            .dwattr $C$DW$5, DW_AT_type(*$C$DW$T$77)
      43                    
      44                    $C$DW$6 .dwtag  DW_TAG_formal_parameter
      45                            .dwattr $C$DW$6, DW_AT_type(*$C$DW$T$78)
      46                    
      47                    $C$DW$7 .dwtag  DW_TAG_formal_parameter
      48                            .dwattr $C$DW$7, DW_AT_type(*$C$DW$T$19)
      49                    
      50                            .dwendtag $C$DW$4
      51                    
      52                    
      53                    $C$DW$8 .dwtag  DW_TAG_subprogram
      54                            .dwattr $C$DW$8, DW_AT_name("PINCC26XX_setMux")
      55                            .dwattr $C$DW$8, DW_AT_TI_symbol_name("PINCC26XX_setMux")
TI ARM Assembler PC v16.9.8 Thu Nov 22 09:24:44 2018

Tools Copyright (c) 1996-2017 Texas Instruments Incorporated
C:\Users\Einstein\AppData\Local\Temp\{D2CEF35E-DD0F-4D6B-8D7C-7424DE07D15F} PAGE    2

      56                            .dwattr $C$DW$8, DW_AT_type(*$C$DW$T$85)
      57                            .dwattr $C$DW$8, DW_AT_declaration
      58                            .dwattr $C$DW$8, DW_AT_external
      59                            .dwattr $C$DW$8, DW_AT_decl_file("C:/ti/simplelink_cc13x0_sdk_2_30_00_20/source/ti/drivers/pin
      60                            .dwattr $C$DW$8, DW_AT_decl_line(0x154)
      61                            .dwattr $C$DW$8, DW_AT_decl_column(0x13)
      62                    $C$DW$9 .dwtag  DW_TAG_formal_parameter
      63                            .dwattr $C$DW$9, DW_AT_type(*$C$DW$T$77)
      64                    
      65                    $C$DW$10        .dwtag  DW_TAG_formal_parameter
      66                            .dwattr $C$DW$10, DW_AT_type(*$C$DW$T$78)
      67                    
      68                    $C$DW$11        .dwtag  DW_TAG_formal_parameter
      69                            .dwattr $C$DW$11, DW_AT_type(*$C$DW$T$87)
      70                    
      71                            .dwendtag $C$DW$8
      72                    
      73                    
      74                    $C$DW$12        .dwtag  DW_TAG_subprogram
      75                            .dwattr $C$DW$12, DW_AT_name("CC13x0_LAUNCHXL_rfDisableCallback")
      76                            .dwattr $C$DW$12, DW_AT_TI_symbol_name("CC13x0_LAUNCHXL_rfDisableCallback")
      77                            .dwattr $C$DW$12, DW_AT_declaration
      78                            .dwattr $C$DW$12, DW_AT_external
      79                            .dwattr $C$DW$12, DW_AT_decl_file("C:\ti\simplelink_cc13x0_sdk_2_30_00_20\examples\rtos\CC1350
      80                            .dwattr $C$DW$12, DW_AT_decl_line(0xa9)
      81                            .dwattr $C$DW$12, DW_AT_decl_column(0x06)
      82                            .dwendtag $C$DW$12
      83                    
      84 00000000                   .sect   ".data:$O1$$", RW
      85                            .clink
      86                            .align  4
      87                            .elfsym ||$O1$$||,SYM_SIZE(32)
      88 00000000           ||$O1$$||:
      89 00000000                   .space  16
      90 00000010 80C0081C          .bits   -2134898660,32                  ; $O1$$.palnaPinTable[0] @ 128
      91 00000014 8080081D          .bits   -2139092963,32                  ; $O1$$.palnaPinTable[1] @ 160
      92 00000018 8080081E          .bits   -2139092962,32                  ; $O1$$.palnaPinTable[2] @ 192
      93 0000001c 000000FE          .bits   254,32                  ; $O1$$.palnaPinTable[3] @ 224
      94                    
      95                    
      96                    ;*********************************************************************
      97                    ;* GROUPED GLOBALS FOR $O1$$                                         *
      98                    ;*********************************************************************
      99          00000000! palnaPinHandle: .set    ||$O1$$||+0
     100                    $C$DW$13        .dwtag  DW_TAG_variable
     101                            .dwattr $C$DW$13, DW_AT_name("palnaPinHandle")
     102                            .dwattr $C$DW$13, DW_AT_TI_symbol_name("palnaPinHandle")
     103                            .dwattr $C$DW$13, DW_AT_type(*$C$DW$T$77)
     104                            .dwattr $C$DW$13, DW_AT_location[DW_OP_addr palnaPinHandle]
     105                            .dwattr $C$DW$13, DW_AT_decl_file("../Application/PALNA/board_palna.c")
     106                            .dwattr $C$DW$13, DW_AT_decl_line(0x5a)
     107                            .dwattr $C$DW$13, DW_AT_decl_column(0x13)
     108                    
     109          00000004! palnaPinState:  .set    ||$O1$$||+4
     110                    $C$DW$14        .dwtag  DW_TAG_variable
TI ARM Assembler PC v16.9.8 Thu Nov 22 09:24:44 2018

Tools Copyright (c) 1996-2017 Texas Instruments Incorporated
C:\Users\Einstein\AppData\Local\Temp\{D2CEF35E-DD0F-4D6B-8D7C-7424DE07D15F} PAGE    3

     111                            .dwattr $C$DW$14, DW_AT_name("palnaPinState")
     112                            .dwattr $C$DW$14, DW_AT_TI_symbol_name("palnaPinState")
     113                            .dwattr $C$DW$14, DW_AT_type(*$C$DW$T$75)
     114                            .dwattr $C$DW$14, DW_AT_location[DW_OP_addr palnaPinState]
     115                            .dwattr $C$DW$14, DW_AT_decl_file("../Application/PALNA/board_palna.c")
     116                            .dwattr $C$DW$14, DW_AT_decl_line(0x57)
     117                            .dwattr $C$DW$14, DW_AT_decl_column(0x12)
     118                    
     119          00000010! palnaPinTable:  .set    ||$O1$$||+16
     120                    $C$DW$15        .dwtag  DW_TAG_variable
     121                            .dwattr $C$DW$15, DW_AT_name("palnaPinTable")
     122                            .dwattr $C$DW$15, DW_AT_TI_symbol_name("palnaPinTable")
     123                            .dwattr $C$DW$15, DW_AT_type(*$C$DW$T$200)
     124                            .dwattr $C$DW$15, DW_AT_location[DW_OP_addr palnaPinTable]
     125                            .dwattr $C$DW$15, DW_AT_decl_file("../Application/PALNA/board_palna.c")
     126                            .dwattr $C$DW$15, DW_AT_decl_line(0x4b)
     127                            .dwattr $C$DW$15, DW_AT_decl_column(0x13)
     128                    
     129                    ;       C:\ti\ccsv7\tools\compiler\ti-cgt-arm_16.9.8.LTS\bin\armopt.exe C:/Users/Einstein/MyWorkspaceC
     130 00000000                   .sect   ".text:Board_Palna_initialize"
     131                            .clink
     132                            .thumbfunc Board_Palna_initialize
     133 00000000                   .thumb
     134                            .global Board_Palna_initialize
     135                    
     136                    $C$DW$16        .dwtag  DW_TAG_subprogram
     137                            .dwattr $C$DW$16, DW_AT_name("Board_Palna_initialize")
     138                            .dwattr $C$DW$16, DW_AT_low_pc(Board_Palna_initialize)
     139                            .dwattr $C$DW$16, DW_AT_high_pc(0x00)
     140                            .dwattr $C$DW$16, DW_AT_TI_symbol_name("Board_Palna_initialize")
     141                            .dwattr $C$DW$16, DW_AT_external
     142                            .dwattr $C$DW$16, DW_AT_TI_begin_file("../Application/PALNA/board_palna.c")
     143                            .dwattr $C$DW$16, DW_AT_TI_begin_line(0x69)
     144                            .dwattr $C$DW$16, DW_AT_TI_begin_column(0x06)
     145                            .dwattr $C$DW$16, DW_AT_decl_file("../Application/PALNA/board_palna.c")
     146                            .dwattr $C$DW$16, DW_AT_decl_line(0x69)
     147                            .dwattr $C$DW$16, DW_AT_decl_column(0x06)
     148                            .dwattr $C$DW$16, DW_AT_TI_max_frame_size(0x10)
     149                            .dwpsn  file "../Application/PALNA/board_palna.c",line 106,column 1,is_stmt,address Board_Paln
     150                    
     151                            .dwfde $C$DW$CIE, Board_Palna_initialize
     152                    $C$DW$17        .dwtag  DW_TAG_formal_parameter
     153                            .dwattr $C$DW$17, DW_AT_name("hgm")
     154                            .dwattr $C$DW$17, DW_AT_TI_symbol_name("hgm")
     155                            .dwattr $C$DW$17, DW_AT_type(*$C$DW$T$19)
     156                            .dwattr $C$DW$17, DW_AT_location[DW_OP_reg0]
     157                    
     158                    
     159                    ;*****************************************************************************
     160                    ;* FUNCTION NAME: Board_Palna_initialize                                     *
     161                    ;*                                                                           *
     162                    ;*   Regs Modified     : A1,A2,A3,A4,V1,V2,V9,SP,LR,SR                       *
     163                    ;*   Regs Used         : A1,A2,A3,A4,V1,V2,V9,SP,LR,SR                       *
     164                    ;*   Local Frame Size  : 0 Args + 0 Auto + 12 Save = 12 byte                 *
     165                    ;*****************************************************************************
TI ARM Assembler PC v16.9.8 Thu Nov 22 09:24:44 2018

Tools Copyright (c) 1996-2017 Texas Instruments Incorporated
C:\Users\Einstein\AppData\Local\Temp\{D2CEF35E-DD0F-4D6B-8D7C-7424DE07D15F} PAGE    4

     166                    Board_Palna_initialize:
     167                    ;* --------------------------------------------------------------------------*
     168                    ;* V2    assigned to $O$C1
     169                    ;* A1    assigned to $O$v1
     170                    ;* A1    assigned to $O$v1
     171                    ;* V2    assigned to $O$K6
     172                    ;* V1    assigned to hgm
     173                    $C$DW$18        .dwtag  DW_TAG_variable
     174                            .dwattr $C$DW$18, DW_AT_name("hgm")
     175                            .dwattr $C$DW$18, DW_AT_TI_symbol_name("hgm")
     176                            .dwattr $C$DW$18, DW_AT_type(*$C$DW$T$201)
     177                            .dwattr $C$DW$18, DW_AT_location[DW_OP_reg4]
     178                    
     179                            .dwcfi  cfa_offset, 0
     180 00000000 B538              PUSH      {A4, V1, V2, LR}      ; [DPU_3_PIPE]  ; [ORIG 16-BIT INS]
     181                            .dwcfi  cfa_offset, 16
     182                            .dwcfi  save_reg_to_mem, 14, -4
     183                            .dwcfi  save_reg_to_mem, 5, -8
     184                            .dwcfi  save_reg_to_mem, 4, -12
     185                            .dwcfi  save_reg_to_mem, 3, -16
     186                            .dwpsn  file "../Application/PALNA/board_palna.c",line 107,column 2,is_stmt,isa 1
     187 00000002 1C04              MOVS      V1, A1                ; [DPU_3_PIPE] |107|  ; [ORIG 16-BIT INS]
     188 00000004 D019              BEQ       ||$C$L2||             ; [DPU_3_PIPE] |107|  ; [ORIG 16-BIT INS]
     189                            ; BRANCHCC OCCURS {||$C$L2||}    ; [] |107| 
     190                    ;* --------------------------------------------------------------------------*
     191                            .dwpsn  file "../Application/PALNA/board_palna.c",line 109,column 6,is_stmt,isa 1
     192                    $C$DW$19        .dwtag  DW_TAG_TI_branch
     193                            .dwattr $C$DW$19, DW_AT_low_pc(0x00)
     194                            .dwattr $C$DW$19, DW_AT_name("CC13x0_LAUNCHXL_rfDisableCallback")
     195                            .dwattr $C$DW$19, DW_AT_TI_call
     196                    
     197 00000006 FFFEF7FF!         BL        CC13x0_LAUNCHXL_rfDisableCallback ; [DPU_3_PIPE] |109|  ; [KEEP 32-BIT INS]
     198                            ; CALL OCCURS {CC13x0_LAUNCHXL_rfDisableCallback }  ; [] |109| 
     199                            .dwpsn  file "../Application/PALNA/board_palna.c",line 111,column 3,is_stmt,isa 1
     200 0000000a 4D0C              LDR       V2, $C$CON1           ; [DPU_3_PIPE] |111|  ; [ORIG 16-BIT INS]
     201 0000000c 6828              LDR       A1, [V2, #0]          ; [DPU_3_PIPE] |111|  ; [ORIG 16-BIT INS]
     202 0000000e B978              CBNZ      A1, ||$C$L1||         ; []  ; [ORIG 16-BIT INS]
     203                            ; BRANCHCC OCCURS {||$C$L1||}    ; [] |111| 
     204                    ;* --------------------------------------------------------------------------*
     205 00000010 1D28              ADDS      A1, V2, #4            ; [DPU_3_PIPE]  ; [ORIG 16-BIT INS]
     206 00000012 0110F105          ADD       A2, V2, #16           ; [DPU_3_PIPE]  ; [KEEP 32-BIT INS]
     207                            .dwpsn  file "../Application/PALNA/board_palna.c",line 114,column 4,is_stmt,isa 1
     208                    $C$DW$20        .dwtag  DW_TAG_TI_branch
     209                            .dwattr $C$DW$20, DW_AT_low_pc(0x00)
     210                            .dwattr $C$DW$20, DW_AT_name("PIN_open")
     211                            .dwattr $C$DW$20, DW_AT_TI_call
     212                    
     213 00000016 FFFEF7FF!         BL        PIN_open              ; [DPU_3_PIPE] |114|  ; [KEEP 32-BIT INS]
     214                            ; CALL OCCURS {PIN_open }        ; [] |114| 
     215                            .dwpsn  file "../Application/PALNA/board_palna.c",line 117,column 4,is_stmt,isa 1
     216 0000001a 211D              MOVS      A2, #29               ; [DPU_3_PIPE] |117|  ; [ORIG 16-BIT INS]
     217 0000001c 222F              MOVS      A3, #47               ; [DPU_3_PIPE] |117|  ; [ORIG 16-BIT INS]
     218                            .dwpsn  file "../Application/PALNA/board_palna.c",line 114,column 4,is_stmt,isa 1
     219 0000001e 6028              STR       A1, [V2, #0]          ; [DPU_3_PIPE] |114|  ; [ORIG 16-BIT INS]
     220                            .dwpsn  file "../Application/PALNA/board_palna.c",line 117,column 4,is_stmt,isa 1
TI ARM Assembler PC v16.9.8 Thu Nov 22 09:24:44 2018

Tools Copyright (c) 1996-2017 Texas Instruments Incorporated
C:\Users\Einstein\AppData\Local\Temp\{D2CEF35E-DD0F-4D6B-8D7C-7424DE07D15F} PAGE    5

     221                    $C$DW$21        .dwtag  DW_TAG_TI_branch
     222                            .dwattr $C$DW$21, DW_AT_low_pc(0x00)
     223                            .dwattr $C$DW$21, DW_AT_name("PINCC26XX_setMux")
     224                            .dwattr $C$DW$21, DW_AT_TI_call
     225                    
     226 00000020 FFFEF7FF!         BL        PINCC26XX_setMux      ; [DPU_3_PIPE] |117|  ; [KEEP 32-BIT INS]
     227                            ; CALL OCCURS {PINCC26XX_setMux }  ; [] |117| 
     228                            .dwpsn  file "../Application/PALNA/board_palna.c",line 118,column 4,is_stmt,isa 1
     229 00000024 6828              LDR       A1, [V2, #0]          ; [DPU_3_PIPE] |118|  ; [ORIG 16-BIT INS]
     230 00000026 211E              MOVS      A2, #30               ; [DPU_3_PIPE] |118|  ; [ORIG 16-BIT INS]
     231 00000028 2230              MOVS      A3, #48               ; [DPU_3_PIPE] |118|  ; [ORIG 16-BIT INS]
     232                    $C$DW$22        .dwtag  DW_TAG_TI_branch
     233                            .dwattr $C$DW$22, DW_AT_low_pc(0x00)
     234                            .dwattr $C$DW$22, DW_AT_name("PINCC26XX_setMux")
     235                            .dwattr $C$DW$22, DW_AT_TI_call
     236                    
     237 0000002a FFFEF7FF!         BL        PINCC26XX_setMux      ; [DPU_3_PIPE] |118|  ; [KEEP 32-BIT INS]
     238                            ; CALL OCCURS {PINCC26XX_setMux }  ; [] |118| 
     239 0000002e 6828              LDR       A1, [V2, #0]          ; [DPU_3_PIPE] |118|  ; [ORIG 16-BIT INS]
     240                    ;* --------------------------------------------------------------------------*
     241 00000030           ||$C$L1||:    
     242                            .dwpsn  file "../Application/PALNA/board_palna.c",line 121,column 3,is_stmt,isa 1
     243 00000030 0201F004          AND       A3, V1, #1            ; [DPU_3_PIPE] |121|  ; [KEEP 32-BIT INS]
     244 00000034 211C              MOVS      A2, #28               ; [DPU_3_PIPE] |121|  ; [ORIG 16-BIT INS]
     245                    $C$DW$23        .dwtag  DW_TAG_TI_branch
     246                            .dwattr $C$DW$23, DW_AT_low_pc(0x00)
     247                            .dwattr $C$DW$23, DW_AT_name("PIN_setOutputValue")
     248                            .dwattr $C$DW$23, DW_AT_TI_call
     249                    
     250 00000036 FFFEF7FF!         BL        PIN_setOutputValue    ; [DPU_3_PIPE] |121|  ; [KEEP 32-BIT INS]
     251                            ; CALL OCCURS {PIN_setOutputValue }  ; [] |121| 
     252                    ;* --------------------------------------------------------------------------*
     253                    ||$C$L2||:    
     254                    $C$DW$24        .dwtag  DW_TAG_TI_branch
     255                            .dwattr $C$DW$24, DW_AT_low_pc(0x00)
     256                            .dwattr $C$DW$24, DW_AT_TI_return
     257                    
     258 0000003a BD38              POP       {A4, V1, V2, PC}      ; [DPU_3_PIPE]  ; [ORIG 16-BIT INS]
     259                            .dwcfi  cfa_offset, 0
     260                            .dwcfi  restore_reg, 5
     261                            .dwcfi  restore_reg, 4
     262                            .dwcfi  restore_reg, 3
     263                            ; BRANCH OCCURS                  ; [] 
     264                            .dwattr $C$DW$16, DW_AT_TI_end_file("../Application/PALNA/board_palna.c")
     265                            .dwattr $C$DW$16, DW_AT_TI_end_line(0x7c)
     266                            .dwattr $C$DW$16, DW_AT_TI_end_column(0x01)
     267                            .dwendentry
     268                            .dwendtag $C$DW$16
     269                    
     270                    ;******************************************************************************
     271                    ;* CONSTANT TABLE                                                             *
     272                    ;******************************************************************************
     273 0000003c                   .sect   ".text:Board_Palna_initialize"
     274                            .align  4
     275 0000003c 00000000! ||$C$CON1||:    .bits   ||$O1$$||,32
TI ARM Assembler PC v16.9.8 Thu Nov 22 09:24:44 2018

Tools Copyright (c) 1996-2017 Texas Instruments Incorporated
C:\Users\Einstein\AppData\Local\Temp\{D2CEF35E-DD0F-4D6B-8D7C-7424DE07D15F} PAGE    6

     276                    ;*****************************************************************************
     277                    ;* UNDEFINED EXTERNAL REFERENCES                                             *
     278                    ;*****************************************************************************
     279                            .global PIN_open
     280                            .global PIN_setOutputValue
     281                            .global PINCC26XX_setMux
     282                            .global CC13x0_LAUNCHXL_rfDisableCallback
     283                    
     284                    ;******************************************************************************
     285                    ;* BUILD ATTRIBUTES                                                           *
     286                    ;******************************************************************************
     287                            .battr "aeabi", Tag_File, 1, Tag_ABI_PCS_wchar_t(2)
     288                            .battr "aeabi", Tag_File, 1, Tag_ABI_FP_rounding(0)
     289                            .battr "aeabi", Tag_File, 1, Tag_ABI_FP_denormal(0)
     290                            .battr "aeabi", Tag_File, 1, Tag_ABI_FP_exceptions(0)
     291                            .battr "aeabi", Tag_File, 1, Tag_ABI_FP_number_model(1)
     292                            .battr "aeabi", Tag_File, 1, Tag_ABI_enum_size(1)
     293                            .battr "aeabi", Tag_File, 1, Tag_ABI_optimization_goals(0)
     294                            .battr "aeabi", Tag_File, 1, Tag_ABI_FP_optimization_goals(0)
     295                            .battr "TI", Tag_File, 1, Tag_Bitfield_layout(2)
     296                            .battr "aeabi", Tag_File, 1, Tag_ABI_VFP_args(3)
     297                            .battr "TI", Tag_File, 1, Tag_FP_interface(1)
     298                    
     299                    ;******************************************************************************
     300                    ;* TYPE INFORMATION                                                           *
     301                    ;******************************************************************************
     302                    
     303                    $C$DW$T$84      .dwtag  DW_TAG_enumeration_type
     304                            .dwattr $C$DW$T$84, DW_AT_byte_size(0x01)
     305                    $C$DW$25        .dwtag  DW_TAG_enumerator
     306                            .dwattr $C$DW$25, DW_AT_name("PIN_SUCCESS")
     307                            .dwattr $C$DW$25, DW_AT_const_value(0x00)
     308                            .dwattr $C$DW$25, DW_AT_decl_file("C:/ti/simplelink_cc13x0_sdk_2_30_00_20/source/ti/drivers/PI
     309                            .dwattr $C$DW$25, DW_AT_decl_line(0x2cd)
     310                            .dwattr $C$DW$25, DW_AT_decl_column(0x05)
     311                    
     312                    $C$DW$26        .dwtag  DW_TAG_enumerator
     313                            .dwattr $C$DW$26, DW_AT_name("PIN_ALREADY_ALLOCATED")
     314                            .dwattr $C$DW$26, DW_AT_const_value(0x01)
     315                            .dwattr $C$DW$26, DW_AT_decl_file("C:/ti/simplelink_cc13x0_sdk_2_30_00_20/source/ti/drivers/PI
     316                            .dwattr $C$DW$26, DW_AT_decl_line(0x2ce)
     317                            .dwattr $C$DW$26, DW_AT_decl_column(0x05)
     318                    
     319                    $C$DW$27        .dwtag  DW_TAG_enumerator
     320                            .dwattr $C$DW$27, DW_AT_name("PIN_NO_ACCESS")
     321                            .dwattr $C$DW$27, DW_AT_const_value(0x02)
     322                            .dwattr $C$DW$27, DW_AT_decl_file("C:/ti/simplelink_cc13x0_sdk_2_30_00_20/source/ti/drivers/PI
     323                            .dwattr $C$DW$27, DW_AT_decl_line(0x2cf)
     324                            .dwattr $C$DW$27, DW_AT_decl_column(0x05)
     325                    
     326                    $C$DW$28        .dwtag  DW_TAG_enumerator
     327                            .dwattr $C$DW$28, DW_AT_name("PIN_UNSUPPORTED")
     328                            .dwattr $C$DW$28, DW_AT_const_value(0x03)
     329                            .dwattr $C$DW$28, DW_AT_decl_file("C:/ti/simplelink_cc13x0_sdk_2_30_00_20/source/ti/drivers/PI
     330                            .dwattr $C$DW$28, DW_AT_decl_line(0x2d0)
TI ARM Assembler PC v16.9.8 Thu Nov 22 09:24:44 2018

Tools Copyright (c) 1996-2017 Texas Instruments Incorporated
C:\Users\Einstein\AppData\Local\Temp\{D2CEF35E-DD0F-4D6B-8D7C-7424DE07D15F} PAGE    7

     331                            .dwattr $C$DW$28, DW_AT_decl_column(0x05)
     332                    
     333                            .dwattr $C$DW$T$84, DW_AT_decl_file("C:/ti/simplelink_cc13x0_sdk_2_30_00_20/source/ti/drivers/
     334                            .dwattr $C$DW$T$84, DW_AT_decl_line(0x2cc)
     335                            .dwattr $C$DW$T$84, DW_AT_decl_column(0x0e)
     336                            .dwendtag $C$DW$T$84
     337                    
     338                    $C$DW$T$85      .dwtag  DW_TAG_typedef
     339                            .dwattr $C$DW$T$85, DW_AT_name("PIN_Status")
     340                            .dwattr $C$DW$T$85, DW_AT_type(*$C$DW$T$84)
     341                            .dwattr $C$DW$T$85, DW_AT_language(DW_LANG_C)
     342                            .dwattr $C$DW$T$85, DW_AT_decl_file("C:/ti/simplelink_cc13x0_sdk_2_30_00_20/source/ti/drivers/
     343                            .dwattr $C$DW$T$85, DW_AT_decl_line(0x2d1)
     344                            .dwattr $C$DW$T$85, DW_AT_decl_column(0x03)
     345                    
     346                    
     347                    $C$DW$T$60      .dwtag  DW_TAG_structure_type
     348                            .dwattr $C$DW$T$60, DW_AT_byte_size(0x4c)
     349                    $C$DW$29        .dwtag  DW_TAG_member
     350                            .dwattr $C$DW$29, DW_AT_type(*$C$DW$T$24)
     351                            .dwattr $C$DW$29, DW_AT_name("Crc32")
     352                            .dwattr $C$DW$29, DW_AT_TI_symbol_name("Crc32")
     353                            .dwattr $C$DW$29, DW_AT_data_member_location[DW_OP_plus_uconst 0x0]
     354                            .dwattr $C$DW$29, DW_AT_accessibility(DW_ACCESS_public)
     355                            .dwattr $C$DW$29, DW_AT_decl_file("C:\ti\simplelink_cc13x0_sdk_2_30_00_20\source\ti\devices\cc
     356                            .dwattr $C$DW$29, DW_AT_decl_line(0x76)
     357                            .dwattr $C$DW$29, DW_AT_decl_column(0x25)
     358                    
     359                    $C$DW$30        .dwtag  DW_TAG_member
     360                            .dwattr $C$DW$30, DW_AT_type(*$C$DW$T$27)
     361                            .dwattr $C$DW$30, DW_AT_name("FlashGetSize")
     362                            .dwattr $C$DW$30, DW_AT_TI_symbol_name("FlashGetSize")
     363                            .dwattr $C$DW$30, DW_AT_data_member_location[DW_OP_plus_uconst 0x4]
     364                            .dwattr $C$DW$30, DW_AT_accessibility(DW_ACCESS_public)
     365                            .dwattr $C$DW$30, DW_AT_decl_file("C:\ti\simplelink_cc13x0_sdk_2_30_00_20\source\ti\devices\cc
     366                            .dwattr $C$DW$30, DW_AT_decl_line(0x77)
     367                            .dwattr $C$DW$30, DW_AT_decl_column(0x25)
     368                    
     369                    $C$DW$31        .dwtag  DW_TAG_member
     370                            .dwattr $C$DW$31, DW_AT_type(*$C$DW$T$28)
     371                            .dwattr $C$DW$31, DW_AT_name("GetChipId")
     372                            .dwattr $C$DW$31, DW_AT_TI_symbol_name("GetChipId")
     373                            .dwattr $C$DW$31, DW_AT_data_member_location[DW_OP_plus_uconst 0x8]
     374                            .dwattr $C$DW$31, DW_AT_accessibility(DW_ACCESS_public)
     375                            .dwattr $C$DW$31, DW_AT_decl_file("C:\ti\simplelink_cc13x0_sdk_2_30_00_20\source\ti\devices\cc
     376                            .dwattr $C$DW$31, DW_AT_decl_line(0x78)
     377                            .dwattr $C$DW$31, DW_AT_decl_column(0x25)
     378                    
     379                    $C$DW$32        .dwtag  DW_TAG_member
     380                            .dwattr $C$DW$32, DW_AT_type(*$C$DW$T$31)
     381                            .dwattr $C$DW$32, DW_AT_name("ReservedLocation1")
     382                            .dwattr $C$DW$32, DW_AT_TI_symbol_name("ReservedLocation1")
     383                            .dwattr $C$DW$32, DW_AT_data_member_location[DW_OP_plus_uconst 0xc]
     384                            .dwattr $C$DW$32, DW_AT_accessibility(DW_ACCESS_public)
     385                            .dwattr $C$DW$32, DW_AT_decl_file("C:\ti\simplelink_cc13x0_sdk_2_30_00_20\source\ti\devices\cc
TI ARM Assembler PC v16.9.8 Thu Nov 22 09:24:44 2018

Tools Copyright (c) 1996-2017 Texas Instruments Incorporated
C:\Users\Einstein\AppData\Local\Temp\{D2CEF35E-DD0F-4D6B-8D7C-7424DE07D15F} PAGE    8

     386                            .dwattr $C$DW$32, DW_AT_decl_line(0x79)
     387                            .dwattr $C$DW$32, DW_AT_decl_column(0x25)
     388                    
     389                    $C$DW$33        .dwtag  DW_TAG_member
     390                            .dwattr $C$DW$33, DW_AT_type(*$C$DW$T$32)
     391                            .dwattr $C$DW$33, DW_AT_name("ReservedLocation2")
     392                            .dwattr $C$DW$33, DW_AT_TI_symbol_name("ReservedLocation2")
     393                            .dwattr $C$DW$33, DW_AT_data_member_location[DW_OP_plus_uconst 0x10]
     394                            .dwattr $C$DW$33, DW_AT_accessibility(DW_ACCESS_public)
     395                            .dwattr $C$DW$33, DW_AT_decl_file("C:\ti\simplelink_cc13x0_sdk_2_30_00_20\source\ti\devices\cc
     396                            .dwattr $C$DW$33, DW_AT_decl_line(0x7a)
     397                            .dwattr $C$DW$33, DW_AT_decl_column(0x25)
     398                    
     399                    $C$DW$34        .dwtag  DW_TAG_member
     400                            .dwattr $C$DW$34, DW_AT_type(*$C$DW$T$33)
     401                            .dwattr $C$DW$34, DW_AT_name("ReservedLocation3")
     402                            .dwattr $C$DW$34, DW_AT_TI_symbol_name("ReservedLocation3")
     403                            .dwattr $C$DW$34, DW_AT_data_member_location[DW_OP_plus_uconst 0x14]
     404                            .dwattr $C$DW$34, DW_AT_accessibility(DW_ACCESS_public)
     405                            .dwattr $C$DW$34, DW_AT_decl_file("C:\ti\simplelink_cc13x0_sdk_2_30_00_20\source\ti\devices\cc
     406                            .dwattr $C$DW$34, DW_AT_decl_line(0x7b)
     407                            .dwattr $C$DW$34, DW_AT_decl_column(0x25)
     408                    
     409                    $C$DW$35        .dwtag  DW_TAG_member
     410                            .dwattr $C$DW$35, DW_AT_type(*$C$DW$T$36)
     411                            .dwattr $C$DW$35, DW_AT_name("ResetDevice")
     412                            .dwattr $C$DW$35, DW_AT_TI_symbol_name("ResetDevice")
     413                            .dwattr $C$DW$35, DW_AT_data_member_location[DW_OP_plus_uconst 0x18]
     414                            .dwattr $C$DW$35, DW_AT_accessibility(DW_ACCESS_public)
     415                            .dwattr $C$DW$35, DW_AT_decl_file("C:\ti\simplelink_cc13x0_sdk_2_30_00_20\source\ti\devices\cc
     416                            .dwattr $C$DW$35, DW_AT_decl_line(0x7c)
     417                            .dwattr $C$DW$35, DW_AT_decl_column(0x25)
     418                    
     419                    $C$DW$36        .dwtag  DW_TAG_member
     420                            .dwattr $C$DW$36, DW_AT_type(*$C$DW$T$41)
     421                            .dwattr $C$DW$36, DW_AT_name("Fletcher32")
     422                            .dwattr $C$DW$36, DW_AT_TI_symbol_name("Fletcher32")
     423                            .dwattr $C$DW$36, DW_AT_data_member_location[DW_OP_plus_uconst 0x1c]
     424                            .dwattr $C$DW$36, DW_AT_accessibility(DW_ACCESS_public)
     425                            .dwattr $C$DW$36, DW_AT_decl_file("C:\ti\simplelink_cc13x0_sdk_2_30_00_20\source\ti\devices\cc
     426                            .dwattr $C$DW$36, DW_AT_decl_line(0x7d)
     427                            .dwattr $C$DW$36, DW_AT_decl_column(0x25)
     428                    
     429                    $C$DW$37        .dwtag  DW_TAG_member
     430                            .dwattr $C$DW$37, DW_AT_type(*$C$DW$T$45)
     431                            .dwattr $C$DW$37, DW_AT_name("MinValue")
     432                            .dwattr $C$DW$37, DW_AT_TI_symbol_name("MinValue")
     433                            .dwattr $C$DW$37, DW_AT_data_member_location[DW_OP_plus_uconst 0x20]
     434                            .dwattr $C$DW$37, DW_AT_accessibility(DW_ACCESS_public)
     435                            .dwattr $C$DW$37, DW_AT_decl_file("C:\ti\simplelink_cc13x0_sdk_2_30_00_20\source\ti\devices\cc
     436                            .dwattr $C$DW$37, DW_AT_decl_line(0x7e)
     437                            .dwattr $C$DW$37, DW_AT_decl_column(0x25)
     438                    
     439                    $C$DW$38        .dwtag  DW_TAG_member
     440                            .dwattr $C$DW$38, DW_AT_type(*$C$DW$T$46)
TI ARM Assembler PC v16.9.8 Thu Nov 22 09:24:44 2018

Tools Copyright (c) 1996-2017 Texas Instruments Incorporated
C:\Users\Einstein\AppData\Local\Temp\{D2CEF35E-DD0F-4D6B-8D7C-7424DE07D15F} PAGE    9

     441                            .dwattr $C$DW$38, DW_AT_name("MaxValue")
     442                            .dwattr $C$DW$38, DW_AT_TI_symbol_name("MaxValue")
     443                            .dwattr $C$DW$38, DW_AT_data_member_location[DW_OP_plus_uconst 0x24]
     444                            .dwattr $C$DW$38, DW_AT_accessibility(DW_ACCESS_public)
     445                            .dwattr $C$DW$38, DW_AT_decl_file("C:\ti\simplelink_cc13x0_sdk_2_30_00_20\source\ti\devices\cc
     446                            .dwattr $C$DW$38, DW_AT_decl_line(0x7f)
     447                            .dwattr $C$DW$38, DW_AT_decl_column(0x25)
     448                    
     449                    $C$DW$39        .dwtag  DW_TAG_member
     450                            .dwattr $C$DW$39, DW_AT_type(*$C$DW$T$47)
     451                            .dwattr $C$DW$39, DW_AT_name("MeanValue")
     452                            .dwattr $C$DW$39, DW_AT_TI_symbol_name("MeanValue")
     453                            .dwattr $C$DW$39, DW_AT_data_member_location[DW_OP_plus_uconst 0x28]
     454                            .dwattr $C$DW$39, DW_AT_accessibility(DW_ACCESS_public)
     455                            .dwattr $C$DW$39, DW_AT_decl_file("C:\ti\simplelink_cc13x0_sdk_2_30_00_20\source\ti\devices\cc
     456                            .dwattr $C$DW$39, DW_AT_decl_line(0x80)
     457                            .dwattr $C$DW$39, DW_AT_decl_column(0x25)
     458                    
     459                    $C$DW$40        .dwtag  DW_TAG_member
     460                            .dwattr $C$DW$40, DW_AT_type(*$C$DW$T$48)
     461                            .dwattr $C$DW$40, DW_AT_name("StandDeviationValue")
     462                            .dwattr $C$DW$40, DW_AT_TI_symbol_name("StandDeviationValue")
     463                            .dwattr $C$DW$40, DW_AT_data_member_location[DW_OP_plus_uconst 0x2c]
     464                            .dwattr $C$DW$40, DW_AT_accessibility(DW_ACCESS_public)
     465                            .dwattr $C$DW$40, DW_AT_decl_file("C:\ti\simplelink_cc13x0_sdk_2_30_00_20\source\ti\devices\cc
     466                            .dwattr $C$DW$40, DW_AT_decl_line(0x81)
     467                            .dwattr $C$DW$40, DW_AT_decl_column(0x25)
     468                    
     469                    $C$DW$41        .dwtag  DW_TAG_member
     470                            .dwattr $C$DW$41, DW_AT_type(*$C$DW$T$51)
     471                            .dwattr $C$DW$41, DW_AT_name("ReservedLocation4")
     472                            .dwattr $C$DW$41, DW_AT_TI_symbol_name("ReservedLocation4")
     473                            .dwattr $C$DW$41, DW_AT_data_member_location[DW_OP_plus_uconst 0x30]
     474                            .dwattr $C$DW$41, DW_AT_accessibility(DW_ACCESS_public)
     475                            .dwattr $C$DW$41, DW_AT_decl_file("C:\ti\simplelink_cc13x0_sdk_2_30_00_20\source\ti\devices\cc
     476                            .dwattr $C$DW$41, DW_AT_decl_line(0x82)
     477                            .dwattr $C$DW$41, DW_AT_decl_column(0x25)
     478                    
     479                    $C$DW$42        .dwtag  DW_TAG_member
     480                            .dwattr $C$DW$42, DW_AT_type(*$C$DW$T$52)
     481                            .dwattr $C$DW$42, DW_AT_name("ReservedLocation5")
     482                            .dwattr $C$DW$42, DW_AT_TI_symbol_name("ReservedLocation5")
     483                            .dwattr $C$DW$42, DW_AT_data_member_location[DW_OP_plus_uconst 0x34]
     484                            .dwattr $C$DW$42, DW_AT_accessibility(DW_ACCESS_public)
     485                            .dwattr $C$DW$42, DW_AT_decl_file("C:\ti\simplelink_cc13x0_sdk_2_30_00_20\source\ti\devices\cc
     486                            .dwattr $C$DW$42, DW_AT_decl_line(0x83)
     487                            .dwattr $C$DW$42, DW_AT_decl_column(0x25)
     488                    
     489                    $C$DW$43        .dwtag  DW_TAG_member
     490                            .dwattr $C$DW$43, DW_AT_type(*$C$DW$T$53)
     491                            .dwattr $C$DW$43, DW_AT_name("HFSourceSafeSwitch")
     492                            .dwattr $C$DW$43, DW_AT_TI_symbol_name("HFSourceSafeSwitch")
     493                            .dwattr $C$DW$43, DW_AT_data_member_location[DW_OP_plus_uconst 0x38]
     494                            .dwattr $C$DW$43, DW_AT_accessibility(DW_ACCESS_public)
     495                            .dwattr $C$DW$43, DW_AT_decl_file("C:\ti\simplelink_cc13x0_sdk_2_30_00_20\source\ti\devices\cc
TI ARM Assembler PC v16.9.8 Thu Nov 22 09:24:44 2018

Tools Copyright (c) 1996-2017 Texas Instruments Incorporated
C:\Users\Einstein\AppData\Local\Temp\{D2CEF35E-DD0F-4D6B-8D7C-7424DE07D15F} PAGE   10

     496                            .dwattr $C$DW$43, DW_AT_decl_line(0x84)
     497                            .dwattr $C$DW$43, DW_AT_decl_column(0x25)
     498                    
     499                    $C$DW$44        .dwtag  DW_TAG_member
     500                            .dwattr $C$DW$44, DW_AT_type(*$C$DW$T$56)
     501                            .dwattr $C$DW$44, DW_AT_name("SelectCompAInput")
     502                            .dwattr $C$DW$44, DW_AT_TI_symbol_name("SelectCompAInput")
     503                            .dwattr $C$DW$44, DW_AT_data_member_location[DW_OP_plus_uconst 0x3c]
     504                            .dwattr $C$DW$44, DW_AT_accessibility(DW_ACCESS_public)
     505                            .dwattr $C$DW$44, DW_AT_decl_file("C:\ti\simplelink_cc13x0_sdk_2_30_00_20\source\ti\devices\cc
     506                            .dwattr $C$DW$44, DW_AT_decl_line(0x85)
     507                            .dwattr $C$DW$44, DW_AT_decl_column(0x25)
     508                    
     509                    $C$DW$45        .dwtag  DW_TAG_member
     510                            .dwattr $C$DW$45, DW_AT_type(*$C$DW$T$57)
     511                            .dwattr $C$DW$45, DW_AT_name("SelectCompARef")
     512                            .dwattr $C$DW$45, DW_AT_TI_symbol_name("SelectCompARef")
     513                            .dwattr $C$DW$45, DW_AT_data_member_location[DW_OP_plus_uconst 0x40]
     514                            .dwattr $C$DW$45, DW_AT_accessibility(DW_ACCESS_public)
     515                            .dwattr $C$DW$45, DW_AT_decl_file("C:\ti\simplelink_cc13x0_sdk_2_30_00_20\source\ti\devices\cc
     516                            .dwattr $C$DW$45, DW_AT_decl_line(0x86)
     517                            .dwattr $C$DW$45, DW_AT_decl_column(0x25)
     518                    
     519                    $C$DW$46        .dwtag  DW_TAG_member
     520                            .dwattr $C$DW$46, DW_AT_type(*$C$DW$T$58)
     521                            .dwattr $C$DW$46, DW_AT_name("SelectADCCompBInput")
     522                            .dwattr $C$DW$46, DW_AT_TI_symbol_name("SelectADCCompBInput")
     523                            .dwattr $C$DW$46, DW_AT_data_member_location[DW_OP_plus_uconst 0x44]
     524                            .dwattr $C$DW$46, DW_AT_accessibility(DW_ACCESS_public)
     525                            .dwattr $C$DW$46, DW_AT_decl_file("C:\ti\simplelink_cc13x0_sdk_2_30_00_20\source\ti\devices\cc
     526                            .dwattr $C$DW$46, DW_AT_decl_line(0x87)
     527                            .dwattr $C$DW$46, DW_AT_decl_column(0x25)
     528                    
     529                    $C$DW$47        .dwtag  DW_TAG_member
     530                            .dwattr $C$DW$47, DW_AT_type(*$C$DW$T$59)
     531                            .dwattr $C$DW$47, DW_AT_name("SelectCompBRef")
     532                            .dwattr $C$DW$47, DW_AT_TI_symbol_name("SelectCompBRef")
     533                            .dwattr $C$DW$47, DW_AT_data_member_location[DW_OP_plus_uconst 0x48]
     534                            .dwattr $C$DW$47, DW_AT_accessibility(DW_ACCESS_public)
     535                            .dwattr $C$DW$47, DW_AT_decl_file("C:\ti\simplelink_cc13x0_sdk_2_30_00_20\source\ti\devices\cc
     536                            .dwattr $C$DW$47, DW_AT_decl_line(0x88)
     537                            .dwattr $C$DW$47, DW_AT_decl_column(0x25)
     538                    
     539                            .dwattr $C$DW$T$60, DW_AT_decl_file("C:\ti\simplelink_cc13x0_sdk_2_30_00_20\source\ti\devices\
     540                            .dwattr $C$DW$T$60, DW_AT_decl_line(0x75)
     541                            .dwattr $C$DW$T$60, DW_AT_decl_column(0x01)
     542                            .dwendtag $C$DW$T$60
     543                    
     544                    $C$DW$T$93      .dwtag  DW_TAG_typedef
     545                            .dwattr $C$DW$T$93, DW_AT_name("HARD_API_T")
     546                            .dwattr $C$DW$T$93, DW_AT_type(*$C$DW$T$60)
     547                            .dwattr $C$DW$T$93, DW_AT_language(DW_LANG_C)
     548                            .dwattr $C$DW$T$93, DW_AT_decl_file("C:\ti\simplelink_cc13x0_sdk_2_30_00_20\source\ti\devices\
     549                            .dwattr $C$DW$T$93, DW_AT_decl_line(0x89)
     550                            .dwattr $C$DW$T$93, DW_AT_decl_column(0x03)
TI ARM Assembler PC v16.9.8 Thu Nov 22 09:24:44 2018

Tools Copyright (c) 1996-2017 Texas Instruments Incorporated
C:\Users\Einstein\AppData\Local\Temp\{D2CEF35E-DD0F-4D6B-8D7C-7424DE07D15F} PAGE   11

     551                    
     552                    
     553                    $C$DW$T$64      .dwtag  DW_TAG_union_type
     554                            .dwattr $C$DW$T$64, DW_AT_byte_size(0x04)
     555                    $C$DW$48        .dwtag  DW_TAG_member
     556                            .dwattr $C$DW$48, DW_AT_type(*$C$DW$T$61)
     557                            .dwattr $C$DW$48, DW_AT_name("f")
     558                            .dwattr $C$DW$48, DW_AT_TI_symbol_name("f")
     559                            .dwattr $C$DW$48, DW_AT_data_member_location[DW_OP_plus_uconst 0x0]
     560                            .dwattr $C$DW$48, DW_AT_accessibility(DW_ACCESS_public)
     561                            .dwattr $C$DW$48, DW_AT_decl_file("C:/ti/xdctools_3_50_04_43_core/packages/xdc/std.h")
     562                            .dwattr $C$DW$48, DW_AT_decl_line(0xb7)
     563                            .dwattr $C$DW$48, DW_AT_decl_column(0x0f)
     564                    
     565                    $C$DW$49        .dwtag  DW_TAG_member
     566                            .dwattr $C$DW$49, DW_AT_type(*$C$DW$T$63)
     567                            .dwattr $C$DW$49, DW_AT_name("a")
     568                            .dwattr $C$DW$49, DW_AT_TI_symbol_name("a")
     569                            .dwattr $C$DW$49, DW_AT_data_member_location[DW_OP_plus_uconst 0x0]
     570                            .dwattr $C$DW$49, DW_AT_accessibility(DW_ACCESS_public)
     571                            .dwattr $C$DW$49, DW_AT_decl_file("C:/ti/xdctools_3_50_04_43_core/packages/xdc/std.h")
     572                            .dwattr $C$DW$49, DW_AT_decl_line(0xb8)
     573                            .dwattr $C$DW$49, DW_AT_decl_column(0x0f)
     574                    
     575                            .dwattr $C$DW$T$64, DW_AT_decl_file("C:/ti/xdctools_3_50_04_43_core/packages/xdc/std.h")
     576                            .dwattr $C$DW$T$64, DW_AT_decl_line(0xb6)
     577                            .dwattr $C$DW$T$64, DW_AT_decl_column(0x0f)
     578                            .dwendtag $C$DW$T$64
     579                    
     580                    $C$DW$T$94      .dwtag  DW_TAG_typedef
     581                            .dwattr $C$DW$T$94, DW_AT_name("xdc_FloatData")
     582                            .dwattr $C$DW$T$94, DW_AT_type(*$C$DW$T$64)
     583                            .dwattr $C$DW$T$94, DW_AT_language(DW_LANG_C)
     584                            .dwattr $C$DW$T$94, DW_AT_decl_file("C:/ti/xdctools_3_50_04_43_core/packages/xdc/std.h")
     585                            .dwattr $C$DW$T$94, DW_AT_decl_line(0xb9)
     586                            .dwattr $C$DW$T$94, DW_AT_decl_column(0x03)
     587                    
     588                    
     589                    $C$DW$T$67      .dwtag  DW_TAG_structure_type
     590                            .dwattr $C$DW$T$67, DW_AT_name(".ggroup1")
     591                            .dwattr $C$DW$T$67, DW_AT_byte_size(0x20)
     592                    $C$DW$50        .dwtag  DW_TAG_member
     593                            .dwattr $C$DW$50, DW_AT_type(*$C$DW$T$65)
     594                            .dwattr $C$DW$50, DW_AT_name("palnaPinHandle")
     595                            .dwattr $C$DW$50, DW_AT_TI_symbol_name("palnaPinHandle")
     596                            .dwattr $C$DW$50, DW_AT_data_member_location[DW_OP_plus_uconst 0x0]
     597                            .dwattr $C$DW$50, DW_AT_accessibility(DW_ACCESS_public)
     598                    
     599                    $C$DW$51        .dwtag  DW_TAG_member
     600                            .dwattr $C$DW$51, DW_AT_type(*$C$DW$T$82)
     601                            .dwattr $C$DW$51, DW_AT_name("palnaPinState")
     602                            .dwattr $C$DW$51, DW_AT_TI_symbol_name("palnaPinState")
     603                            .dwattr $C$DW$51, DW_AT_data_member_location[DW_OP_plus_uconst 0x4]
     604                            .dwattr $C$DW$51, DW_AT_accessibility(DW_ACCESS_public)
     605                    
TI ARM Assembler PC v16.9.8 Thu Nov 22 09:24:44 2018

Tools Copyright (c) 1996-2017 Texas Instruments Incorporated
C:\Users\Einstein\AppData\Local\Temp\{D2CEF35E-DD0F-4D6B-8D7C-7424DE07D15F} PAGE   12

     606                    $C$DW$52        .dwtag  DW_TAG_member
     607                            .dwattr $C$DW$52, DW_AT_type(*$C$DW$T$66)
     608                            .dwattr $C$DW$52, DW_AT_name("palnaPinTable")
     609                            .dwattr $C$DW$52, DW_AT_TI_symbol_name("palnaPinTable")
     610                            .dwattr $C$DW$52, DW_AT_data_member_location[DW_OP_plus_uconst 0x10]
     611                            .dwattr $C$DW$52, DW_AT_accessibility(DW_ACCESS_public)
     612                    
     613                            .dwendtag $C$DW$T$67
     614                    
     615                    
     616                    $C$DW$T$96      .dwtag  DW_TAG_enumeration_type
     617                            .dwattr $C$DW$T$96, DW_AT_name("CC1350_LAUNCHXL_ADCBuf0ChannelName")
     618                            .dwattr $C$DW$T$96, DW_AT_byte_size(0x01)
     619                    $C$DW$53        .dwtag  DW_TAG_enumerator
     620                            .dwattr $C$DW$53, DW_AT_name("CC1350_LAUNCHXL_ADCBUF0CHANNEL0")
     621                            .dwattr $C$DW$53, DW_AT_const_value(0x00)
     622                            .dwattr $C$DW$53, DW_AT_decl_file("C:\ti\simplelink_cc13x0_sdk_2_30_00_20\examples\rtos\CC1350
     623                            .dwattr $C$DW$53, DW_AT_decl_line(0xba)
     624                            .dwattr $C$DW$53, DW_AT_decl_column(0x05)
     625                    
     626                    $C$DW$54        .dwtag  DW_TAG_enumerator
     627                            .dwattr $C$DW$54, DW_AT_name("CC1350_LAUNCHXL_ADCBUF0CHANNEL1")
     628                            .dwattr $C$DW$54, DW_AT_const_value(0x01)
     629                            .dwattr $C$DW$54, DW_AT_decl_file("C:\ti\simplelink_cc13x0_sdk_2_30_00_20\examples\rtos\CC1350
     630                            .dwattr $C$DW$54, DW_AT_decl_line(0xbb)
     631                            .dwattr $C$DW$54, DW_AT_decl_column(0x05)
     632                    
     633                    $C$DW$55        .dwtag  DW_TAG_enumerator
     634                            .dwattr $C$DW$55, DW_AT_name("CC1350_LAUNCHXL_ADCBUF0CHANNEL2")
     635                            .dwattr $C$DW$55, DW_AT_const_value(0x02)
     636                            .dwattr $C$DW$55, DW_AT_decl_file("C:\ti\simplelink_cc13x0_sdk_2_30_00_20\examples\rtos\CC1350
     637                            .dwattr $C$DW$55, DW_AT_decl_line(0xbc)
     638                            .dwattr $C$DW$55, DW_AT_decl_column(0x05)
     639                    
     640                    $C$DW$56        .dwtag  DW_TAG_enumerator
     641                            .dwattr $C$DW$56, DW_AT_name("CC1350_LAUNCHXL_ADCBUF0CHANNEL3")
     642                            .dwattr $C$DW$56, DW_AT_const_value(0x03)
     643                            .dwattr $C$DW$56, DW_AT_decl_file("C:\ti\simplelink_cc13x0_sdk_2_30_00_20\examples\rtos\CC1350
     644                            .dwattr $C$DW$56, DW_AT_decl_line(0xbd)
     645                            .dwattr $C$DW$56, DW_AT_decl_column(0x05)
     646                    
     647                    $C$DW$57        .dwtag  DW_TAG_enumerator
     648                            .dwattr $C$DW$57, DW_AT_name("CC1350_LAUNCHXL_ADCBUF0CHANNEL4")
     649                            .dwattr $C$DW$57, DW_AT_const_value(0x04)
     650                            .dwattr $C$DW$57, DW_AT_decl_file("C:\ti\simplelink_cc13x0_sdk_2_30_00_20\examples\rtos\CC1350
     651                            .dwattr $C$DW$57, DW_AT_decl_line(0xbe)
     652                            .dwattr $C$DW$57, DW_AT_decl_column(0x05)
     653                    
     654                    $C$DW$58        .dwtag  DW_TAG_enumerator
     655                            .dwattr $C$DW$58, DW_AT_name("CC1350_LAUNCHXL_ADCBUF0CHANNEL5")
     656                            .dwattr $C$DW$58, DW_AT_const_value(0x05)
     657                            .dwattr $C$DW$58, DW_AT_decl_file("C:\ti\simplelink_cc13x0_sdk_2_30_00_20\examples\rtos\CC1350
     658                            .dwattr $C$DW$58, DW_AT_decl_line(0xbf)
     659                            .dwattr $C$DW$58, DW_AT_decl_column(0x05)
     660                    
TI ARM Assembler PC v16.9.8 Thu Nov 22 09:24:44 2018

Tools Copyright (c) 1996-2017 Texas Instruments Incorporated
C:\Users\Einstein\AppData\Local\Temp\{D2CEF35E-DD0F-4D6B-8D7C-7424DE07D15F} PAGE   13

     661                    $C$DW$59        .dwtag  DW_TAG_enumerator
     662                            .dwattr $C$DW$59, DW_AT_name("CC1350_LAUNCHXL_ADCBUF0CHANNEL6")
     663                            .dwattr $C$DW$59, DW_AT_const_value(0x06)
     664                            .dwattr $C$DW$59, DW_AT_decl_file("C:\ti\simplelink_cc13x0_sdk_2_30_00_20\examples\rtos\CC1350
     665                            .dwattr $C$DW$59, DW_AT_decl_line(0xc0)
     666                            .dwattr $C$DW$59, DW_AT_decl_column(0x05)
     667                    
     668                    $C$DW$60        .dwtag  DW_TAG_enumerator
     669                            .dwattr $C$DW$60, DW_AT_name("CC1350_LAUNCHXL_ADCBUF0CHANNEL7")
     670                            .dwattr $C$DW$60, DW_AT_const_value(0x07)
     671                            .dwattr $C$DW$60, DW_AT_decl_file("C:\ti\simplelink_cc13x0_sdk_2_30_00_20\examples\rtos\CC1350
     672                            .dwattr $C$DW$60, DW_AT_decl_line(0xc1)
     673                            .dwattr $C$DW$60, DW_AT_decl_column(0x05)
     674                    
     675                    $C$DW$61        .dwtag  DW_TAG_enumerator
     676                            .dwattr $C$DW$61, DW_AT_name("CC1350_LAUNCHXL_ADCBUF0CHANNELVDDS")
     677                            .dwattr $C$DW$61, DW_AT_const_value(0x08)
     678                            .dwattr $C$DW$61, DW_AT_decl_file("C:\ti\simplelink_cc13x0_sdk_2_30_00_20\examples\rtos\CC1350
     679                            .dwattr $C$DW$61, DW_AT_decl_line(0xc2)
     680                            .dwattr $C$DW$61, DW_AT_decl_column(0x05)
     681                    
     682                    $C$DW$62        .dwtag  DW_TAG_enumerator
     683                            .dwattr $C$DW$62, DW_AT_name("CC1350_LAUNCHXL_ADCBUF0CHANNELDCOUPL")
     684                            .dwattr $C$DW$62, DW_AT_const_value(0x09)
     685                            .dwattr $C$DW$62, DW_AT_decl_file("C:\ti\simplelink_cc13x0_sdk_2_30_00_20\examples\rtos\CC1350
     686                            .dwattr $C$DW$62, DW_AT_decl_line(0xc3)
     687                            .dwattr $C$DW$62, DW_AT_decl_column(0x05)
     688                    
     689                    $C$DW$63        .dwtag  DW_TAG_enumerator
     690                            .dwattr $C$DW$63, DW_AT_name("CC1350_LAUNCHXL_ADCBUF0CHANNELVSS")
     691                            .dwattr $C$DW$63, DW_AT_const_value(0x0a)
     692                            .dwattr $C$DW$63, DW_AT_decl_file("C:\ti\simplelink_cc13x0_sdk_2_30_00_20\examples\rtos\CC1350
     693                            .dwattr $C$DW$63, DW_AT_decl_line(0xc4)
     694                            .dwattr $C$DW$63, DW_AT_decl_column(0x05)
     695                    
     696                    $C$DW$64        .dwtag  DW_TAG_enumerator
     697                            .dwattr $C$DW$64, DW_AT_name("CC1350_LAUNCHXL_ADCBUF0CHANNELCOUNT")
     698                            .dwattr $C$DW$64, DW_AT_const_value(0x0b)
     699                            .dwattr $C$DW$64, DW_AT_decl_file("C:\ti\simplelink_cc13x0_sdk_2_30_00_20\examples\rtos\CC1350
     700                            .dwattr $C$DW$64, DW_AT_decl_line(0xc6)
     701                            .dwattr $C$DW$64, DW_AT_decl_column(0x05)
     702                    
     703                            .dwattr $C$DW$T$96, DW_AT_decl_file("C:\ti\simplelink_cc13x0_sdk_2_30_00_20\examples\rtos\CC13
     704                            .dwattr $C$DW$T$96, DW_AT_decl_line(0xb9)
     705                            .dwattr $C$DW$T$96, DW_AT_decl_column(0x0e)
     706                            .dwendtag $C$DW$T$96
     707                    
     708                    $C$DW$T$97      .dwtag  DW_TAG_typedef
     709                            .dwattr $C$DW$T$97, DW_AT_name("CC1350_LAUNCHXL_ADCBuf0ChannelName")
     710                            .dwattr $C$DW$T$97, DW_AT_type(*$C$DW$T$96)
     711                            .dwattr $C$DW$T$97, DW_AT_language(DW_LANG_C)
     712                            .dwattr $C$DW$T$97, DW_AT_decl_file("C:\ti\simplelink_cc13x0_sdk_2_30_00_20\examples\rtos\CC13
     713                            .dwattr $C$DW$T$97, DW_AT_decl_line(0xc7)
     714                            .dwattr $C$DW$T$97, DW_AT_decl_column(0x03)
     715                    
TI ARM Assembler PC v16.9.8 Thu Nov 22 09:24:44 2018

Tools Copyright (c) 1996-2017 Texas Instruments Incorporated
C:\Users\Einstein\AppData\Local\Temp\{D2CEF35E-DD0F-4D6B-8D7C-7424DE07D15F} PAGE   14

     716                    
     717                    $C$DW$T$98      .dwtag  DW_TAG_enumeration_type
     718                            .dwattr $C$DW$T$98, DW_AT_name("CC1350_LAUNCHXL_ADCBufName")
     719                            .dwattr $C$DW$T$98, DW_AT_byte_size(0x01)
     720                    $C$DW$65        .dwtag  DW_TAG_enumerator
     721                            .dwattr $C$DW$65, DW_AT_name("CC1350_LAUNCHXL_ADCBUF0")
     722                            .dwattr $C$DW$65, DW_AT_const_value(0x00)
     723                            .dwattr $C$DW$65, DW_AT_decl_file("C:\ti\simplelink_cc13x0_sdk_2_30_00_20\examples\rtos\CC1350
     724                            .dwattr $C$DW$65, DW_AT_decl_line(0xb0)
     725                            .dwattr $C$DW$65, DW_AT_decl_column(0x05)
     726                    
     727                    $C$DW$66        .dwtag  DW_TAG_enumerator
     728                            .dwattr $C$DW$66, DW_AT_name("CC1350_LAUNCHXL_ADCBUFCOUNT")
     729                            .dwattr $C$DW$66, DW_AT_const_value(0x01)
     730                            .dwattr $C$DW$66, DW_AT_decl_file("C:\ti\simplelink_cc13x0_sdk_2_30_00_20\examples\rtos\CC1350
     731                            .dwattr $C$DW$66, DW_AT_decl_line(0xb2)
     732                            .dwattr $C$DW$66, DW_AT_decl_column(0x05)
     733                    
     734                            .dwattr $C$DW$T$98, DW_AT_decl_file("C:\ti\simplelink_cc13x0_sdk_2_30_00_20\examples\rtos\CC13
     735                            .dwattr $C$DW$T$98, DW_AT_decl_line(0xaf)
     736                            .dwattr $C$DW$T$98, DW_AT_decl_column(0x0e)
     737                            .dwendtag $C$DW$T$98
     738                    
     739                    $C$DW$T$99      .dwtag  DW_TAG_typedef
     740                            .dwattr $C$DW$T$99, DW_AT_name("CC1350_LAUNCHXL_ADCBufName")
     741                            .dwattr $C$DW$T$99, DW_AT_type(*$C$DW$T$98)
     742                            .dwattr $C$DW$T$99, DW_AT_language(DW_LANG_C)
     743                            .dwattr $C$DW$T$99, DW_AT_decl_file("C:\ti\simplelink_cc13x0_sdk_2_30_00_20\examples\rtos\CC13
     744                            .dwattr $C$DW$T$99, DW_AT_decl_line(0xb3)
     745                            .dwattr $C$DW$T$99, DW_AT_decl_column(0x03)
     746                    
     747                    
     748                    $C$DW$T$100     .dwtag  DW_TAG_enumeration_type
     749                            .dwattr $C$DW$T$100, DW_AT_name("CC1350_LAUNCHXL_ADCName")
     750                            .dwattr $C$DW$T$100, DW_AT_byte_size(0x01)
     751                    $C$DW$67        .dwtag  DW_TAG_enumerator
     752                            .dwattr $C$DW$67, DW_AT_name("CC1350_LAUNCHXL_ADC0")
     753                            .dwattr $C$DW$67, DW_AT_const_value(0x00)
     754                            .dwattr $C$DW$67, DW_AT_decl_file("C:\ti\simplelink_cc13x0_sdk_2_30_00_20\examples\rtos\CC1350
     755                            .dwattr $C$DW$67, DW_AT_decl_line(0xce)
     756                            .dwattr $C$DW$67, DW_AT_decl_column(0x05)
     757                    
     758                    $C$DW$68        .dwtag  DW_TAG_enumerator
     759                            .dwattr $C$DW$68, DW_AT_name("CC1350_LAUNCHXL_ADC1")
     760                            .dwattr $C$DW$68, DW_AT_const_value(0x01)
     761                            .dwattr $C$DW$68, DW_AT_decl_file("C:\ti\simplelink_cc13x0_sdk_2_30_00_20\examples\rtos\CC1350
     762                            .dwattr $C$DW$68, DW_AT_decl_line(0xcf)
     763                            .dwattr $C$DW$68, DW_AT_decl_column(0x05)
     764                    
     765                    $C$DW$69        .dwtag  DW_TAG_enumerator
     766                            .dwattr $C$DW$69, DW_AT_name("CC1350_LAUNCHXL_ADC2")
     767                            .dwattr $C$DW$69, DW_AT_const_value(0x02)
     768                            .dwattr $C$DW$69, DW_AT_decl_file("C:\ti\simplelink_cc13x0_sdk_2_30_00_20\examples\rtos\CC1350
     769                            .dwattr $C$DW$69, DW_AT_decl_line(0xd0)
     770                            .dwattr $C$DW$69, DW_AT_decl_column(0x05)
TI ARM Assembler PC v16.9.8 Thu Nov 22 09:24:44 2018

Tools Copyright (c) 1996-2017 Texas Instruments Incorporated
C:\Users\Einstein\AppData\Local\Temp\{D2CEF35E-DD0F-4D6B-8D7C-7424DE07D15F} PAGE   15

     771                    
     772                    $C$DW$70        .dwtag  DW_TAG_enumerator
     773                            .dwattr $C$DW$70, DW_AT_name("CC1350_LAUNCHXL_ADC3")
     774                            .dwattr $C$DW$70, DW_AT_const_value(0x03)
     775                            .dwattr $C$DW$70, DW_AT_decl_file("C:\ti\simplelink_cc13x0_sdk_2_30_00_20\examples\rtos\CC1350
     776                            .dwattr $C$DW$70, DW_AT_decl_line(0xd1)
     777                            .dwattr $C$DW$70, DW_AT_decl_column(0x05)
     778                    
     779                    $C$DW$71        .dwtag  DW_TAG_enumerator
     780                            .dwattr $C$DW$71, DW_AT_name("CC1350_LAUNCHXL_ADC4")
     781                            .dwattr $C$DW$71, DW_AT_const_value(0x04)
     782                            .dwattr $C$DW$71, DW_AT_decl_file("C:\ti\simplelink_cc13x0_sdk_2_30_00_20\examples\rtos\CC1350
     783                            .dwattr $C$DW$71, DW_AT_decl_line(0xd2)
     784                            .dwattr $C$DW$71, DW_AT_decl_column(0x05)
     785                    
     786                    $C$DW$72        .dwtag  DW_TAG_enumerator
     787                            .dwattr $C$DW$72, DW_AT_name("CC1350_LAUNCHXL_ADC5")
     788                            .dwattr $C$DW$72, DW_AT_const_value(0x05)
     789                            .dwattr $C$DW$72, DW_AT_decl_file("C:\ti\simplelink_cc13x0_sdk_2_30_00_20\examples\rtos\CC1350
     790                            .dwattr $C$DW$72, DW_AT_decl_line(0xd3)
     791                            .dwattr $C$DW$72, DW_AT_decl_column(0x05)
     792                    
     793                    $C$DW$73        .dwtag  DW_TAG_enumerator
     794                            .dwattr $C$DW$73, DW_AT_name("CC1350_LAUNCHXL_ADC6")
     795                            .dwattr $C$DW$73, DW_AT_const_value(0x06)
     796                            .dwattr $C$DW$73, DW_AT_decl_file("C:\ti\simplelink_cc13x0_sdk_2_30_00_20\examples\rtos\CC1350
     797                            .dwattr $C$DW$73, DW_AT_decl_line(0xd4)
     798                            .dwattr $C$DW$73, DW_AT_decl_column(0x05)
     799                    
     800                    $C$DW$74        .dwtag  DW_TAG_enumerator
     801                            .dwattr $C$DW$74, DW_AT_name("CC1350_LAUNCHXL_ADC7")
     802                            .dwattr $C$DW$74, DW_AT_const_value(0x07)
     803                            .dwattr $C$DW$74, DW_AT_decl_file("C:\ti\simplelink_cc13x0_sdk_2_30_00_20\examples\rtos\CC1350
     804                            .dwattr $C$DW$74, DW_AT_decl_line(0xd5)
     805                            .dwattr $C$DW$74, DW_AT_decl_column(0x05)
     806                    
     807                    $C$DW$75        .dwtag  DW_TAG_enumerator
     808                            .dwattr $C$DW$75, DW_AT_name("CC1350_LAUNCHXL_ADCDCOUPL")
     809                            .dwattr $C$DW$75, DW_AT_const_value(0x08)
     810                            .dwattr $C$DW$75, DW_AT_decl_file("C:\ti\simplelink_cc13x0_sdk_2_30_00_20\examples\rtos\CC1350
     811                            .dwattr $C$DW$75, DW_AT_decl_line(0xd6)
     812                            .dwattr $C$DW$75, DW_AT_decl_column(0x05)
     813                    
     814                    $C$DW$76        .dwtag  DW_TAG_enumerator
     815                            .dwattr $C$DW$76, DW_AT_name("CC1350_LAUNCHXL_ADCVSS")
     816                            .dwattr $C$DW$76, DW_AT_const_value(0x09)
     817                            .dwattr $C$DW$76, DW_AT_decl_file("C:\ti\simplelink_cc13x0_sdk_2_30_00_20\examples\rtos\CC1350
     818                            .dwattr $C$DW$76, DW_AT_decl_line(0xd7)
     819                            .dwattr $C$DW$76, DW_AT_decl_column(0x05)
     820                    
     821                    $C$DW$77        .dwtag  DW_TAG_enumerator
     822                            .dwattr $C$DW$77, DW_AT_name("CC1350_LAUNCHXL_ADCVDDS")
     823                            .dwattr $C$DW$77, DW_AT_const_value(0x0a)
     824                            .dwattr $C$DW$77, DW_AT_decl_file("C:\ti\simplelink_cc13x0_sdk_2_30_00_20\examples\rtos\CC1350
     825                            .dwattr $C$DW$77, DW_AT_decl_line(0xd8)
TI ARM Assembler PC v16.9.8 Thu Nov 22 09:24:44 2018

Tools Copyright (c) 1996-2017 Texas Instruments Incorporated
C:\Users\Einstein\AppData\Local\Temp\{D2CEF35E-DD0F-4D6B-8D7C-7424DE07D15F} PAGE   16

     826                            .dwattr $C$DW$77, DW_AT_decl_column(0x05)
     827                    
     828                    $C$DW$78        .dwtag  DW_TAG_enumerator
     829                            .dwattr $C$DW$78, DW_AT_name("CC1350_LAUNCHXL_ADCCOUNT")
     830                            .dwattr $C$DW$78, DW_AT_const_value(0x0b)
     831                            .dwattr $C$DW$78, DW_AT_decl_file("C:\ti\simplelink_cc13x0_sdk_2_30_00_20\examples\rtos\CC1350
     832                            .dwattr $C$DW$78, DW_AT_decl_line(0xda)
     833                            .dwattr $C$DW$78, DW_AT_decl_column(0x05)
     834                    
     835                            .dwattr $C$DW$T$100, DW_AT_decl_file("C:\ti\simplelink_cc13x0_sdk_2_30_00_20\examples\rtos\CC1
     836                            .dwattr $C$DW$T$100, DW_AT_decl_line(0xcd)
     837                            .dwattr $C$DW$T$100, DW_AT_decl_column(0x0e)
     838                            .dwendtag $C$DW$T$100
     839                    
     840                    $C$DW$T$101     .dwtag  DW_TAG_typedef
     841                            .dwattr $C$DW$T$101, DW_AT_name("CC1350_LAUNCHXL_ADCName")
     842                            .dwattr $C$DW$T$101, DW_AT_type(*$C$DW$T$100)
     843                            .dwattr $C$DW$T$101, DW_AT_language(DW_LANG_C)
     844                            .dwattr $C$DW$T$101, DW_AT_decl_file("C:\ti\simplelink_cc13x0_sdk_2_30_00_20\examples\rtos\CC1
     845                            .dwattr $C$DW$T$101, DW_AT_decl_line(0xdb)
     846                            .dwattr $C$DW$T$101, DW_AT_decl_column(0x03)
     847                    
     848                    
     849                    $C$DW$T$102     .dwtag  DW_TAG_enumeration_type
     850                            .dwattr $C$DW$T$102, DW_AT_name("CC1350_LAUNCHXL_CryptoName")
     851                            .dwattr $C$DW$T$102, DW_AT_byte_size(0x01)
     852                    $C$DW$79        .dwtag  DW_TAG_enumerator
     853                            .dwattr $C$DW$79, DW_AT_name("CC1350_LAUNCHXL_CRYPTO0")
     854                            .dwattr $C$DW$79, DW_AT_const_value(0x00)
     855                            .dwattr $C$DW$79, DW_AT_decl_file("C:\ti\simplelink_cc13x0_sdk_2_30_00_20\examples\rtos\CC1350
     856                            .dwattr $C$DW$79, DW_AT_decl_line(0xe2)
     857                            .dwattr $C$DW$79, DW_AT_decl_column(0x05)
     858                    
     859                    $C$DW$80        .dwtag  DW_TAG_enumerator
     860                            .dwattr $C$DW$80, DW_AT_name("CC1350_LAUNCHXL_CRYPTOCOUNT")
     861                            .dwattr $C$DW$80, DW_AT_const_value(0x01)
     862                            .dwattr $C$DW$80, DW_AT_decl_file("C:\ti\simplelink_cc13x0_sdk_2_30_00_20\examples\rtos\CC1350
     863                            .dwattr $C$DW$80, DW_AT_decl_line(0xe4)
     864                            .dwattr $C$DW$80, DW_AT_decl_column(0x05)
     865                    
     866                            .dwattr $C$DW$T$102, DW_AT_decl_file("C:\ti\simplelink_cc13x0_sdk_2_30_00_20\examples\rtos\CC1
     867                            .dwattr $C$DW$T$102, DW_AT_decl_line(0xe1)
     868                            .dwattr $C$DW$T$102, DW_AT_decl_column(0x0e)
     869                            .dwendtag $C$DW$T$102
     870                    
     871                    $C$DW$T$103     .dwtag  DW_TAG_typedef
     872                            .dwattr $C$DW$T$103, DW_AT_name("CC1350_LAUNCHXL_CryptoName")
     873                            .dwattr $C$DW$T$103, DW_AT_type(*$C$DW$T$102)
     874                            .dwattr $C$DW$T$103, DW_AT_language(DW_LANG_C)
     875                            .dwattr $C$DW$T$103, DW_AT_decl_file("C:\ti\simplelink_cc13x0_sdk_2_30_00_20\examples\rtos\CC1
     876                            .dwattr $C$DW$T$103, DW_AT_decl_line(0xe5)
     877                            .dwattr $C$DW$T$103, DW_AT_decl_column(0x03)
     878                    
     879                    
     880                    $C$DW$T$104     .dwtag  DW_TAG_enumeration_type
TI ARM Assembler PC v16.9.8 Thu Nov 22 09:24:44 2018

Tools Copyright (c) 1996-2017 Texas Instruments Incorporated
C:\Users\Einstein\AppData\Local\Temp\{D2CEF35E-DD0F-4D6B-8D7C-7424DE07D15F} PAGE   17

     881                            .dwattr $C$DW$T$104, DW_AT_name("CC1350_LAUNCHXL_GPIOName")
     882                            .dwattr $C$DW$T$104, DW_AT_byte_size(0x01)
     883                    $C$DW$81        .dwtag  DW_TAG_enumerator
     884                            .dwattr $C$DW$81, DW_AT_name("CC1350_LAUNCHXL_GPIO_S1")
     885                            .dwattr $C$DW$81, DW_AT_const_value(0x00)
     886                            .dwattr $C$DW$81, DW_AT_decl_file("C:\ti\simplelink_cc13x0_sdk_2_30_00_20\examples\rtos\CC1350
     887                            .dwattr $C$DW$81, DW_AT_decl_line(0xec)
     888                            .dwattr $C$DW$81, DW_AT_decl_column(0x05)
     889                    
     890                    $C$DW$82        .dwtag  DW_TAG_enumerator
     891                            .dwattr $C$DW$82, DW_AT_name("CC1350_LAUNCHXL_GPIO_S2")
     892                            .dwattr $C$DW$82, DW_AT_const_value(0x01)
     893                            .dwattr $C$DW$82, DW_AT_decl_file("C:\ti\simplelink_cc13x0_sdk_2_30_00_20\examples\rtos\CC1350
     894                            .dwattr $C$DW$82, DW_AT_decl_line(0xed)
     895                            .dwattr $C$DW$82, DW_AT_decl_column(0x05)
     896                    
     897                    $C$DW$83        .dwtag  DW_TAG_enumerator
     898                            .dwattr $C$DW$83, DW_AT_name("CC1350_LAUNCHXL_SPI_MASTER_READY")
     899                            .dwattr $C$DW$83, DW_AT_const_value(0x02)
     900                            .dwattr $C$DW$83, DW_AT_decl_file("C:\ti\simplelink_cc13x0_sdk_2_30_00_20\examples\rtos\CC1350
     901                            .dwattr $C$DW$83, DW_AT_decl_line(0xee)
     902                            .dwattr $C$DW$83, DW_AT_decl_column(0x05)
     903                    
     904                    $C$DW$84        .dwtag  DW_TAG_enumerator
     905                            .dwattr $C$DW$84, DW_AT_name("CC1350_LAUNCHXL_SPI_SLAVE_READY")
     906                            .dwattr $C$DW$84, DW_AT_const_value(0x03)
     907                            .dwattr $C$DW$84, DW_AT_decl_file("C:\ti\simplelink_cc13x0_sdk_2_30_00_20\examples\rtos\CC1350
     908                            .dwattr $C$DW$84, DW_AT_decl_line(0xef)
     909                            .dwattr $C$DW$84, DW_AT_decl_column(0x05)
     910                    
     911                    $C$DW$85        .dwtag  DW_TAG_enumerator
     912                            .dwattr $C$DW$85, DW_AT_name("CC1350_LAUNCHXL_GPIO_LED_GREEN")
     913                            .dwattr $C$DW$85, DW_AT_const_value(0x04)
     914                            .dwattr $C$DW$85, DW_AT_decl_file("C:\ti\simplelink_cc13x0_sdk_2_30_00_20\examples\rtos\CC1350
     915                            .dwattr $C$DW$85, DW_AT_decl_line(0xf0)
     916                            .dwattr $C$DW$85, DW_AT_decl_column(0x05)
     917                    
     918                    $C$DW$86        .dwtag  DW_TAG_enumerator
     919                            .dwattr $C$DW$86, DW_AT_name("CC1350_LAUNCHXL_GPIO_LED_RED")
     920                            .dwattr $C$DW$86, DW_AT_const_value(0x05)
     921                            .dwattr $C$DW$86, DW_AT_decl_file("C:\ti\simplelink_cc13x0_sdk_2_30_00_20\examples\rtos\CC1350
     922                            .dwattr $C$DW$86, DW_AT_decl_line(0xf1)
     923                            .dwattr $C$DW$86, DW_AT_decl_column(0x05)
     924                    
     925                    $C$DW$87        .dwtag  DW_TAG_enumerator
     926                            .dwattr $C$DW$87, DW_AT_name("CC1350_LAUNCHXL_GPIO_SPI_FLASH_CS")
     927                            .dwattr $C$DW$87, DW_AT_const_value(0x06)
     928                            .dwattr $C$DW$87, DW_AT_decl_file("C:\ti\simplelink_cc13x0_sdk_2_30_00_20\examples\rtos\CC1350
     929                            .dwattr $C$DW$87, DW_AT_decl_line(0xf2)
     930                            .dwattr $C$DW$87, DW_AT_decl_column(0x05)
     931                    
     932                    $C$DW$88        .dwtag  DW_TAG_enumerator
     933                            .dwattr $C$DW$88, DW_AT_name("CC1350_LAUNCHXL_SDSPI_CS")
     934                            .dwattr $C$DW$88, DW_AT_const_value(0x07)
     935                            .dwattr $C$DW$88, DW_AT_decl_file("C:\ti\simplelink_cc13x0_sdk_2_30_00_20\examples\rtos\CC1350
TI ARM Assembler PC v16.9.8 Thu Nov 22 09:24:44 2018

Tools Copyright (c) 1996-2017 Texas Instruments Incorporated
C:\Users\Einstein\AppData\Local\Temp\{D2CEF35E-DD0F-4D6B-8D7C-7424DE07D15F} PAGE   18

     936                            .dwattr $C$DW$88, DW_AT_decl_line(0xf3)
     937                            .dwattr $C$DW$88, DW_AT_decl_column(0x05)
     938                    
     939                    $C$DW$89        .dwtag  DW_TAG_enumerator
     940                            .dwattr $C$DW$89, DW_AT_name("CC1350_LAUNCHXL_GPIO_LCD_CS")
     941                            .dwattr $C$DW$89, DW_AT_const_value(0x08)
     942                            .dwattr $C$DW$89, DW_AT_decl_file("C:\ti\simplelink_cc13x0_sdk_2_30_00_20\examples\rtos\CC1350
     943                            .dwattr $C$DW$89, DW_AT_decl_line(0xf4)
     944                            .dwattr $C$DW$89, DW_AT_decl_column(0x05)
     945                    
     946                    $C$DW$90        .dwtag  DW_TAG_enumerator
     947                            .dwattr $C$DW$90, DW_AT_name("CC1350_LAUNCHXL_GPIO_LCD_POWER")
     948                            .dwattr $C$DW$90, DW_AT_const_value(0x09)
     949                            .dwattr $C$DW$90, DW_AT_decl_file("C:\ti\simplelink_cc13x0_sdk_2_30_00_20\examples\rtos\CC1350
     950                            .dwattr $C$DW$90, DW_AT_decl_line(0xf5)
     951                            .dwattr $C$DW$90, DW_AT_decl_column(0x05)
     952                    
     953                    $C$DW$91        .dwtag  DW_TAG_enumerator
     954                            .dwattr $C$DW$91, DW_AT_name("CC1350_LAUNCHXL_GPIO_LCD_ENABLE")
     955                            .dwattr $C$DW$91, DW_AT_const_value(0x0a)
     956                            .dwattr $C$DW$91, DW_AT_decl_file("C:\ti\simplelink_cc13x0_sdk_2_30_00_20\examples\rtos\CC1350
     957                            .dwattr $C$DW$91, DW_AT_decl_line(0xf6)
     958                            .dwattr $C$DW$91, DW_AT_decl_column(0x05)
     959                    
     960                    $C$DW$92        .dwtag  DW_TAG_enumerator
     961                            .dwattr $C$DW$92, DW_AT_name("CC1350_LAUNCHXL_GPIOCOUNT")
     962                            .dwattr $C$DW$92, DW_AT_const_value(0x0b)
     963                            .dwattr $C$DW$92, DW_AT_decl_file("C:\ti\simplelink_cc13x0_sdk_2_30_00_20\examples\rtos\CC1350
     964                            .dwattr $C$DW$92, DW_AT_decl_line(0xf7)
     965                            .dwattr $C$DW$92, DW_AT_decl_column(0x05)
     966                    
     967                            .dwattr $C$DW$T$104, DW_AT_decl_file("C:\ti\simplelink_cc13x0_sdk_2_30_00_20\examples\rtos\CC1
     968                            .dwattr $C$DW$T$104, DW_AT_decl_line(0xeb)
     969                            .dwattr $C$DW$T$104, DW_AT_decl_column(0x0e)
     970                            .dwendtag $C$DW$T$104
     971                    
     972                    $C$DW$T$105     .dwtag  DW_TAG_typedef
     973                            .dwattr $C$DW$T$105, DW_AT_name("CC1350_LAUNCHXL_GPIOName")
     974                            .dwattr $C$DW$T$105, DW_AT_type(*$C$DW$T$104)
     975                            .dwattr $C$DW$T$105, DW_AT_language(DW_LANG_C)
     976                            .dwattr $C$DW$T$105, DW_AT_decl_file("C:\ti\simplelink_cc13x0_sdk_2_30_00_20\examples\rtos\CC1
     977                            .dwattr $C$DW$T$105, DW_AT_decl_line(0xf8)
     978                            .dwattr $C$DW$T$105, DW_AT_decl_column(0x03)
     979                    
     980                    
     981                    $C$DW$T$106     .dwtag  DW_TAG_enumeration_type
     982                            .dwattr $C$DW$T$106, DW_AT_name("CC1350_LAUNCHXL_GPTimerName")
     983                            .dwattr $C$DW$T$106, DW_AT_byte_size(0x01)
     984                    $C$DW$93        .dwtag  DW_TAG_enumerator
     985                            .dwattr $C$DW$93, DW_AT_name("CC1350_LAUNCHXL_GPTIMER0A")
     986                            .dwattr $C$DW$93, DW_AT_const_value(0x00)
     987                            .dwattr $C$DW$93, DW_AT_decl_file("C:\ti\simplelink_cc13x0_sdk_2_30_00_20\examples\rtos\CC1350
     988                            .dwattr $C$DW$93, DW_AT_decl_line(0xff)
     989                            .dwattr $C$DW$93, DW_AT_decl_column(0x05)
     990                    
TI ARM Assembler PC v16.9.8 Thu Nov 22 09:24:44 2018

Tools Copyright (c) 1996-2017 Texas Instruments Incorporated
C:\Users\Einstein\AppData\Local\Temp\{D2CEF35E-DD0F-4D6B-8D7C-7424DE07D15F} PAGE   19

     991                    $C$DW$94        .dwtag  DW_TAG_enumerator
     992                            .dwattr $C$DW$94, DW_AT_name("CC1350_LAUNCHXL_GPTIMER0B")
     993                            .dwattr $C$DW$94, DW_AT_const_value(0x01)
     994                            .dwattr $C$DW$94, DW_AT_decl_file("C:\ti\simplelink_cc13x0_sdk_2_30_00_20\examples\rtos\CC1350
     995                            .dwattr $C$DW$94, DW_AT_decl_line(0x100)
     996                            .dwattr $C$DW$94, DW_AT_decl_column(0x05)
     997                    
     998                    $C$DW$95        .dwtag  DW_TAG_enumerator
     999                            .dwattr $C$DW$95, DW_AT_name("CC1350_LAUNCHXL_GPTIMER1A")
    1000                            .dwattr $C$DW$95, DW_AT_const_value(0x02)
    1001                            .dwattr $C$DW$95, DW_AT_decl_file("C:\ti\simplelink_cc13x0_sdk_2_30_00_20\examples\rtos\CC1350
    1002                            .dwattr $C$DW$95, DW_AT_decl_line(0x101)
    1003                            .dwattr $C$DW$95, DW_AT_decl_column(0x05)
    1004                    
    1005                    $C$DW$96        .dwtag  DW_TAG_enumerator
    1006                            .dwattr $C$DW$96, DW_AT_name("CC1350_LAUNCHXL_GPTIMER1B")
    1007                            .dwattr $C$DW$96, DW_AT_const_value(0x03)
    1008                            .dwattr $C$DW$96, DW_AT_decl_file("C:\ti\simplelink_cc13x0_sdk_2_30_00_20\examples\rtos\CC1350
    1009                            .dwattr $C$DW$96, DW_AT_decl_line(0x102)
    1010                            .dwattr $C$DW$96, DW_AT_decl_column(0x05)
    1011                    
    1012                    $C$DW$97        .dwtag  DW_TAG_enumerator
    1013                            .dwattr $C$DW$97, DW_AT_name("CC1350_LAUNCHXL_GPTIMER2A")
    1014                            .dwattr $C$DW$97, DW_AT_const_value(0x04)
    1015                            .dwattr $C$DW$97, DW_AT_decl_file("C:\ti\simplelink_cc13x0_sdk_2_30_00_20\examples\rtos\CC1350
    1016                            .dwattr $C$DW$97, DW_AT_decl_line(0x103)
    1017                            .dwattr $C$DW$97, DW_AT_decl_column(0x05)
    1018                    
    1019                    $C$DW$98        .dwtag  DW_TAG_enumerator
    1020                            .dwattr $C$DW$98, DW_AT_name("CC1350_LAUNCHXL_GPTIMER2B")
    1021                            .dwattr $C$DW$98, DW_AT_const_value(0x05)
    1022                            .dwattr $C$DW$98, DW_AT_decl_file("C:\ti\simplelink_cc13x0_sdk_2_30_00_20\examples\rtos\CC1350
    1023                            .dwattr $C$DW$98, DW_AT_decl_line(0x104)
    1024                            .dwattr $C$DW$98, DW_AT_decl_column(0x05)
    1025                    
    1026                    $C$DW$99        .dwtag  DW_TAG_enumerator
    1027                            .dwattr $C$DW$99, DW_AT_name("CC1350_LAUNCHXL_GPTIMER3A")
    1028                            .dwattr $C$DW$99, DW_AT_const_value(0x06)
    1029                            .dwattr $C$DW$99, DW_AT_decl_file("C:\ti\simplelink_cc13x0_sdk_2_30_00_20\examples\rtos\CC1350
    1030                            .dwattr $C$DW$99, DW_AT_decl_line(0x105)
    1031                            .dwattr $C$DW$99, DW_AT_decl_column(0x05)
    1032                    
    1033                    $C$DW$100       .dwtag  DW_TAG_enumerator
    1034                            .dwattr $C$DW$100, DW_AT_name("CC1350_LAUNCHXL_GPTIMER3B")
    1035                            .dwattr $C$DW$100, DW_AT_const_value(0x07)
    1036                            .dwattr $C$DW$100, DW_AT_decl_file("C:\ti\simplelink_cc13x0_sdk_2_30_00_20\examples\rtos\CC135
    1037                            .dwattr $C$DW$100, DW_AT_decl_line(0x106)
    1038                            .dwattr $C$DW$100, DW_AT_decl_column(0x05)
    1039                    
    1040                    $C$DW$101       .dwtag  DW_TAG_enumerator
    1041                            .dwattr $C$DW$101, DW_AT_name("CC1350_LAUNCHXL_GPTIMERPARTSCOUNT")
    1042                            .dwattr $C$DW$101, DW_AT_const_value(0x08)
    1043                            .dwattr $C$DW$101, DW_AT_decl_file("C:\ti\simplelink_cc13x0_sdk_2_30_00_20\examples\rtos\CC135
    1044                            .dwattr $C$DW$101, DW_AT_decl_line(0x108)
    1045                            .dwattr $C$DW$101, DW_AT_decl_column(0x05)
TI ARM Assembler PC v16.9.8 Thu Nov 22 09:24:44 2018

Tools Copyright (c) 1996-2017 Texas Instruments Incorporated
C:\Users\Einstein\AppData\Local\Temp\{D2CEF35E-DD0F-4D6B-8D7C-7424DE07D15F} PAGE   20

    1046                    
    1047                            .dwattr $C$DW$T$106, DW_AT_decl_file("C:\ti\simplelink_cc13x0_sdk_2_30_00_20\examples\rtos\CC1
    1048                            .dwattr $C$DW$T$106, DW_AT_decl_line(0xfe)
    1049                            .dwattr $C$DW$T$106, DW_AT_decl_column(0x0e)
    1050                            .dwendtag $C$DW$T$106
    1051                    
    1052                    $C$DW$T$107     .dwtag  DW_TAG_typedef
    1053                            .dwattr $C$DW$T$107, DW_AT_name("CC1350_LAUNCHXL_GPTimerName")
    1054                            .dwattr $C$DW$T$107, DW_AT_type(*$C$DW$T$106)
    1055                            .dwattr $C$DW$T$107, DW_AT_language(DW_LANG_C)
    1056                            .dwattr $C$DW$T$107, DW_AT_decl_file("C:\ti\simplelink_cc13x0_sdk_2_30_00_20\examples\rtos\CC1
    1057                            .dwattr $C$DW$T$107, DW_AT_decl_line(0x109)
    1058                            .dwattr $C$DW$T$107, DW_AT_decl_column(0x03)
    1059                    
    1060                    
    1061                    $C$DW$T$108     .dwtag  DW_TAG_enumeration_type
    1062                            .dwattr $C$DW$T$108, DW_AT_name("CC1350_LAUNCHXL_GPTimers")
    1063                            .dwattr $C$DW$T$108, DW_AT_byte_size(0x01)
    1064                    $C$DW$102       .dwtag  DW_TAG_enumerator
    1065                            .dwattr $C$DW$102, DW_AT_name("CC1350_LAUNCHXL_GPTIMER0")
    1066                            .dwattr $C$DW$102, DW_AT_const_value(0x00)
    1067                            .dwattr $C$DW$102, DW_AT_decl_file("C:\ti\simplelink_cc13x0_sdk_2_30_00_20\examples\rtos\CC135
    1068                            .dwattr $C$DW$102, DW_AT_decl_line(0x110)
    1069                            .dwattr $C$DW$102, DW_AT_decl_column(0x05)
    1070                    
    1071                    $C$DW$103       .dwtag  DW_TAG_enumerator
    1072                            .dwattr $C$DW$103, DW_AT_name("CC1350_LAUNCHXL_GPTIMER1")
    1073                            .dwattr $C$DW$103, DW_AT_const_value(0x01)
    1074                            .dwattr $C$DW$103, DW_AT_decl_file("C:\ti\simplelink_cc13x0_sdk_2_30_00_20\examples\rtos\CC135
    1075                            .dwattr $C$DW$103, DW_AT_decl_line(0x111)
    1076                            .dwattr $C$DW$103, DW_AT_decl_column(0x05)
    1077                    
    1078                    $C$DW$104       .dwtag  DW_TAG_enumerator
    1079                            .dwattr $C$DW$104, DW_AT_name("CC1350_LAUNCHXL_GPTIMER2")
    1080                            .dwattr $C$DW$104, DW_AT_const_value(0x02)
    1081                            .dwattr $C$DW$104, DW_AT_decl_file("C:\ti\simplelink_cc13x0_sdk_2_30_00_20\examples\rtos\CC135
    1082                            .dwattr $C$DW$104, DW_AT_decl_line(0x112)
    1083                            .dwattr $C$DW$104, DW_AT_decl_column(0x05)
    1084                    
    1085                    $C$DW$105       .dwtag  DW_TAG_enumerator
    1086                            .dwattr $C$DW$105, DW_AT_name("CC1350_LAUNCHXL_GPTIMER3")
    1087                            .dwattr $C$DW$105, DW_AT_const_value(0x03)
    1088                            .dwattr $C$DW$105, DW_AT_decl_file("C:\ti\simplelink_cc13x0_sdk_2_30_00_20\examples\rtos\CC135
    1089                            .dwattr $C$DW$105, DW_AT_decl_line(0x113)
    1090                            .dwattr $C$DW$105, DW_AT_decl_column(0x05)
    1091                    
    1092                    $C$DW$106       .dwtag  DW_TAG_enumerator
    1093                            .dwattr $C$DW$106, DW_AT_name("CC1350_LAUNCHXL_GPTIMERCOUNT")
    1094                            .dwattr $C$DW$106, DW_AT_const_value(0x04)
    1095                            .dwattr $C$DW$106, DW_AT_decl_file("C:\ti\simplelink_cc13x0_sdk_2_30_00_20\examples\rtos\CC135
    1096                            .dwattr $C$DW$106, DW_AT_decl_line(0x115)
    1097                            .dwattr $C$DW$106, DW_AT_decl_column(0x05)
    1098                    
    1099                            .dwattr $C$DW$T$108, DW_AT_decl_file("C:\ti\simplelink_cc13x0_sdk_2_30_00_20\examples\rtos\CC1
    1100                            .dwattr $C$DW$T$108, DW_AT_decl_line(0x10f)
TI ARM Assembler PC v16.9.8 Thu Nov 22 09:24:44 2018

Tools Copyright (c) 1996-2017 Texas Instruments Incorporated
C:\Users\Einstein\AppData\Local\Temp\{D2CEF35E-DD0F-4D6B-8D7C-7424DE07D15F} PAGE   21

    1101                            .dwattr $C$DW$T$108, DW_AT_decl_column(0x0e)
    1102                            .dwendtag $C$DW$T$108
    1103                    
    1104                    $C$DW$T$109     .dwtag  DW_TAG_typedef
    1105                            .dwattr $C$DW$T$109, DW_AT_name("CC1350_LAUNCHXL_GPTimers")
    1106                            .dwattr $C$DW$T$109, DW_AT_type(*$C$DW$T$108)
    1107                            .dwattr $C$DW$T$109, DW_AT_language(DW_LANG_C)
    1108                            .dwattr $C$DW$T$109, DW_AT_decl_file("C:\ti\simplelink_cc13x0_sdk_2_30_00_20\examples\rtos\CC1
    1109                            .dwattr $C$DW$T$109, DW_AT_decl_line(0x116)
    1110                            .dwattr $C$DW$T$109, DW_AT_decl_column(0x03)
    1111                    
    1112                    
    1113                    $C$DW$T$110     .dwtag  DW_TAG_enumeration_type
    1114                            .dwattr $C$DW$T$110, DW_AT_name("CC1350_LAUNCHXL_I2CName")
    1115                            .dwattr $C$DW$T$110, DW_AT_byte_size(0x01)
    1116                    $C$DW$107       .dwtag  DW_TAG_enumerator
    1117                            .dwattr $C$DW$107, DW_AT_name("CC1350_LAUNCHXL_I2C0")
    1118                            .dwattr $C$DW$107, DW_AT_const_value(0x00)
    1119                            .dwattr $C$DW$107, DW_AT_decl_file("C:\ti\simplelink_cc13x0_sdk_2_30_00_20\examples\rtos\CC135
    1120                            .dwattr $C$DW$107, DW_AT_decl_line(0x11d)
    1121                            .dwattr $C$DW$107, DW_AT_decl_column(0x05)
    1122                    
    1123                    $C$DW$108       .dwtag  DW_TAG_enumerator
    1124                            .dwattr $C$DW$108, DW_AT_name("CC1350_LAUNCHXL_I2CCOUNT")
    1125                            .dwattr $C$DW$108, DW_AT_const_value(0x01)
    1126                            .dwattr $C$DW$108, DW_AT_decl_file("C:\ti\simplelink_cc13x0_sdk_2_30_00_20\examples\rtos\CC135
    1127                            .dwattr $C$DW$108, DW_AT_decl_line(0x11f)
    1128                            .dwattr $C$DW$108, DW_AT_decl_column(0x05)
    1129                    
    1130                            .dwattr $C$DW$T$110, DW_AT_decl_file("C:\ti\simplelink_cc13x0_sdk_2_30_00_20\examples\rtos\CC1
    1131                            .dwattr $C$DW$T$110, DW_AT_decl_line(0x11c)
    1132                            .dwattr $C$DW$T$110, DW_AT_decl_column(0x0e)
    1133                            .dwendtag $C$DW$T$110
    1134                    
    1135                    $C$DW$T$111     .dwtag  DW_TAG_typedef
    1136                            .dwattr $C$DW$T$111, DW_AT_name("CC1350_LAUNCHXL_I2CName")
    1137                            .dwattr $C$DW$T$111, DW_AT_type(*$C$DW$T$110)
    1138                            .dwattr $C$DW$T$111, DW_AT_language(DW_LANG_C)
    1139                            .dwattr $C$DW$T$111, DW_AT_decl_file("C:\ti\simplelink_cc13x0_sdk_2_30_00_20\examples\rtos\CC1
    1140                            .dwattr $C$DW$T$111, DW_AT_decl_line(0x120)
    1141                            .dwattr $C$DW$T$111, DW_AT_decl_column(0x03)
    1142                    
    1143                    
    1144                    $C$DW$T$112     .dwtag  DW_TAG_enumeration_type
    1145                            .dwattr $C$DW$T$112, DW_AT_name("CC1350_LAUNCHXL_NVSName")
    1146                            .dwattr $C$DW$T$112, DW_AT_byte_size(0x01)
    1147                    $C$DW$109       .dwtag  DW_TAG_enumerator
    1148                            .dwattr $C$DW$109, DW_AT_name("CC1350_LAUNCHXL_NVSCC26XX0")
    1149                            .dwattr $C$DW$109, DW_AT_const_value(0x00)
    1150                            .dwattr $C$DW$109, DW_AT_decl_file("C:\ti\simplelink_cc13x0_sdk_2_30_00_20\examples\rtos\CC135
    1151                            .dwattr $C$DW$109, DW_AT_decl_line(0x128)
    1152                            .dwattr $C$DW$109, DW_AT_decl_column(0x05)
    1153                    
    1154                    $C$DW$110       .dwtag  DW_TAG_enumerator
    1155                            .dwattr $C$DW$110, DW_AT_name("CC1350_LAUNCHXL_NVSCOUNT")
TI ARM Assembler PC v16.9.8 Thu Nov 22 09:24:44 2018

Tools Copyright (c) 1996-2017 Texas Instruments Incorporated
C:\Users\Einstein\AppData\Local\Temp\{D2CEF35E-DD0F-4D6B-8D7C-7424DE07D15F} PAGE   22

    1156                            .dwattr $C$DW$110, DW_AT_const_value(0x01)
    1157                            .dwattr $C$DW$110, DW_AT_decl_file("C:\ti\simplelink_cc13x0_sdk_2_30_00_20\examples\rtos\CC135
    1158                            .dwattr $C$DW$110, DW_AT_decl_line(0x12e)
    1159                            .dwattr $C$DW$110, DW_AT_decl_column(0x05)
    1160                    
    1161                            .dwattr $C$DW$T$112, DW_AT_decl_file("C:\ti\simplelink_cc13x0_sdk_2_30_00_20\examples\rtos\CC1
    1162                            .dwattr $C$DW$T$112, DW_AT_decl_line(0x126)
    1163                            .dwattr $C$DW$T$112, DW_AT_decl_column(0x0e)
    1164                            .dwendtag $C$DW$T$112
    1165                    
    1166                    $C$DW$T$113     .dwtag  DW_TAG_typedef
    1167                            .dwattr $C$DW$T$113, DW_AT_name("CC1350_LAUNCHXL_NVSName")
    1168                            .dwattr $C$DW$T$113, DW_AT_type(*$C$DW$T$112)
    1169                            .dwattr $C$DW$T$113, DW_AT_language(DW_LANG_C)
    1170                            .dwattr $C$DW$T$113, DW_AT_decl_file("C:\ti\simplelink_cc13x0_sdk_2_30_00_20\examples\rtos\CC1
    1171                            .dwattr $C$DW$T$113, DW_AT_decl_line(0x12f)
    1172                            .dwattr $C$DW$T$113, DW_AT_decl_column(0x03)
    1173                    
    1174                    
    1175                    $C$DW$T$114     .dwtag  DW_TAG_enumeration_type
    1176                            .dwattr $C$DW$T$114, DW_AT_name("CC1350_LAUNCHXL_PWMName")
    1177                            .dwattr $C$DW$T$114, DW_AT_byte_size(0x01)
    1178                    $C$DW$111       .dwtag  DW_TAG_enumerator
    1179                            .dwattr $C$DW$111, DW_AT_name("CC1350_LAUNCHXL_PWM0")
    1180                            .dwattr $C$DW$111, DW_AT_const_value(0x00)
    1181                            .dwattr $C$DW$111, DW_AT_decl_file("C:\ti\simplelink_cc13x0_sdk_2_30_00_20\examples\rtos\CC135
    1182                            .dwattr $C$DW$111, DW_AT_decl_line(0x136)
    1183                            .dwattr $C$DW$111, DW_AT_decl_column(0x05)
    1184                    
    1185                    $C$DW$112       .dwtag  DW_TAG_enumerator
    1186                            .dwattr $C$DW$112, DW_AT_name("CC1350_LAUNCHXL_PWM1")
    1187                            .dwattr $C$DW$112, DW_AT_const_value(0x01)
    1188                            .dwattr $C$DW$112, DW_AT_decl_file("C:\ti\simplelink_cc13x0_sdk_2_30_00_20\examples\rtos\CC135
    1189                            .dwattr $C$DW$112, DW_AT_decl_line(0x137)
    1190                            .dwattr $C$DW$112, DW_AT_decl_column(0x05)
    1191                    
    1192                    $C$DW$113       .dwtag  DW_TAG_enumerator
    1193                            .dwattr $C$DW$113, DW_AT_name("CC1350_LAUNCHXL_PWM2")
    1194                            .dwattr $C$DW$113, DW_AT_const_value(0x02)
    1195                            .dwattr $C$DW$113, DW_AT_decl_file("C:\ti\simplelink_cc13x0_sdk_2_30_00_20\examples\rtos\CC135
    1196                            .dwattr $C$DW$113, DW_AT_decl_line(0x138)
    1197                            .dwattr $C$DW$113, DW_AT_decl_column(0x05)
    1198                    
    1199                    $C$DW$114       .dwtag  DW_TAG_enumerator
    1200                            .dwattr $C$DW$114, DW_AT_name("CC1350_LAUNCHXL_PWM3")
    1201                            .dwattr $C$DW$114, DW_AT_const_value(0x03)
    1202                            .dwattr $C$DW$114, DW_AT_decl_file("C:\ti\simplelink_cc13x0_sdk_2_30_00_20\examples\rtos\CC135
    1203                            .dwattr $C$DW$114, DW_AT_decl_line(0x139)
    1204                            .dwattr $C$DW$114, DW_AT_decl_column(0x05)
    1205                    
    1206                    $C$DW$115       .dwtag  DW_TAG_enumerator
    1207                            .dwattr $C$DW$115, DW_AT_name("CC1350_LAUNCHXL_PWM4")
    1208                            .dwattr $C$DW$115, DW_AT_const_value(0x04)
    1209                            .dwattr $C$DW$115, DW_AT_decl_file("C:\ti\simplelink_cc13x0_sdk_2_30_00_20\examples\rtos\CC135
    1210                            .dwattr $C$DW$115, DW_AT_decl_line(0x13a)
TI ARM Assembler PC v16.9.8 Thu Nov 22 09:24:44 2018

Tools Copyright (c) 1996-2017 Texas Instruments Incorporated
C:\Users\Einstein\AppData\Local\Temp\{D2CEF35E-DD0F-4D6B-8D7C-7424DE07D15F} PAGE   23

    1211                            .dwattr $C$DW$115, DW_AT_decl_column(0x05)
    1212                    
    1213                    $C$DW$116       .dwtag  DW_TAG_enumerator
    1214                            .dwattr $C$DW$116, DW_AT_name("CC1350_LAUNCHXL_PWM5")
    1215                            .dwattr $C$DW$116, DW_AT_const_value(0x05)
    1216                            .dwattr $C$DW$116, DW_AT_decl_file("C:\ti\simplelink_cc13x0_sdk_2_30_00_20\examples\rtos\CC135
    1217                            .dwattr $C$DW$116, DW_AT_decl_line(0x13b)
    1218                            .dwattr $C$DW$116, DW_AT_decl_column(0x05)
    1219                    
    1220                    $C$DW$117       .dwtag  DW_TAG_enumerator
    1221                            .dwattr $C$DW$117, DW_AT_name("CC1350_LAUNCHXL_PWM6")
    1222                            .dwattr $C$DW$117, DW_AT_const_value(0x06)
    1223                            .dwattr $C$DW$117, DW_AT_decl_file("C:\ti\simplelink_cc13x0_sdk_2_30_00_20\examples\rtos\CC135
    1224                            .dwattr $C$DW$117, DW_AT_decl_line(0x13c)
    1225                            .dwattr $C$DW$117, DW_AT_decl_column(0x05)
    1226                    
    1227                    $C$DW$118       .dwtag  DW_TAG_enumerator
    1228                            .dwattr $C$DW$118, DW_AT_name("CC1350_LAUNCHXL_PWM7")
    1229                            .dwattr $C$DW$118, DW_AT_const_value(0x07)
    1230                            .dwattr $C$DW$118, DW_AT_decl_file("C:\ti\simplelink_cc13x0_sdk_2_30_00_20\examples\rtos\CC135
    1231                            .dwattr $C$DW$118, DW_AT_decl_line(0x13d)
    1232                            .dwattr $C$DW$118, DW_AT_decl_column(0x05)
    1233                    
    1234                    $C$DW$119       .dwtag  DW_TAG_enumerator
    1235                            .dwattr $C$DW$119, DW_AT_name("CC1350_LAUNCHXL_PWMCOUNT")
    1236                            .dwattr $C$DW$119, DW_AT_const_value(0x08)
    1237                            .dwattr $C$DW$119, DW_AT_decl_file("C:\ti\simplelink_cc13x0_sdk_2_30_00_20\examples\rtos\CC135
    1238                            .dwattr $C$DW$119, DW_AT_decl_line(0x13f)
    1239                            .dwattr $C$DW$119, DW_AT_decl_column(0x05)
    1240                    
    1241                            .dwattr $C$DW$T$114, DW_AT_decl_file("C:\ti\simplelink_cc13x0_sdk_2_30_00_20\examples\rtos\CC1
    1242                            .dwattr $C$DW$T$114, DW_AT_decl_line(0x135)
    1243                            .dwattr $C$DW$T$114, DW_AT_decl_column(0x0e)
    1244                            .dwendtag $C$DW$T$114
    1245                    
    1246                    $C$DW$T$115     .dwtag  DW_TAG_typedef
    1247                            .dwattr $C$DW$T$115, DW_AT_name("CC1350_LAUNCHXL_PWMName")
    1248                            .dwattr $C$DW$T$115, DW_AT_type(*$C$DW$T$114)
    1249                            .dwattr $C$DW$T$115, DW_AT_language(DW_LANG_C)
    1250                            .dwattr $C$DW$T$115, DW_AT_decl_file("C:\ti\simplelink_cc13x0_sdk_2_30_00_20\examples\rtos\CC1
    1251                            .dwattr $C$DW$T$115, DW_AT_decl_line(0x140)
    1252                            .dwattr $C$DW$T$115, DW_AT_decl_column(0x03)
    1253                    
    1254                    
    1255                    $C$DW$T$116     .dwtag  DW_TAG_enumeration_type
    1256                            .dwattr $C$DW$T$116, DW_AT_name("CC1350_LAUNCHXL_SDName")
    1257                            .dwattr $C$DW$T$116, DW_AT_byte_size(0x01)
    1258                    $C$DW$120       .dwtag  DW_TAG_enumerator
    1259                            .dwattr $C$DW$120, DW_AT_name("CC1350_LAUNCHXL_SDSPI0")
    1260                            .dwattr $C$DW$120, DW_AT_const_value(0x00)
    1261                            .dwattr $C$DW$120, DW_AT_decl_file("C:\ti\simplelink_cc13x0_sdk_2_30_00_20\examples\rtos\CC135
    1262                            .dwattr $C$DW$120, DW_AT_decl_line(0x147)
    1263                            .dwattr $C$DW$120, DW_AT_decl_column(0x05)
    1264                    
    1265                    $C$DW$121       .dwtag  DW_TAG_enumerator
TI ARM Assembler PC v16.9.8 Thu Nov 22 09:24:44 2018

Tools Copyright (c) 1996-2017 Texas Instruments Incorporated
C:\Users\Einstein\AppData\Local\Temp\{D2CEF35E-DD0F-4D6B-8D7C-7424DE07D15F} PAGE   24

    1266                            .dwattr $C$DW$121, DW_AT_name("CC1350_LAUNCHXL_SDCOUNT")
    1267                            .dwattr $C$DW$121, DW_AT_const_value(0x01)
    1268                            .dwattr $C$DW$121, DW_AT_decl_file("C:\ti\simplelink_cc13x0_sdk_2_30_00_20\examples\rtos\CC135
    1269                            .dwattr $C$DW$121, DW_AT_decl_line(0x149)
    1270                            .dwattr $C$DW$121, DW_AT_decl_column(0x05)
    1271                    
    1272                            .dwattr $C$DW$T$116, DW_AT_decl_file("C:\ti\simplelink_cc13x0_sdk_2_30_00_20\examples\rtos\CC1
    1273                            .dwattr $C$DW$T$116, DW_AT_decl_line(0x146)
    1274                            .dwattr $C$DW$T$116, DW_AT_decl_column(0x0e)
    1275                            .dwendtag $C$DW$T$116
    1276                    
    1277                    $C$DW$T$117     .dwtag  DW_TAG_typedef
    1278                            .dwattr $C$DW$T$117, DW_AT_name("CC1350_LAUNCHXL_SDName")
    1279                            .dwattr $C$DW$T$117, DW_AT_type(*$C$DW$T$116)
    1280                            .dwattr $C$DW$T$117, DW_AT_language(DW_LANG_C)
    1281                            .dwattr $C$DW$T$117, DW_AT_decl_file("C:\ti\simplelink_cc13x0_sdk_2_30_00_20\examples\rtos\CC1
    1282                            .dwattr $C$DW$T$117, DW_AT_decl_line(0x14a)
    1283                            .dwattr $C$DW$T$117, DW_AT_decl_column(0x03)
    1284                    
    1285                    
    1286                    $C$DW$T$118     .dwtag  DW_TAG_enumeration_type
    1287                            .dwattr $C$DW$T$118, DW_AT_name("CC1350_LAUNCHXL_SPIName")
    1288                            .dwattr $C$DW$T$118, DW_AT_byte_size(0x01)
    1289                    $C$DW$122       .dwtag  DW_TAG_enumerator
    1290                            .dwattr $C$DW$122, DW_AT_name("CC1350_LAUNCHXL_SPI0")
    1291                            .dwattr $C$DW$122, DW_AT_const_value(0x00)
    1292                            .dwattr $C$DW$122, DW_AT_decl_file("C:\ti\simplelink_cc13x0_sdk_2_30_00_20\examples\rtos\CC135
    1293                            .dwattr $C$DW$122, DW_AT_decl_line(0x151)
    1294                            .dwattr $C$DW$122, DW_AT_decl_column(0x05)
    1295                    
    1296                    $C$DW$123       .dwtag  DW_TAG_enumerator
    1297                            .dwattr $C$DW$123, DW_AT_name("CC1350_LAUNCHXL_SPI1")
    1298                            .dwattr $C$DW$123, DW_AT_const_value(0x01)
    1299                            .dwattr $C$DW$123, DW_AT_decl_file("C:\ti\simplelink_cc13x0_sdk_2_30_00_20\examples\rtos\CC135
    1300                            .dwattr $C$DW$123, DW_AT_decl_line(0x152)
    1301                            .dwattr $C$DW$123, DW_AT_decl_column(0x05)
    1302                    
    1303                    $C$DW$124       .dwtag  DW_TAG_enumerator
    1304                            .dwattr $C$DW$124, DW_AT_name("CC1350_LAUNCHXL_SPICOUNT")
    1305                            .dwattr $C$DW$124, DW_AT_const_value(0x02)
    1306                            .dwattr $C$DW$124, DW_AT_decl_file("C:\ti\simplelink_cc13x0_sdk_2_30_00_20\examples\rtos\CC135
    1307                            .dwattr $C$DW$124, DW_AT_decl_line(0x154)
    1308                            .dwattr $C$DW$124, DW_AT_decl_column(0x05)
    1309                    
    1310                            .dwattr $C$DW$T$118, DW_AT_decl_file("C:\ti\simplelink_cc13x0_sdk_2_30_00_20\examples\rtos\CC1
    1311                            .dwattr $C$DW$T$118, DW_AT_decl_line(0x150)
    1312                            .dwattr $C$DW$T$118, DW_AT_decl_column(0x0e)
    1313                            .dwendtag $C$DW$T$118
    1314                    
    1315                    $C$DW$T$119     .dwtag  DW_TAG_typedef
    1316                            .dwattr $C$DW$T$119, DW_AT_name("CC1350_LAUNCHXL_SPIName")
    1317                            .dwattr $C$DW$T$119, DW_AT_type(*$C$DW$T$118)
    1318                            .dwattr $C$DW$T$119, DW_AT_language(DW_LANG_C)
    1319                            .dwattr $C$DW$T$119, DW_AT_decl_file("C:\ti\simplelink_cc13x0_sdk_2_30_00_20\examples\rtos\CC1
    1320                            .dwattr $C$DW$T$119, DW_AT_decl_line(0x155)
TI ARM Assembler PC v16.9.8 Thu Nov 22 09:24:44 2018

Tools Copyright (c) 1996-2017 Texas Instruments Incorporated
C:\Users\Einstein\AppData\Local\Temp\{D2CEF35E-DD0F-4D6B-8D7C-7424DE07D15F} PAGE   25

    1321                            .dwattr $C$DW$T$119, DW_AT_decl_column(0x03)
    1322                    
    1323                    
    1324                    $C$DW$T$120     .dwtag  DW_TAG_enumeration_type
    1325                            .dwattr $C$DW$T$120, DW_AT_name("CC1350_LAUNCHXL_UARTName")
    1326                            .dwattr $C$DW$T$120, DW_AT_byte_size(0x01)
    1327                    $C$DW$125       .dwtag  DW_TAG_enumerator
    1328                            .dwattr $C$DW$125, DW_AT_name("CC1350_LAUNCHXL_UART0")
    1329                            .dwattr $C$DW$125, DW_AT_const_value(0x00)
    1330                            .dwattr $C$DW$125, DW_AT_decl_file("C:\ti\simplelink_cc13x0_sdk_2_30_00_20\examples\rtos\CC135
    1331                            .dwattr $C$DW$125, DW_AT_decl_line(0x15c)
    1332                            .dwattr $C$DW$125, DW_AT_decl_column(0x05)
    1333                    
    1334                    $C$DW$126       .dwtag  DW_TAG_enumerator
    1335                            .dwattr $C$DW$126, DW_AT_name("CC1350_LAUNCHXL_UARTCOUNT")
    1336                            .dwattr $C$DW$126, DW_AT_const_value(0x01)
    1337                            .dwattr $C$DW$126, DW_AT_decl_file("C:\ti\simplelink_cc13x0_sdk_2_30_00_20\examples\rtos\CC135
    1338                            .dwattr $C$DW$126, DW_AT_decl_line(0x15e)
    1339                            .dwattr $C$DW$126, DW_AT_decl_column(0x05)
    1340                    
    1341                            .dwattr $C$DW$T$120, DW_AT_decl_file("C:\ti\simplelink_cc13x0_sdk_2_30_00_20\examples\rtos\CC1
    1342                            .dwattr $C$DW$T$120, DW_AT_decl_line(0x15b)
    1343                            .dwattr $C$DW$T$120, DW_AT_decl_column(0x0e)
    1344                            .dwendtag $C$DW$T$120
    1345                    
    1346                    $C$DW$T$121     .dwtag  DW_TAG_typedef
    1347                            .dwattr $C$DW$T$121, DW_AT_name("CC1350_LAUNCHXL_UARTName")
    1348                            .dwattr $C$DW$T$121, DW_AT_type(*$C$DW$T$120)
    1349                            .dwattr $C$DW$T$121, DW_AT_language(DW_LANG_C)
    1350                            .dwattr $C$DW$T$121, DW_AT_decl_file("C:\ti\simplelink_cc13x0_sdk_2_30_00_20\examples\rtos\CC1
    1351                            .dwattr $C$DW$T$121, DW_AT_decl_line(0x15f)
    1352                            .dwattr $C$DW$T$121, DW_AT_decl_column(0x03)
    1353                    
    1354                    
    1355                    $C$DW$T$122     .dwtag  DW_TAG_enumeration_type
    1356                            .dwattr $C$DW$T$122, DW_AT_name("CC1350_LAUNCHXL_UDMAName")
    1357                            .dwattr $C$DW$T$122, DW_AT_byte_size(0x01)
    1358                    $C$DW$127       .dwtag  DW_TAG_enumerator
    1359                            .dwattr $C$DW$127, DW_AT_name("CC1350_LAUNCHXL_UDMA0")
    1360                            .dwattr $C$DW$127, DW_AT_const_value(0x00)
    1361                            .dwattr $C$DW$127, DW_AT_decl_file("C:\ti\simplelink_cc13x0_sdk_2_30_00_20\examples\rtos\CC135
    1362                            .dwattr $C$DW$127, DW_AT_decl_line(0x166)
    1363                            .dwattr $C$DW$127, DW_AT_decl_column(0x05)
    1364                    
    1365                    $C$DW$128       .dwtag  DW_TAG_enumerator
    1366                            .dwattr $C$DW$128, DW_AT_name("CC1350_LAUNCHXL_UDMACOUNT")
    1367                            .dwattr $C$DW$128, DW_AT_const_value(0x01)
    1368                            .dwattr $C$DW$128, DW_AT_decl_file("C:\ti\simplelink_cc13x0_sdk_2_30_00_20\examples\rtos\CC135
    1369                            .dwattr $C$DW$128, DW_AT_decl_line(0x168)
    1370                            .dwattr $C$DW$128, DW_AT_decl_column(0x05)
    1371                    
    1372                            .dwattr $C$DW$T$122, DW_AT_decl_file("C:\ti\simplelink_cc13x0_sdk_2_30_00_20\examples\rtos\CC1
    1373                            .dwattr $C$DW$T$122, DW_AT_decl_line(0x165)
    1374                            .dwattr $C$DW$T$122, DW_AT_decl_column(0x0e)
    1375                            .dwendtag $C$DW$T$122
TI ARM Assembler PC v16.9.8 Thu Nov 22 09:24:44 2018

Tools Copyright (c) 1996-2017 Texas Instruments Incorporated
C:\Users\Einstein\AppData\Local\Temp\{D2CEF35E-DD0F-4D6B-8D7C-7424DE07D15F} PAGE   26

    1376                    
    1377                    $C$DW$T$123     .dwtag  DW_TAG_typedef
    1378                            .dwattr $C$DW$T$123, DW_AT_name("CC1350_LAUNCHXL_UDMAName")
    1379                            .dwattr $C$DW$T$123, DW_AT_type(*$C$DW$T$122)
    1380                            .dwattr $C$DW$T$123, DW_AT_language(DW_LANG_C)
    1381                            .dwattr $C$DW$T$123, DW_AT_decl_file("C:\ti\simplelink_cc13x0_sdk_2_30_00_20\examples\rtos\CC1
    1382                            .dwattr $C$DW$T$123, DW_AT_decl_line(0x169)
    1383                            .dwattr $C$DW$T$123, DW_AT_decl_column(0x03)
    1384                    
    1385                    
    1386                    $C$DW$T$124     .dwtag  DW_TAG_enumeration_type
    1387                            .dwattr $C$DW$T$124, DW_AT_name("CC1350_LAUNCHXL_WatchdogName")
    1388                            .dwattr $C$DW$T$124, DW_AT_byte_size(0x01)
    1389                    $C$DW$129       .dwtag  DW_TAG_enumerator
    1390                            .dwattr $C$DW$129, DW_AT_name("CC1350_LAUNCHXL_WATCHDOG0")
    1391                            .dwattr $C$DW$129, DW_AT_const_value(0x00)
    1392                            .dwattr $C$DW$129, DW_AT_decl_file("C:\ti\simplelink_cc13x0_sdk_2_30_00_20\examples\rtos\CC135
    1393                            .dwattr $C$DW$129, DW_AT_decl_line(0x170)
    1394                            .dwattr $C$DW$129, DW_AT_decl_column(0x05)
    1395                    
    1396                    $C$DW$130       .dwtag  DW_TAG_enumerator
    1397                            .dwattr $C$DW$130, DW_AT_name("CC1350_LAUNCHXL_WATCHDOGCOUNT")
    1398                            .dwattr $C$DW$130, DW_AT_const_value(0x01)
    1399                            .dwattr $C$DW$130, DW_AT_decl_file("C:\ti\simplelink_cc13x0_sdk_2_30_00_20\examples\rtos\CC135
    1400                            .dwattr $C$DW$130, DW_AT_decl_line(0x172)
    1401                            .dwattr $C$DW$130, DW_AT_decl_column(0x05)
    1402                    
    1403                            .dwattr $C$DW$T$124, DW_AT_decl_file("C:\ti\simplelink_cc13x0_sdk_2_30_00_20\examples\rtos\CC1
    1404                            .dwattr $C$DW$T$124, DW_AT_decl_line(0x16f)
    1405                            .dwattr $C$DW$T$124, DW_AT_decl_column(0x0e)
    1406                            .dwendtag $C$DW$T$124
    1407                    
    1408                    $C$DW$T$125     .dwtag  DW_TAG_typedef
    1409                            .dwattr $C$DW$T$125, DW_AT_name("CC1350_LAUNCHXL_WatchdogName")
    1410                            .dwattr $C$DW$T$125, DW_AT_type(*$C$DW$T$124)
    1411                            .dwattr $C$DW$T$125, DW_AT_language(DW_LANG_C)
    1412                            .dwattr $C$DW$T$125, DW_AT_decl_file("C:\ti\simplelink_cc13x0_sdk_2_30_00_20\examples\rtos\CC1
    1413                            .dwattr $C$DW$T$125, DW_AT_decl_line(0x173)
    1414                            .dwattr $C$DW$T$125, DW_AT_decl_column(0x03)
    1415                    
    1416                    
    1417                    $C$DW$T$70      .dwtag  DW_TAG_structure_type
    1418                            .dwattr $C$DW$T$70, DW_AT_name("HwiP_Params")
    1419                            .dwattr $C$DW$T$70, DW_AT_byte_size(0x0c)
    1420                    $C$DW$131       .dwtag  DW_TAG_member
    1421                            .dwattr $C$DW$131, DW_AT_type(*$C$DW$T$68)
    1422                            .dwattr $C$DW$131, DW_AT_name("arg")
    1423                            .dwattr $C$DW$131, DW_AT_TI_symbol_name("arg")
    1424                            .dwattr $C$DW$131, DW_AT_data_member_location[DW_OP_plus_uconst 0x0]
    1425                            .dwattr $C$DW$131, DW_AT_accessibility(DW_ACCESS_public)
    1426                            .dwattr $C$DW$131, DW_AT_decl_file("C:/ti/simplelink_cc13x0_sdk_2_30_00_20/source/ti/drivers/d
    1427                            .dwattr $C$DW$131, DW_AT_decl_line(0x72)
    1428                            .dwattr $C$DW$131, DW_AT_decl_column(0x10)
    1429                    
    1430                    $C$DW$132       .dwtag  DW_TAG_member
TI ARM Assembler PC v16.9.8 Thu Nov 22 09:24:44 2018

Tools Copyright (c) 1996-2017 Texas Instruments Incorporated
C:\Users\Einstein\AppData\Local\Temp\{D2CEF35E-DD0F-4D6B-8D7C-7424DE07D15F} PAGE   27

    1431                            .dwattr $C$DW$132, DW_AT_type(*$C$DW$T$19)
    1432                            .dwattr $C$DW$132, DW_AT_name("priority")
    1433                            .dwattr $C$DW$132, DW_AT_TI_symbol_name("priority")
    1434                            .dwattr $C$DW$132, DW_AT_data_member_location[DW_OP_plus_uconst 0x4]
    1435                            .dwattr $C$DW$132, DW_AT_accessibility(DW_ACCESS_public)
    1436                            .dwattr $C$DW$132, DW_AT_decl_file("C:/ti/simplelink_cc13x0_sdk_2_30_00_20/source/ti/drivers/d
    1437                            .dwattr $C$DW$132, DW_AT_decl_line(0x73)
    1438                            .dwattr $C$DW$132, DW_AT_decl_column(0x10)
    1439                    
    1440                    $C$DW$133       .dwtag  DW_TAG_member
    1441                            .dwattr $C$DW$133, DW_AT_type(*$C$DW$T$69)
    1442                            .dwattr $C$DW$133, DW_AT_name("enableInt")
    1443                            .dwattr $C$DW$133, DW_AT_TI_symbol_name("enableInt")
    1444                            .dwattr $C$DW$133, DW_AT_data_member_location[DW_OP_plus_uconst 0x8]
    1445                            .dwattr $C$DW$133, DW_AT_accessibility(DW_ACCESS_public)
    1446                            .dwattr $C$DW$133, DW_AT_decl_file("C:/ti/simplelink_cc13x0_sdk_2_30_00_20/source/ti/drivers/d
    1447                            .dwattr $C$DW$133, DW_AT_decl_line(0x74)
    1448                            .dwattr $C$DW$133, DW_AT_decl_column(0x10)
    1449                    
    1450                            .dwattr $C$DW$T$70, DW_AT_decl_file("C:/ti/simplelink_cc13x0_sdk_2_30_00_20/source/ti/drivers/
    1451                            .dwattr $C$DW$T$70, DW_AT_decl_line(0x71)
    1452                            .dwattr $C$DW$T$70, DW_AT_decl_column(0x10)
    1453                            .dwendtag $C$DW$T$70
    1454                    
    1455                    $C$DW$T$126     .dwtag  DW_TAG_typedef
    1456                            .dwattr $C$DW$T$126, DW_AT_name("HwiP_Params")
    1457                            .dwattr $C$DW$T$126, DW_AT_type(*$C$DW$T$70)
    1458                            .dwattr $C$DW$T$126, DW_AT_language(DW_LANG_C)
    1459                            .dwattr $C$DW$T$126, DW_AT_decl_file("C:/ti/simplelink_cc13x0_sdk_2_30_00_20/source/ti/drivers
    1460                            .dwattr $C$DW$T$126, DW_AT_decl_line(0x75)
    1461                            .dwattr $C$DW$T$126, DW_AT_decl_column(0x03)
    1462                    
    1463                    
    1464                    $C$DW$T$127     .dwtag  DW_TAG_enumeration_type
    1465                            .dwattr $C$DW$T$127, DW_AT_name("HwiP_Status")
    1466                            .dwattr $C$DW$T$127, DW_AT_byte_size(0x01)
    1467                    $C$DW$134       .dwtag  DW_TAG_enumerator
    1468                            .dwattr $C$DW$134, DW_AT_name("HwiP_OK")
    1469                            .dwattr $C$DW$134, DW_AT_const_value(0x00)
    1470                            .dwattr $C$DW$134, DW_AT_decl_file("C:/ti/simplelink_cc13x0_sdk_2_30_00_20/source/ti/drivers/d
    1471                            .dwattr $C$DW$134, DW_AT_decl_line(0x5c)
    1472                            .dwattr $C$DW$134, DW_AT_decl_column(0x05)
    1473                    
    1474                    $C$DW$135       .dwtag  DW_TAG_enumerator
    1475                            .dwattr $C$DW$135, DW_AT_name("HwiP_FAILURE")
    1476                            .dwattr $C$DW$135, DW_AT_const_value(-1)
    1477                            .dwattr $C$DW$135, DW_AT_decl_file("C:/ti/simplelink_cc13x0_sdk_2_30_00_20/source/ti/drivers/d
    1478                            .dwattr $C$DW$135, DW_AT_decl_line(0x5d)
    1479                            .dwattr $C$DW$135, DW_AT_decl_column(0x05)
    1480                    
    1481                            .dwattr $C$DW$T$127, DW_AT_decl_file("C:/ti/simplelink_cc13x0_sdk_2_30_00_20/source/ti/drivers
    1482                            .dwattr $C$DW$T$127, DW_AT_decl_line(0x5b)
    1483                            .dwattr $C$DW$T$127, DW_AT_decl_column(0x0e)
    1484                            .dwendtag $C$DW$T$127
    1485                    
TI ARM Assembler PC v16.9.8 Thu Nov 22 09:24:44 2018

Tools Copyright (c) 1996-2017 Texas Instruments Incorporated
C:\Users\Einstein\AppData\Local\Temp\{D2CEF35E-DD0F-4D6B-8D7C-7424DE07D15F} PAGE   28

    1486                    $C$DW$T$128     .dwtag  DW_TAG_typedef
    1487                            .dwattr $C$DW$T$128, DW_AT_name("HwiP_Status")
    1488                            .dwattr $C$DW$T$128, DW_AT_type(*$C$DW$T$127)
    1489                            .dwattr $C$DW$T$128, DW_AT_language(DW_LANG_C)
    1490                            .dwattr $C$DW$T$128, DW_AT_decl_file("C:/ti/simplelink_cc13x0_sdk_2_30_00_20/source/ti/drivers
    1491                            .dwattr $C$DW$T$128, DW_AT_decl_line(0x5e)
    1492                            .dwattr $C$DW$T$128, DW_AT_decl_column(0x03)
    1493                    
    1494                    
    1495                    $C$DW$T$73      .dwtag  DW_TAG_union_type
    1496                            .dwattr $C$DW$T$73, DW_AT_name("HwiP_Struct")
    1497                            .dwattr $C$DW$T$73, DW_AT_byte_size(0x1c)
    1498                    $C$DW$136       .dwtag  DW_TAG_member
    1499                            .dwattr $C$DW$136, DW_AT_type(*$C$DW$T$19)
    1500                            .dwattr $C$DW$136, DW_AT_name("dummy")
    1501                            .dwattr $C$DW$136, DW_AT_TI_symbol_name("dummy")
    1502                            .dwattr $C$DW$136, DW_AT_data_member_location[DW_OP_plus_uconst 0x0]
    1503                            .dwattr $C$DW$136, DW_AT_accessibility(DW_ACCESS_public)
    1504                            .dwattr $C$DW$136, DW_AT_decl_file("C:/ti/simplelink_cc13x0_sdk_2_30_00_20/source/ti/drivers/d
    1505                            .dwattr $C$DW$136, DW_AT_decl_line(0x4d)
    1506                            .dwattr $C$DW$136, DW_AT_decl_column(0x0e)
    1507                    
    1508                    $C$DW$137       .dwtag  DW_TAG_member
    1509                            .dwattr $C$DW$137, DW_AT_type(*$C$DW$T$72)
    1510                            .dwattr $C$DW$137, DW_AT_name("data")
    1511                            .dwattr $C$DW$137, DW_AT_TI_symbol_name("data")
    1512                            .dwattr $C$DW$137, DW_AT_data_member_location[DW_OP_plus_uconst 0x0]
    1513                            .dwattr $C$DW$137, DW_AT_accessibility(DW_ACCESS_public)
    1514                            .dwattr $C$DW$137, DW_AT_decl_file("C:/ti/simplelink_cc13x0_sdk_2_30_00_20/source/ti/drivers/d
    1515                            .dwattr $C$DW$137, DW_AT_decl_line(0x4e)
    1516                            .dwattr $C$DW$137, DW_AT_decl_column(0x0e)
    1517                    
    1518                            .dwattr $C$DW$T$73, DW_AT_decl_file("C:/ti/simplelink_cc13x0_sdk_2_30_00_20/source/ti/drivers/
    1519                            .dwattr $C$DW$T$73, DW_AT_decl_line(0x4c)
    1520                            .dwattr $C$DW$T$73, DW_AT_decl_column(0x0f)
    1521                            .dwendtag $C$DW$T$73
    1522                    
    1523                    $C$DW$T$129     .dwtag  DW_TAG_typedef
    1524                            .dwattr $C$DW$T$129, DW_AT_name("HwiP_Struct")
    1525                            .dwattr $C$DW$T$129, DW_AT_type(*$C$DW$T$73)
    1526                            .dwattr $C$DW$T$129, DW_AT_language(DW_LANG_C)
    1527                            .dwattr $C$DW$T$129, DW_AT_decl_file("C:/ti/simplelink_cc13x0_sdk_2_30_00_20/source/ti/drivers
    1528                            .dwattr $C$DW$T$129, DW_AT_decl_line(0x4f)
    1529                            .dwattr $C$DW$T$129, DW_AT_decl_column(0x03)
    1530                    
    1531                    
    1532                    $C$DW$T$74      .dwtag  DW_TAG_structure_type
    1533                            .dwattr $C$DW$T$74, DW_AT_name("PINCC26XX_HWAttrs")
    1534                            .dwattr $C$DW$T$74, DW_AT_byte_size(0x08)
    1535                    $C$DW$138       .dwtag  DW_TAG_member
    1536                            .dwattr $C$DW$138, DW_AT_type(*$C$DW$T$20)
    1537                            .dwattr $C$DW$138, DW_AT_name("intPriority")
    1538                            .dwattr $C$DW$138, DW_AT_TI_symbol_name("intPriority")
    1539                            .dwattr $C$DW$138, DW_AT_data_member_location[DW_OP_plus_uconst 0x0]
    1540                            .dwattr $C$DW$138, DW_AT_accessibility(DW_ACCESS_public)
TI ARM Assembler PC v16.9.8 Thu Nov 22 09:24:44 2018

Tools Copyright (c) 1996-2017 Texas Instruments Incorporated
C:\Users\Einstein\AppData\Local\Temp\{D2CEF35E-DD0F-4D6B-8D7C-7424DE07D15F} PAGE   29

    1541                            .dwattr $C$DW$138, DW_AT_decl_file("C:/ti/simplelink_cc13x0_sdk_2_30_00_20/source/ti/drivers/p
    1542                            .dwattr $C$DW$138, DW_AT_decl_line(0x175)
    1543                            .dwattr $C$DW$138, DW_AT_decl_column(0x16)
    1544                    
    1545                    $C$DW$139       .dwtag  DW_TAG_member
    1546                            .dwattr $C$DW$139, DW_AT_type(*$C$DW$T$19)
    1547                            .dwattr $C$DW$139, DW_AT_name("swiPriority")
    1548                            .dwattr $C$DW$139, DW_AT_TI_symbol_name("swiPriority")
    1549                            .dwattr $C$DW$139, DW_AT_data_member_location[DW_OP_plus_uconst 0x4]
    1550                            .dwattr $C$DW$139, DW_AT_accessibility(DW_ACCESS_public)
    1551                            .dwattr $C$DW$139, DW_AT_decl_file("C:/ti/simplelink_cc13x0_sdk_2_30_00_20/source/ti/drivers/p
    1552                            .dwattr $C$DW$139, DW_AT_decl_line(0x17b)
    1553                            .dwattr $C$DW$139, DW_AT_decl_column(0x16)
    1554                    
    1555                            .dwattr $C$DW$T$74, DW_AT_decl_file("C:/ti/simplelink_cc13x0_sdk_2_30_00_20/source/ti/drivers/
    1556                            .dwattr $C$DW$T$74, DW_AT_decl_line(0x167)
    1557                            .dwattr $C$DW$T$74, DW_AT_decl_column(0x10)
    1558                            .dwendtag $C$DW$T$74
    1559                    
    1560                    $C$DW$T$130     .dwtag  DW_TAG_typedef
    1561                            .dwattr $C$DW$T$130, DW_AT_name("PINCC26XX_HWAttrs")
    1562                            .dwattr $C$DW$T$130, DW_AT_type(*$C$DW$T$74)
    1563                            .dwattr $C$DW$T$130, DW_AT_language(DW_LANG_C)
    1564                            .dwattr $C$DW$T$130, DW_AT_decl_file("C:/ti/simplelink_cc13x0_sdk_2_30_00_20/source/ti/drivers
    1565                            .dwattr $C$DW$T$130, DW_AT_decl_line(0x17c)
    1566                            .dwattr $C$DW$T$130, DW_AT_decl_column(0x03)
    1567                    
    1568                    
    1569                    $C$DW$T$82      .dwtag  DW_TAG_structure_type
    1570                            .dwattr $C$DW$T$82, DW_AT_name("PIN_State_s")
    1571                            .dwattr $C$DW$T$82, DW_AT_byte_size(0x0c)
    1572                    $C$DW$140       .dwtag  DW_TAG_member
    1573                            .dwattr $C$DW$140, DW_AT_type(*$C$DW$T$81)
    1574                            .dwattr $C$DW$140, DW_AT_name("callbackFxn")
    1575                            .dwattr $C$DW$140, DW_AT_TI_symbol_name("callbackFxn")
    1576                            .dwattr $C$DW$140, DW_AT_data_member_location[DW_OP_plus_uconst 0x0]
    1577                            .dwattr $C$DW$140, DW_AT_accessibility(DW_ACCESS_public)
    1578                            .dwattr $C$DW$140, DW_AT_decl_file("C:/ti/simplelink_cc13x0_sdk_2_30_00_20/source/ti/drivers/P
    1579                            .dwattr $C$DW$140, DW_AT_decl_line(0x2c5)
    1580                            .dwattr $C$DW$140, DW_AT_decl_column(0x11)
    1581                    
    1582                    $C$DW$141       .dwtag  DW_TAG_member
    1583                            .dwattr $C$DW$141, DW_AT_type(*$C$DW$T$19)
    1584                            .dwattr $C$DW$141, DW_AT_name("portMask")
    1585                            .dwattr $C$DW$141, DW_AT_TI_symbol_name("portMask")
    1586                            .dwattr $C$DW$141, DW_AT_data_member_location[DW_OP_plus_uconst 0x4]
    1587                            .dwattr $C$DW$141, DW_AT_accessibility(DW_ACCESS_public)
    1588                            .dwattr $C$DW$141, DW_AT_decl_file("C:/ti/simplelink_cc13x0_sdk_2_30_00_20/source/ti/drivers/P
    1589                            .dwattr $C$DW$141, DW_AT_decl_line(0x2c6)
    1590                            .dwattr $C$DW$141, DW_AT_decl_column(0x11)
    1591                    
    1592                    $C$DW$142       .dwtag  DW_TAG_member
    1593                            .dwattr $C$DW$142, DW_AT_type(*$C$DW$T$68)
    1594                            .dwattr $C$DW$142, DW_AT_name("userArg")
    1595                            .dwattr $C$DW$142, DW_AT_TI_symbol_name("userArg")
TI ARM Assembler PC v16.9.8 Thu Nov 22 09:24:44 2018

Tools Copyright (c) 1996-2017 Texas Instruments Incorporated
C:\Users\Einstein\AppData\Local\Temp\{D2CEF35E-DD0F-4D6B-8D7C-7424DE07D15F} PAGE   30

    1596                            .dwattr $C$DW$142, DW_AT_data_member_location[DW_OP_plus_uconst 0x8]
    1597                            .dwattr $C$DW$142, DW_AT_accessibility(DW_ACCESS_public)
    1598                            .dwattr $C$DW$142, DW_AT_decl_file("C:/ti/simplelink_cc13x0_sdk_2_30_00_20/source/ti/drivers/P
    1599                            .dwattr $C$DW$142, DW_AT_decl_line(0x2c7)
    1600                            .dwattr $C$DW$142, DW_AT_decl_column(0x11)
    1601                    
    1602                            .dwattr $C$DW$T$82, DW_AT_decl_file("C:/ti/simplelink_cc13x0_sdk_2_30_00_20/source/ti/drivers/
    1603                            .dwattr $C$DW$T$82, DW_AT_decl_line(0x2c4)
    1604                            .dwattr $C$DW$T$82, DW_AT_decl_column(0x08)
    1605                            .dwendtag $C$DW$T$82
    1606                    
    1607                    $C$DW$T$75      .dwtag  DW_TAG_typedef
    1608                            .dwattr $C$DW$T$75, DW_AT_name("PIN_State")
    1609                            .dwattr $C$DW$T$75, DW_AT_type(*$C$DW$T$82)
    1610                            .dwattr $C$DW$T$75, DW_AT_language(DW_LANG_C)
    1611                            .dwattr $C$DW$T$75, DW_AT_decl_file("C:/ti/simplelink_cc13x0_sdk_2_30_00_20/source/ti/drivers/
    1612                            .dwattr $C$DW$T$75, DW_AT_decl_line(0x2ad)
    1613                            .dwattr $C$DW$T$75, DW_AT_decl_column(0x1c)
    1614                    
    1615                    $C$DW$T$76      .dwtag  DW_TAG_pointer_type
    1616                            .dwattr $C$DW$T$76, DW_AT_type(*$C$DW$T$75)
    1617                            .dwattr $C$DW$T$76, DW_AT_address_class(0x20)
    1618                    
    1619                    $C$DW$T$77      .dwtag  DW_TAG_typedef
    1620                            .dwattr $C$DW$T$77, DW_AT_name("PIN_Handle")
    1621                            .dwattr $C$DW$T$77, DW_AT_type(*$C$DW$T$76)
    1622                            .dwattr $C$DW$T$77, DW_AT_language(DW_LANG_C)
    1623                            .dwattr $C$DW$T$77, DW_AT_decl_file("C:/ti/simplelink_cc13x0_sdk_2_30_00_20/source/ti/drivers/
    1624                            .dwattr $C$DW$T$77, DW_AT_decl_line(0x2b3)
    1625                            .dwattr $C$DW$T$77, DW_AT_decl_column(0x14)
    1626                    
    1627                    $C$DW$T$65      .dwtag  DW_TAG_pointer_type
    1628                            .dwattr $C$DW$T$65, DW_AT_type(*$C$DW$T$82)
    1629                            .dwattr $C$DW$T$65, DW_AT_address_class(0x20)
    1630                    
    1631                    $C$DW$T$2       .dwtag  DW_TAG_unspecified_type
    1632                            .dwattr $C$DW$T$2, DW_AT_name("void")
    1633                    
    1634                    $C$DW$T$3       .dwtag  DW_TAG_pointer_type
    1635                            .dwattr $C$DW$T$3, DW_AT_type(*$C$DW$T$2)
    1636                            .dwattr $C$DW$T$3, DW_AT_address_class(0x20)
    1637                    
    1638                    $C$DW$T$138     .dwtag  DW_TAG_typedef
    1639                            .dwattr $C$DW$T$138, DW_AT_name("HwiP_Handle")
    1640                            .dwattr $C$DW$T$138, DW_AT_type(*$C$DW$T$3)
    1641                            .dwattr $C$DW$T$138, DW_AT_language(DW_LANG_C)
    1642                            .dwattr $C$DW$T$138, DW_AT_decl_file("C:/ti/simplelink_cc13x0_sdk_2_30_00_20/source/ti/drivers
    1643                            .dwattr $C$DW$T$138, DW_AT_decl_line(0x56)
    1644                            .dwattr $C$DW$T$138, DW_AT_decl_column(0x10)
    1645                    
    1646                    $C$DW$T$139     .dwtag  DW_TAG_typedef
    1647                            .dwattr $C$DW$T$139, DW_AT_name("xdc_Ptr")
    1648                            .dwattr $C$DW$T$139, DW_AT_type(*$C$DW$T$3)
    1649                            .dwattr $C$DW$T$139, DW_AT_language(DW_LANG_C)
    1650                            .dwattr $C$DW$T$139, DW_AT_decl_file("C:/ti/xdctools_3_50_04_43_core/packages/xdc/std.h")
TI ARM Assembler PC v16.9.8 Thu Nov 22 09:24:44 2018

Tools Copyright (c) 1996-2017 Texas Instruments Incorporated
C:\Users\Einstein\AppData\Local\Temp\{D2CEF35E-DD0F-4D6B-8D7C-7424DE07D15F} PAGE   31

    1651                            .dwattr $C$DW$T$139, DW_AT_decl_line(0x2e)
    1652                            .dwattr $C$DW$T$139, DW_AT_decl_column(0x1a)
    1653                    
    1654                    $C$DW$T$140     .dwtag  DW_TAG_typedef
    1655                            .dwattr $C$DW$T$140, DW_AT_name("Ptr")
    1656                            .dwattr $C$DW$T$140, DW_AT_type(*$C$DW$T$139)
    1657                            .dwattr $C$DW$T$140, DW_AT_language(DW_LANG_C)
    1658                            .dwattr $C$DW$T$140, DW_AT_decl_file("C:/ti/xdctools_3_50_04_43_core/packages/xdc/std.h")
    1659                            .dwattr $C$DW$T$140, DW_AT_decl_line(0xf7)
    1660                            .dwattr $C$DW$T$140, DW_AT_decl_column(0x19)
    1661                    
    1662                    
    1663                    $C$DW$T$34      .dwtag  DW_TAG_subroutine_type
    1664                            .dwattr $C$DW$T$34, DW_AT_language(DW_LANG_C)
    1665                            .dwendtag $C$DW$T$34
    1666                    
    1667                    $C$DW$T$35      .dwtag  DW_TAG_pointer_type
    1668                            .dwattr $C$DW$T$35, DW_AT_type(*$C$DW$T$34)
    1669                            .dwattr $C$DW$T$35, DW_AT_address_class(0x20)
    1670                    
    1671                    $C$DW$T$53      .dwtag  DW_TAG_typedef
    1672                            .dwattr $C$DW$T$53, DW_AT_name("FPTR_HFSOURCESAFESWITCH_T")
    1673                            .dwattr $C$DW$T$53, DW_AT_type(*$C$DW$T$35)
    1674                            .dwattr $C$DW$T$53, DW_AT_language(DW_LANG_C)
    1675                            .dwattr $C$DW$T$53, DW_AT_decl_file("C:\ti\simplelink_cc13x0_sdk_2_30_00_20\source\ti\devices\
    1676                            .dwattr $C$DW$T$53, DW_AT_decl_line(0x5f)
    1677                            .dwattr $C$DW$T$53, DW_AT_decl_column(0x19)
    1678                    
    1679                    $C$DW$T$36      .dwtag  DW_TAG_typedef
    1680                            .dwattr $C$DW$T$36, DW_AT_name("FPTR_RESETDEV_T")
    1681                            .dwattr $C$DW$T$36, DW_AT_type(*$C$DW$T$35)
    1682                            .dwattr $C$DW$T$36, DW_AT_language(DW_LANG_C)
    1683                            .dwattr $C$DW$T$36, DW_AT_decl_file("C:\ti\simplelink_cc13x0_sdk_2_30_00_20\source\ti\devices\
    1684                            .dwattr $C$DW$T$36, DW_AT_decl_line(0x4d)
    1685                            .dwattr $C$DW$T$36, DW_AT_decl_column(0x19)
    1686                    
    1687                    $C$DW$T$141     .dwtag  DW_TAG_typedef
    1688                            .dwattr $C$DW$T$141, DW_AT_name("FPTR_VOID_VOID_T")
    1689                            .dwattr $C$DW$T$141, DW_AT_type(*$C$DW$T$35)
    1690                            .dwattr $C$DW$T$141, DW_AT_language(DW_LANG_C)
    1691                            .dwattr $C$DW$T$141, DW_AT_decl_file("C:\ti\simplelink_cc13x0_sdk_2_30_00_20\source\ti\devices
    1692                            .dwattr $C$DW$T$141, DW_AT_decl_line(0x33)
    1693                            .dwattr $C$DW$T$141, DW_AT_decl_column(0x11)
    1694                    
    1695                    
    1696                    $C$DW$T$49      .dwtag  DW_TAG_subroutine_type
    1697                            .dwattr $C$DW$T$49, DW_AT_language(DW_LANG_C)
    1698                    $C$DW$143       .dwtag  DW_TAG_formal_parameter
    1699                            .dwattr $C$DW$143, DW_AT_type(*$C$DW$T$19)
    1700                    
    1701                            .dwendtag $C$DW$T$49
    1702                    
    1703                    $C$DW$T$50      .dwtag  DW_TAG_pointer_type
    1704                            .dwattr $C$DW$T$50, DW_AT_type(*$C$DW$T$49)
    1705                            .dwattr $C$DW$T$50, DW_AT_address_class(0x20)
TI ARM Assembler PC v16.9.8 Thu Nov 22 09:24:44 2018

Tools Copyright (c) 1996-2017 Texas Instruments Incorporated
C:\Users\Einstein\AppData\Local\Temp\{D2CEF35E-DD0F-4D6B-8D7C-7424DE07D15F} PAGE   32

    1706                    
    1707                    $C$DW$T$51      .dwtag  DW_TAG_typedef
    1708                            .dwattr $C$DW$T$51, DW_AT_name("FPTR_RESERVED4_T")
    1709                            .dwattr $C$DW$T$51, DW_AT_type(*$C$DW$T$50)
    1710                            .dwattr $C$DW$T$51, DW_AT_language(DW_LANG_C)
    1711                            .dwattr $C$DW$T$51, DW_AT_decl_file("C:\ti\simplelink_cc13x0_sdk_2_30_00_20\source\ti\devices\
    1712                            .dwattr $C$DW$T$51, DW_AT_decl_line(0x61)
    1713                            .dwattr $C$DW$T$51, DW_AT_decl_column(0x19)
    1714                    
    1715                    $C$DW$T$52      .dwtag  DW_TAG_typedef
    1716                            .dwattr $C$DW$T$52, DW_AT_name("FPTR_RESERVED5_T")
    1717                            .dwattr $C$DW$T$52, DW_AT_type(*$C$DW$T$50)
    1718                            .dwattr $C$DW$T$52, DW_AT_language(DW_LANG_C)
    1719                            .dwattr $C$DW$T$52, DW_AT_decl_file("C:\ti\simplelink_cc13x0_sdk_2_30_00_20\source\ti\devices\
    1720                            .dwattr $C$DW$T$52, DW_AT_decl_line(0x63)
    1721                            .dwattr $C$DW$T$52, DW_AT_decl_column(0x19)
    1722                    
    1723                    
    1724                    $C$DW$T$54      .dwtag  DW_TAG_subroutine_type
    1725                            .dwattr $C$DW$T$54, DW_AT_language(DW_LANG_C)
    1726                    $C$DW$144       .dwtag  DW_TAG_formal_parameter
    1727                            .dwattr $C$DW$144, DW_AT_type(*$C$DW$T$20)
    1728                    
    1729                            .dwendtag $C$DW$T$54
    1730                    
    1731                    $C$DW$T$55      .dwtag  DW_TAG_pointer_type
    1732                            .dwattr $C$DW$T$55, DW_AT_type(*$C$DW$T$54)
    1733                            .dwattr $C$DW$T$55, DW_AT_address_class(0x20)
    1734                    
    1735                    $C$DW$T$58      .dwtag  DW_TAG_typedef
    1736                            .dwattr $C$DW$T$58, DW_AT_name("FPTR_ADCCOMPBIN_T")
    1737                            .dwattr $C$DW$T$58, DW_AT_type(*$C$DW$T$55)
    1738                            .dwattr $C$DW$T$58, DW_AT_language(DW_LANG_C)
    1739                            .dwattr $C$DW$T$58, DW_AT_decl_file("C:\ti\simplelink_cc13x0_sdk_2_30_00_20\source\ti\devices\
    1740                            .dwattr $C$DW$T$58, DW_AT_decl_line(0x69)
    1741                            .dwattr $C$DW$T$58, DW_AT_decl_column(0x19)
    1742                    
    1743                    $C$DW$T$56      .dwtag  DW_TAG_typedef
    1744                            .dwattr $C$DW$T$56, DW_AT_name("FPTR_COMPAIN_T")
    1745                            .dwattr $C$DW$T$56, DW_AT_type(*$C$DW$T$55)
    1746                            .dwattr $C$DW$T$56, DW_AT_language(DW_LANG_C)
    1747                            .dwattr $C$DW$T$56, DW_AT_decl_file("C:\ti\simplelink_cc13x0_sdk_2_30_00_20\source\ti\devices\
    1748                            .dwattr $C$DW$T$56, DW_AT_decl_line(0x65)
    1749                            .dwattr $C$DW$T$56, DW_AT_decl_column(0x19)
    1750                    
    1751                    $C$DW$T$57      .dwtag  DW_TAG_typedef
    1752                            .dwattr $C$DW$T$57, DW_AT_name("FPTR_COMPAREF_T")
    1753                            .dwattr $C$DW$T$57, DW_AT_type(*$C$DW$T$55)
    1754                            .dwattr $C$DW$T$57, DW_AT_language(DW_LANG_C)
    1755                            .dwattr $C$DW$T$57, DW_AT_decl_file("C:\ti\simplelink_cc13x0_sdk_2_30_00_20\source\ti\devices\
    1756                            .dwattr $C$DW$T$57, DW_AT_decl_line(0x67)
    1757                            .dwattr $C$DW$T$57, DW_AT_decl_column(0x19)
    1758                    
    1759                    $C$DW$T$59      .dwtag  DW_TAG_typedef
    1760                            .dwattr $C$DW$T$59, DW_AT_name("FPTR_COMPBREF_T")
TI ARM Assembler PC v16.9.8 Thu Nov 22 09:24:44 2018

Tools Copyright (c) 1996-2017 Texas Instruments Incorporated
C:\Users\Einstein\AppData\Local\Temp\{D2CEF35E-DD0F-4D6B-8D7C-7424DE07D15F} PAGE   33

    1761                            .dwattr $C$DW$T$59, DW_AT_type(*$C$DW$T$55)
    1762                            .dwattr $C$DW$T$59, DW_AT_language(DW_LANG_C)
    1763                            .dwattr $C$DW$T$59, DW_AT_decl_file("C:\ti\simplelink_cc13x0_sdk_2_30_00_20\source\ti\devices\
    1764                            .dwattr $C$DW$T$59, DW_AT_decl_line(0x6b)
    1765                            .dwattr $C$DW$T$59, DW_AT_decl_column(0x19)
    1766                    
    1767                    $C$DW$T$142     .dwtag  DW_TAG_typedef
    1768                            .dwattr $C$DW$T$142, DW_AT_name("FPTR_VOID_UINT8_T")
    1769                            .dwattr $C$DW$T$142, DW_AT_type(*$C$DW$T$55)
    1770                            .dwattr $C$DW$T$142, DW_AT_language(DW_LANG_C)
    1771                            .dwattr $C$DW$T$142, DW_AT_decl_file("C:\ti\simplelink_cc13x0_sdk_2_30_00_20\source\ti\devices
    1772                            .dwattr $C$DW$T$142, DW_AT_decl_line(0x34)
    1773                            .dwattr $C$DW$T$142, DW_AT_decl_column(0x11)
    1774                    
    1775                    
    1776                    $C$DW$T$79      .dwtag  DW_TAG_subroutine_type
    1777                            .dwattr $C$DW$T$79, DW_AT_language(DW_LANG_C)
    1778                    $C$DW$145       .dwtag  DW_TAG_formal_parameter
    1779                            .dwattr $C$DW$145, DW_AT_type(*$C$DW$T$77)
    1780                    
    1781                    $C$DW$146       .dwtag  DW_TAG_formal_parameter
    1782                            .dwattr $C$DW$146, DW_AT_type(*$C$DW$T$78)
    1783                    
    1784                            .dwendtag $C$DW$T$79
    1785                    
    1786                    $C$DW$T$80      .dwtag  DW_TAG_pointer_type
    1787                            .dwattr $C$DW$T$80, DW_AT_type(*$C$DW$T$79)
    1788                            .dwattr $C$DW$T$80, DW_AT_address_class(0x20)
    1789                    
    1790                    $C$DW$T$81      .dwtag  DW_TAG_typedef
    1791                            .dwattr $C$DW$T$81, DW_AT_name("PIN_IntCb")
    1792                            .dwattr $C$DW$T$81, DW_AT_type(*$C$DW$T$80)
    1793                            .dwattr $C$DW$T$81, DW_AT_language(DW_LANG_C)
    1794                            .dwattr $C$DW$T$81, DW_AT_decl_file("C:/ti/simplelink_cc13x0_sdk_2_30_00_20/source/ti/drivers/
    1795                            .dwattr $C$DW$T$81, DW_AT_decl_line(0x2bf)
    1796                            .dwattr $C$DW$T$81, DW_AT_decl_column(0x10)
    1797                    
    1798                    $C$DW$T$143     .dwtag  DW_TAG_const_type
    1799                            .dwattr $C$DW$T$143, DW_AT_type(*$C$DW$T$2)
    1800                    
    1801                    $C$DW$T$144     .dwtag  DW_TAG_pointer_type
    1802                            .dwattr $C$DW$T$144, DW_AT_type(*$C$DW$T$143)
    1803                            .dwattr $C$DW$T$144, DW_AT_address_class(0x20)
    1804                    
    1805                    $C$DW$T$145     .dwtag  DW_TAG_typedef
    1806                            .dwattr $C$DW$T$145, DW_AT_name("xdc_CPtr")
    1807                            .dwattr $C$DW$T$145, DW_AT_type(*$C$DW$T$144)
    1808                            .dwattr $C$DW$T$145, DW_AT_language(DW_LANG_C)
    1809                            .dwattr $C$DW$T$145, DW_AT_decl_file("C:/ti/xdctools_3_50_04_43_core/packages/xdc/std.h")
    1810                            .dwattr $C$DW$T$145, DW_AT_decl_line(0x2f)
    1811                            .dwattr $C$DW$T$145, DW_AT_decl_column(0x1a)
    1812                    
    1813                    $C$DW$T$146     .dwtag  DW_TAG_typedef
    1814                            .dwattr $C$DW$T$146, DW_AT_name("CPtr")
    1815                            .dwattr $C$DW$T$146, DW_AT_type(*$C$DW$T$145)
TI ARM Assembler PC v16.9.8 Thu Nov 22 09:24:44 2018

Tools Copyright (c) 1996-2017 Texas Instruments Incorporated
C:\Users\Einstein\AppData\Local\Temp\{D2CEF35E-DD0F-4D6B-8D7C-7424DE07D15F} PAGE   34

    1816                            .dwattr $C$DW$T$146, DW_AT_language(DW_LANG_C)
    1817                            .dwattr $C$DW$T$146, DW_AT_decl_file("C:/ti/xdctools_3_50_04_43_core/packages/xdc/std.h")
    1818                            .dwattr $C$DW$T$146, DW_AT_decl_line(0xf8)
    1819                            .dwattr $C$DW$T$146, DW_AT_decl_column(0x19)
    1820                    
    1821                    
    1822                    $C$DW$T$147     .dwtag  DW_TAG_subroutine_type
    1823                            .dwattr $C$DW$T$147, DW_AT_language(DW_LANG_C)
    1824                    $C$DW$147       .dwtag  DW_TAG_formal_parameter
    1825                            .dwattr $C$DW$147, DW_AT_type(*$C$DW$T$68)
    1826                    
    1827                            .dwendtag $C$DW$T$147
    1828                    
    1829                    $C$DW$T$148     .dwtag  DW_TAG_pointer_type
    1830                            .dwattr $C$DW$T$148, DW_AT_type(*$C$DW$T$147)
    1831                            .dwattr $C$DW$T$148, DW_AT_address_class(0x20)
    1832                    
    1833                    $C$DW$T$149     .dwtag  DW_TAG_typedef
    1834                            .dwattr $C$DW$T$149, DW_AT_name("HwiP_Fxn")
    1835                            .dwattr $C$DW$T$149, DW_AT_type(*$C$DW$T$148)
    1836                            .dwattr $C$DW$T$149, DW_AT_language(DW_LANG_C)
    1837                            .dwattr $C$DW$T$149, DW_AT_decl_file("C:/ti/simplelink_cc13x0_sdk_2_30_00_20/source/ti/drivers
    1838                            .dwattr $C$DW$T$149, DW_AT_decl_line(0x63)
    1839                            .dwattr $C$DW$T$149, DW_AT_decl_column(0x10)
    1840                    
    1841                    $C$DW$T$4       .dwtag  DW_TAG_base_type
    1842                            .dwattr $C$DW$T$4, DW_AT_encoding(DW_ATE_boolean)
    1843                            .dwattr $C$DW$T$4, DW_AT_name("bool")
    1844                            .dwattr $C$DW$T$4, DW_AT_byte_size(0x01)
    1845                    
    1846                    $C$DW$T$5       .dwtag  DW_TAG_base_type
    1847                            .dwattr $C$DW$T$5, DW_AT_encoding(DW_ATE_signed_char)
    1848                            .dwattr $C$DW$T$5, DW_AT_name("signed char")
    1849                            .dwattr $C$DW$T$5, DW_AT_byte_size(0x01)
    1850                    
    1851                    $C$DW$T$150     .dwtag  DW_TAG_typedef
    1852                            .dwattr $C$DW$T$150, DW_AT_name("int8_t")
    1853                            .dwattr $C$DW$T$150, DW_AT_type(*$C$DW$T$5)
    1854                            .dwattr $C$DW$T$150, DW_AT_language(DW_LANG_C)
    1855                            .dwattr $C$DW$T$150, DW_AT_decl_file("C:/ti/ccsv7/tools/compiler/ti-cgt-arm_16.9.8.LTS/include
    1856                            .dwattr $C$DW$T$150, DW_AT_decl_line(0x2a)
    1857                            .dwattr $C$DW$T$150, DW_AT_decl_column(0x1d)
    1858                    
    1859                    $C$DW$T$151     .dwtag  DW_TAG_typedef
    1860                            .dwattr $C$DW$T$151, DW_AT_name("int_least8_t")
    1861                            .dwattr $C$DW$T$151, DW_AT_type(*$C$DW$T$150)
    1862                            .dwattr $C$DW$T$151, DW_AT_language(DW_LANG_C)
    1863                            .dwattr $C$DW$T$151, DW_AT_decl_file("C:/ti/ccsv7/tools/compiler/ti-cgt-arm_16.9.8.LTS/include
    1864                            .dwattr $C$DW$T$151, DW_AT_decl_line(0x37)
    1865                            .dwattr $C$DW$T$151, DW_AT_decl_column(0x17)
    1866                    
    1867                    $C$DW$T$152     .dwtag  DW_TAG_typedef
    1868                            .dwattr $C$DW$T$152, DW_AT_name("xdc_Int8")
    1869                            .dwattr $C$DW$T$152, DW_AT_type(*$C$DW$T$151)
    1870                            .dwattr $C$DW$T$152, DW_AT_language(DW_LANG_C)
TI ARM Assembler PC v16.9.8 Thu Nov 22 09:24:44 2018

Tools Copyright (c) 1996-2017 Texas Instruments Incorporated
C:\Users\Einstein\AppData\Local\Temp\{D2CEF35E-DD0F-4D6B-8D7C-7424DE07D15F} PAGE   35

    1871                            .dwattr $C$DW$T$152, DW_AT_decl_file("C:/ti/simplelink_cc13x0_sdk_2_30_00_20/kernel/tirtos/pac
    1872                            .dwattr $C$DW$T$152, DW_AT_decl_line(0x6c)
    1873                            .dwattr $C$DW$T$152, DW_AT_decl_column(0x19)
    1874                    
    1875                    $C$DW$T$153     .dwtag  DW_TAG_typedef
    1876                            .dwattr $C$DW$T$153, DW_AT_name("Int8")
    1877                            .dwattr $C$DW$T$153, DW_AT_type(*$C$DW$T$152)
    1878                            .dwattr $C$DW$T$153, DW_AT_language(DW_LANG_C)
    1879                            .dwattr $C$DW$T$153, DW_AT_decl_file("C:/ti/xdctools_3_50_04_43_core/packages/xdc/std.h")
    1880                            .dwattr $C$DW$T$153, DW_AT_decl_line(0xf3)
    1881                            .dwattr $C$DW$T$153, DW_AT_decl_column(0x19)
    1882                    
    1883                    $C$DW$T$6       .dwtag  DW_TAG_base_type
    1884                            .dwattr $C$DW$T$6, DW_AT_encoding(DW_ATE_unsigned_char)
    1885                            .dwattr $C$DW$T$6, DW_AT_name("unsigned char")
    1886                            .dwattr $C$DW$T$6, DW_AT_byte_size(0x01)
    1887                    
    1888                    $C$DW$T$20      .dwtag  DW_TAG_typedef
    1889                            .dwattr $C$DW$T$20, DW_AT_name("uint8_t")
    1890                            .dwattr $C$DW$T$20, DW_AT_type(*$C$DW$T$6)
    1891                            .dwattr $C$DW$T$20, DW_AT_language(DW_LANG_C)
    1892                            .dwattr $C$DW$T$20, DW_AT_decl_file("C:/ti/ccsv7/tools/compiler/ti-cgt-arm_16.9.8.LTS/include/
    1893                            .dwattr $C$DW$T$20, DW_AT_decl_line(0x2b)
    1894                            .dwattr $C$DW$T$20, DW_AT_decl_column(0x1c)
    1895                    
    1896                    $C$DW$T$78      .dwtag  DW_TAG_typedef
    1897                            .dwattr $C$DW$T$78, DW_AT_name("PIN_Id")
    1898                            .dwattr $C$DW$T$78, DW_AT_type(*$C$DW$T$20)
    1899                            .dwattr $C$DW$T$78, DW_AT_language(DW_LANG_C)
    1900                            .dwattr $C$DW$T$78, DW_AT_decl_file("C:/ti/simplelink_cc13x0_sdk_2_30_00_20/source/ti/drivers/
    1901                            .dwattr $C$DW$T$78, DW_AT_decl_line(0x241)
    1902                            .dwattr $C$DW$T$78, DW_AT_decl_column(0x11)
    1903                    
    1904                    $C$DW$T$21      .dwtag  DW_TAG_pointer_type
    1905                            .dwattr $C$DW$T$21, DW_AT_type(*$C$DW$T$20)
    1906                            .dwattr $C$DW$T$21, DW_AT_address_class(0x20)
    1907                    
    1908                    $C$DW$T$154     .dwtag  DW_TAG_typedef
    1909                            .dwattr $C$DW$T$154, DW_AT_name("uint_least8_t")
    1910                            .dwattr $C$DW$T$154, DW_AT_type(*$C$DW$T$20)
    1911                            .dwattr $C$DW$T$154, DW_AT_language(DW_LANG_C)
    1912                            .dwattr $C$DW$T$154, DW_AT_decl_file("C:/ti/ccsv7/tools/compiler/ti-cgt-arm_16.9.8.LTS/include
    1913                            .dwattr $C$DW$T$154, DW_AT_decl_line(0x38)
    1914                            .dwattr $C$DW$T$154, DW_AT_decl_column(0x16)
    1915                    
    1916                    $C$DW$T$155     .dwtag  DW_TAG_typedef
    1917                            .dwattr $C$DW$T$155, DW_AT_name("xdc_UInt8")
    1918                            .dwattr $C$DW$T$155, DW_AT_type(*$C$DW$T$154)
    1919                            .dwattr $C$DW$T$155, DW_AT_language(DW_LANG_C)
    1920                            .dwattr $C$DW$T$155, DW_AT_decl_file("C:/ti/simplelink_cc13x0_sdk_2_30_00_20/kernel/tirtos/pac
    1921                            .dwattr $C$DW$T$155, DW_AT_decl_line(0x6d)
    1922                            .dwattr $C$DW$T$155, DW_AT_decl_column(0x19)
    1923                    
    1924                    $C$DW$T$156     .dwtag  DW_TAG_typedef
    1925                            .dwattr $C$DW$T$156, DW_AT_name("UInt8")
TI ARM Assembler PC v16.9.8 Thu Nov 22 09:24:44 2018

Tools Copyright (c) 1996-2017 Texas Instruments Incorporated
C:\Users\Einstein\AppData\Local\Temp\{D2CEF35E-DD0F-4D6B-8D7C-7424DE07D15F} PAGE   36

    1926                            .dwattr $C$DW$T$156, DW_AT_type(*$C$DW$T$155)
    1927                            .dwattr $C$DW$T$156, DW_AT_language(DW_LANG_C)
    1928                            .dwattr $C$DW$T$156, DW_AT_decl_file("C:/ti/xdctools_3_50_04_43_core/packages/xdc/std.h")
    1929                            .dwattr $C$DW$T$156, DW_AT_decl_line(0xfe)
    1930                            .dwattr $C$DW$T$156, DW_AT_decl_column(0x19)
    1931                    
    1932                    $C$DW$T$157     .dwtag  DW_TAG_typedef
    1933                            .dwattr $C$DW$T$157, DW_AT_name("Uint8")
    1934                            .dwattr $C$DW$T$157, DW_AT_type(*$C$DW$T$155)
    1935                            .dwattr $C$DW$T$157, DW_AT_language(DW_LANG_C)
    1936                            .dwattr $C$DW$T$157, DW_AT_decl_file("C:/ti/xdctools_3_50_04_43_core/packages/xdc/std.h")
    1937                            .dwattr $C$DW$T$157, DW_AT_decl_line(0x10b)
    1938                            .dwattr $C$DW$T$157, DW_AT_decl_column(0x19)
    1939                    
    1940                    $C$DW$T$158     .dwtag  DW_TAG_typedef
    1941                            .dwattr $C$DW$T$158, DW_AT_name("xdc_Bits8")
    1942                            .dwattr $C$DW$T$158, DW_AT_type(*$C$DW$T$20)
    1943                            .dwattr $C$DW$T$158, DW_AT_language(DW_LANG_C)
    1944                            .dwattr $C$DW$T$158, DW_AT_decl_file("C:/ti/simplelink_cc13x0_sdk_2_30_00_20/kernel/tirtos/pac
    1945                            .dwattr $C$DW$T$158, DW_AT_decl_line(0x89)
    1946                            .dwattr $C$DW$T$158, DW_AT_decl_column(0x19)
    1947                    
    1948                    $C$DW$T$159     .dwtag  DW_TAG_typedef
    1949                            .dwattr $C$DW$T$159, DW_AT_name("Bits8")
    1950                            .dwattr $C$DW$T$159, DW_AT_type(*$C$DW$T$158)
    1951                            .dwattr $C$DW$T$159, DW_AT_language(DW_LANG_C)
    1952                            .dwattr $C$DW$T$159, DW_AT_decl_file("C:/ti/xdctools_3_50_04_43_core/packages/xdc/std.h")
    1953                            .dwattr $C$DW$T$159, DW_AT_decl_line(0x11f)
    1954                            .dwattr $C$DW$T$159, DW_AT_decl_column(0x19)
    1955                    
    1956                    $C$DW$T$160     .dwtag  DW_TAG_typedef
    1957                            .dwattr $C$DW$T$160, DW_AT_name("xdc_UChar")
    1958                            .dwattr $C$DW$T$160, DW_AT_type(*$C$DW$T$6)
    1959                            .dwattr $C$DW$T$160, DW_AT_language(DW_LANG_C)
    1960                            .dwattr $C$DW$T$160, DW_AT_decl_file("C:/ti/xdctools_3_50_04_43_core/packages/xdc/std.h")
    1961                            .dwattr $C$DW$T$160, DW_AT_decl_line(0x1e)
    1962                            .dwattr $C$DW$T$160, DW_AT_decl_column(0x19)
    1963                    
    1964                    $C$DW$T$161     .dwtag  DW_TAG_typedef
    1965                            .dwattr $C$DW$T$161, DW_AT_name("UChar")
    1966                            .dwattr $C$DW$T$161, DW_AT_type(*$C$DW$T$160)
    1967                            .dwattr $C$DW$T$161, DW_AT_language(DW_LANG_C)
    1968                            .dwattr $C$DW$T$161, DW_AT_decl_file("C:/ti/xdctools_3_50_04_43_core/packages/xdc/std.h")
    1969                            .dwattr $C$DW$T$161, DW_AT_decl_line(0xe1)
    1970                            .dwattr $C$DW$T$161, DW_AT_decl_column(0x19)
    1971                    
    1972                    $C$DW$T$7       .dwtag  DW_TAG_base_type
    1973                            .dwattr $C$DW$T$7, DW_AT_encoding(DW_ATE_signed_char)
    1974                            .dwattr $C$DW$T$7, DW_AT_name("wchar_t")
    1975                            .dwattr $C$DW$T$7, DW_AT_byte_size(0x02)
    1976                    
    1977                    $C$DW$T$8       .dwtag  DW_TAG_base_type
    1978                            .dwattr $C$DW$T$8, DW_AT_encoding(DW_ATE_signed)
    1979                            .dwattr $C$DW$T$8, DW_AT_name("short")
    1980                            .dwattr $C$DW$T$8, DW_AT_byte_size(0x02)
TI ARM Assembler PC v16.9.8 Thu Nov 22 09:24:44 2018

Tools Copyright (c) 1996-2017 Texas Instruments Incorporated
C:\Users\Einstein\AppData\Local\Temp\{D2CEF35E-DD0F-4D6B-8D7C-7424DE07D15F} PAGE   37

    1981                    
    1982                    $C$DW$T$162     .dwtag  DW_TAG_typedef
    1983                            .dwattr $C$DW$T$162, DW_AT_name("int16_t")
    1984                            .dwattr $C$DW$T$162, DW_AT_type(*$C$DW$T$8)
    1985                            .dwattr $C$DW$T$162, DW_AT_language(DW_LANG_C)
    1986                            .dwattr $C$DW$T$162, DW_AT_decl_file("C:/ti/ccsv7/tools/compiler/ti-cgt-arm_16.9.8.LTS/include
    1987                            .dwattr $C$DW$T$162, DW_AT_decl_line(0x2c)
    1988                            .dwattr $C$DW$T$162, DW_AT_decl_column(0x1d)
    1989                    
    1990                    $C$DW$T$163     .dwtag  DW_TAG_typedef
    1991                            .dwattr $C$DW$T$163, DW_AT_name("int_least16_t")
    1992                            .dwattr $C$DW$T$163, DW_AT_type(*$C$DW$T$162)
    1993                            .dwattr $C$DW$T$163, DW_AT_language(DW_LANG_C)
    1994                            .dwattr $C$DW$T$163, DW_AT_decl_file("C:/ti/ccsv7/tools/compiler/ti-cgt-arm_16.9.8.LTS/include
    1995                            .dwattr $C$DW$T$163, DW_AT_decl_line(0x3a)
    1996                            .dwattr $C$DW$T$163, DW_AT_decl_column(0x17)
    1997                    
    1998                    $C$DW$T$164     .dwtag  DW_TAG_typedef
    1999                            .dwattr $C$DW$T$164, DW_AT_name("xdc_Int16")
    2000                            .dwattr $C$DW$T$164, DW_AT_type(*$C$DW$T$163)
    2001                            .dwattr $C$DW$T$164, DW_AT_language(DW_LANG_C)
    2002                            .dwattr $C$DW$T$164, DW_AT_decl_file("C:/ti/simplelink_cc13x0_sdk_2_30_00_20/kernel/tirtos/pac
    2003                            .dwattr $C$DW$T$164, DW_AT_decl_line(0x6e)
    2004                            .dwattr $C$DW$T$164, DW_AT_decl_column(0x19)
    2005                    
    2006                    $C$DW$T$165     .dwtag  DW_TAG_typedef
    2007                            .dwattr $C$DW$T$165, DW_AT_name("Int16")
    2008                            .dwattr $C$DW$T$165, DW_AT_type(*$C$DW$T$164)
    2009                            .dwattr $C$DW$T$165, DW_AT_language(DW_LANG_C)
    2010                            .dwattr $C$DW$T$165, DW_AT_decl_file("C:/ti/xdctools_3_50_04_43_core/packages/xdc/std.h")
    2011                            .dwattr $C$DW$T$165, DW_AT_decl_line(0xf4)
    2012                            .dwattr $C$DW$T$165, DW_AT_decl_column(0x19)
    2013                    
    2014                    $C$DW$T$166     .dwtag  DW_TAG_typedef
    2015                            .dwattr $C$DW$T$166, DW_AT_name("xdc_Short")
    2016                            .dwattr $C$DW$T$166, DW_AT_type(*$C$DW$T$8)
    2017                            .dwattr $C$DW$T$166, DW_AT_language(DW_LANG_C)
    2018                            .dwattr $C$DW$T$166, DW_AT_decl_file("C:/ti/xdctools_3_50_04_43_core/packages/xdc/std.h")
    2019                            .dwattr $C$DW$T$166, DW_AT_decl_line(0x1f)
    2020                            .dwattr $C$DW$T$166, DW_AT_decl_column(0x19)
    2021                    
    2022                    $C$DW$T$167     .dwtag  DW_TAG_typedef
    2023                            .dwattr $C$DW$T$167, DW_AT_name("Short")
    2024                            .dwattr $C$DW$T$167, DW_AT_type(*$C$DW$T$166)
    2025                            .dwattr $C$DW$T$167, DW_AT_language(DW_LANG_C)
    2026                            .dwattr $C$DW$T$167, DW_AT_decl_file("C:/ti/xdctools_3_50_04_43_core/packages/xdc/std.h")
    2027                            .dwattr $C$DW$T$167, DW_AT_decl_line(0xe2)
    2028                            .dwattr $C$DW$T$167, DW_AT_decl_column(0x19)
    2029                    
    2030                    $C$DW$T$9       .dwtag  DW_TAG_base_type
    2031                            .dwattr $C$DW$T$9, DW_AT_encoding(DW_ATE_unsigned)
    2032                            .dwattr $C$DW$T$9, DW_AT_name("unsigned short")
    2033                            .dwattr $C$DW$T$9, DW_AT_byte_size(0x02)
    2034                    
    2035                    $C$DW$T$37      .dwtag  DW_TAG_typedef
TI ARM Assembler PC v16.9.8 Thu Nov 22 09:24:44 2018

Tools Copyright (c) 1996-2017 Texas Instruments Incorporated
C:\Users\Einstein\AppData\Local\Temp\{D2CEF35E-DD0F-4D6B-8D7C-7424DE07D15F} PAGE   38

    2036                            .dwattr $C$DW$T$37, DW_AT_name("uint16_t")
    2037                            .dwattr $C$DW$T$37, DW_AT_type(*$C$DW$T$9)
    2038                            .dwattr $C$DW$T$37, DW_AT_language(DW_LANG_C)
    2039                            .dwattr $C$DW$T$37, DW_AT_decl_file("C:/ti/ccsv7/tools/compiler/ti-cgt-arm_16.9.8.LTS/include/
    2040                            .dwattr $C$DW$T$37, DW_AT_decl_line(0x2d)
    2041                            .dwattr $C$DW$T$37, DW_AT_decl_column(0x1c)
    2042                    
    2043                    $C$DW$T$38      .dwtag  DW_TAG_pointer_type
    2044                            .dwattr $C$DW$T$38, DW_AT_type(*$C$DW$T$37)
    2045                            .dwattr $C$DW$T$38, DW_AT_address_class(0x20)
    2046                    
    2047                    $C$DW$T$168     .dwtag  DW_TAG_typedef
    2048                            .dwattr $C$DW$T$168, DW_AT_name("uint_least16_t")
    2049                            .dwattr $C$DW$T$168, DW_AT_type(*$C$DW$T$37)
    2050                            .dwattr $C$DW$T$168, DW_AT_language(DW_LANG_C)
    2051                            .dwattr $C$DW$T$168, DW_AT_decl_file("C:/ti/ccsv7/tools/compiler/ti-cgt-arm_16.9.8.LTS/include
    2052                            .dwattr $C$DW$T$168, DW_AT_decl_line(0x3b)
    2053                            .dwattr $C$DW$T$168, DW_AT_decl_column(0x16)
    2054                    
    2055                    $C$DW$T$169     .dwtag  DW_TAG_typedef
    2056                            .dwattr $C$DW$T$169, DW_AT_name("xdc_UInt16")
    2057                            .dwattr $C$DW$T$169, DW_AT_type(*$C$DW$T$168)
    2058                            .dwattr $C$DW$T$169, DW_AT_language(DW_LANG_C)
    2059                            .dwattr $C$DW$T$169, DW_AT_decl_file("C:/ti/simplelink_cc13x0_sdk_2_30_00_20/kernel/tirtos/pac
    2060                            .dwattr $C$DW$T$169, DW_AT_decl_line(0x6f)
    2061                            .dwattr $C$DW$T$169, DW_AT_decl_column(0x19)
    2062                    
    2063                    $C$DW$T$170     .dwtag  DW_TAG_typedef
    2064                            .dwattr $C$DW$T$170, DW_AT_name("UInt16")
    2065                            .dwattr $C$DW$T$170, DW_AT_type(*$C$DW$T$169)
    2066                            .dwattr $C$DW$T$170, DW_AT_language(DW_LANG_C)
    2067                            .dwattr $C$DW$T$170, DW_AT_decl_file("C:/ti/xdctools_3_50_04_43_core/packages/xdc/std.h")
    2068                            .dwattr $C$DW$T$170, DW_AT_decl_line(0xff)
    2069                            .dwattr $C$DW$T$170, DW_AT_decl_column(0x19)
    2070                    
    2071                    $C$DW$T$171     .dwtag  DW_TAG_typedef
    2072                            .dwattr $C$DW$T$171, DW_AT_name("Uint16")
    2073                            .dwattr $C$DW$T$171, DW_AT_type(*$C$DW$T$169)
    2074                            .dwattr $C$DW$T$171, DW_AT_language(DW_LANG_C)
    2075                            .dwattr $C$DW$T$171, DW_AT_decl_file("C:/ti/xdctools_3_50_04_43_core/packages/xdc/std.h")
    2076                            .dwattr $C$DW$T$171, DW_AT_decl_line(0x10c)
    2077                            .dwattr $C$DW$T$171, DW_AT_decl_column(0x19)
    2078                    
    2079                    $C$DW$T$172     .dwtag  DW_TAG_typedef
    2080                            .dwattr $C$DW$T$172, DW_AT_name("xdc_Bits16")
    2081                            .dwattr $C$DW$T$172, DW_AT_type(*$C$DW$T$37)
    2082                            .dwattr $C$DW$T$172, DW_AT_language(DW_LANG_C)
    2083                            .dwattr $C$DW$T$172, DW_AT_decl_file("C:/ti/simplelink_cc13x0_sdk_2_30_00_20/kernel/tirtos/pac
    2084                            .dwattr $C$DW$T$172, DW_AT_decl_line(0x8c)
    2085                            .dwattr $C$DW$T$172, DW_AT_decl_column(0x19)
    2086                    
    2087                    $C$DW$T$173     .dwtag  DW_TAG_typedef
    2088                            .dwattr $C$DW$T$173, DW_AT_name("Bits16")
    2089                            .dwattr $C$DW$T$173, DW_AT_type(*$C$DW$T$172)
    2090                            .dwattr $C$DW$T$173, DW_AT_language(DW_LANG_C)
TI ARM Assembler PC v16.9.8 Thu Nov 22 09:24:44 2018

Tools Copyright (c) 1996-2017 Texas Instruments Incorporated
C:\Users\Einstein\AppData\Local\Temp\{D2CEF35E-DD0F-4D6B-8D7C-7424DE07D15F} PAGE   39

    2091                            .dwattr $C$DW$T$173, DW_AT_decl_file("C:/ti/xdctools_3_50_04_43_core/packages/xdc/std.h")
    2092                            .dwattr $C$DW$T$173, DW_AT_decl_line(0x123)
    2093                            .dwattr $C$DW$T$173, DW_AT_decl_column(0x19)
    2094                    
    2095                    $C$DW$T$174     .dwtag  DW_TAG_typedef
    2096                            .dwattr $C$DW$T$174, DW_AT_name("wchar_t")
    2097                            .dwattr $C$DW$T$174, DW_AT_type(*$C$DW$T$9)
    2098                            .dwattr $C$DW$T$174, DW_AT_language(DW_LANG_C)
    2099                            .dwattr $C$DW$T$174, DW_AT_decl_file("C:/ti/ccsv7/tools/compiler/ti-cgt-arm_16.9.8.LTS/include
    2100                            .dwattr $C$DW$T$174, DW_AT_decl_line(0x41)
    2101                            .dwattr $C$DW$T$174, DW_AT_decl_column(0x1a)
    2102                    
    2103                    $C$DW$T$175     .dwtag  DW_TAG_typedef
    2104                            .dwattr $C$DW$T$175, DW_AT_name("xdc_Bool")
    2105                            .dwattr $C$DW$T$175, DW_AT_type(*$C$DW$T$9)
    2106                            .dwattr $C$DW$T$175, DW_AT_language(DW_LANG_C)
    2107                            .dwattr $C$DW$T$175, DW_AT_decl_file("C:/ti/xdctools_3_50_04_43_core/packages/xdc/std.h")
    2108                            .dwattr $C$DW$T$175, DW_AT_decl_line(0x2d)
    2109                            .dwattr $C$DW$T$175, DW_AT_decl_column(0x19)
    2110                    
    2111                    $C$DW$T$176     .dwtag  DW_TAG_typedef
    2112                            .dwattr $C$DW$T$176, DW_AT_name("Bool")
    2113                            .dwattr $C$DW$T$176, DW_AT_type(*$C$DW$T$175)
    2114                            .dwattr $C$DW$T$176, DW_AT_language(DW_LANG_C)
    2115                            .dwattr $C$DW$T$176, DW_AT_decl_file("C:/ti/xdctools_3_50_04_43_core/packages/xdc/std.h")
    2116                            .dwattr $C$DW$T$176, DW_AT_decl_line(0xf2)
    2117                            .dwattr $C$DW$T$176, DW_AT_decl_column(0x19)
    2118                    
    2119                    $C$DW$T$177     .dwtag  DW_TAG_typedef
    2120                            .dwattr $C$DW$T$177, DW_AT_name("xdc_UShort")
    2121                            .dwattr $C$DW$T$177, DW_AT_type(*$C$DW$T$9)
    2122                            .dwattr $C$DW$T$177, DW_AT_language(DW_LANG_C)
    2123                            .dwattr $C$DW$T$177, DW_AT_decl_file("C:/ti/xdctools_3_50_04_43_core/packages/xdc/std.h")
    2124                            .dwattr $C$DW$T$177, DW_AT_decl_line(0x20)
    2125                            .dwattr $C$DW$T$177, DW_AT_decl_column(0x19)
    2126                    
    2127                    $C$DW$T$178     .dwtag  DW_TAG_typedef
    2128                            .dwattr $C$DW$T$178, DW_AT_name("UShort")
    2129                            .dwattr $C$DW$T$178, DW_AT_type(*$C$DW$T$177)
    2130                            .dwattr $C$DW$T$178, DW_AT_language(DW_LANG_C)
    2131                            .dwattr $C$DW$T$178, DW_AT_decl_file("C:/ti/xdctools_3_50_04_43_core/packages/xdc/std.h")
    2132                            .dwattr $C$DW$T$178, DW_AT_decl_line(0xe3)
    2133                            .dwattr $C$DW$T$178, DW_AT_decl_column(0x19)
    2134                    
    2135                    $C$DW$T$10      .dwtag  DW_TAG_base_type
    2136                            .dwattr $C$DW$T$10, DW_AT_encoding(DW_ATE_signed)
    2137                            .dwattr $C$DW$T$10, DW_AT_name("int")
    2138                            .dwattr $C$DW$T$10, DW_AT_byte_size(0x04)
    2139                    
    2140                    
    2141                    $C$DW$T$179     .dwtag  DW_TAG_subroutine_type
    2142                            .dwattr $C$DW$T$179, DW_AT_type(*$C$DW$T$10)
    2143                            .dwattr $C$DW$T$179, DW_AT_language(DW_LANG_C)
    2144                            .dwendtag $C$DW$T$179
    2145                    
TI ARM Assembler PC v16.9.8 Thu Nov 22 09:24:44 2018

Tools Copyright (c) 1996-2017 Texas Instruments Incorporated
C:\Users\Einstein\AppData\Local\Temp\{D2CEF35E-DD0F-4D6B-8D7C-7424DE07D15F} PAGE   40

    2146                    $C$DW$T$180     .dwtag  DW_TAG_pointer_type
    2147                            .dwattr $C$DW$T$180, DW_AT_type(*$C$DW$T$179)
    2148                            .dwattr $C$DW$T$180, DW_AT_address_class(0x20)
    2149                    
    2150                    $C$DW$T$181     .dwtag  DW_TAG_typedef
    2151                            .dwattr $C$DW$T$181, DW_AT_name("xdc_Fxn")
    2152                            .dwattr $C$DW$T$181, DW_AT_type(*$C$DW$T$180)
    2153                            .dwattr $C$DW$T$181, DW_AT_language(DW_LANG_C)
    2154                            .dwattr $C$DW$T$181, DW_AT_decl_file("C:/ti/xdctools_3_50_04_43_core/packages/xdc/std.h")
    2155                            .dwattr $C$DW$T$181, DW_AT_decl_line(0x47)
    2156                            .dwattr $C$DW$T$181, DW_AT_decl_column(0x1d)
    2157                    
    2158                    $C$DW$T$182     .dwtag  DW_TAG_typedef
    2159                            .dwattr $C$DW$T$182, DW_AT_name("Fxn")
    2160                            .dwattr $C$DW$T$182, DW_AT_type(*$C$DW$T$181)
    2161                            .dwattr $C$DW$T$182, DW_AT_language(DW_LANG_C)
    2162                            .dwattr $C$DW$T$182, DW_AT_decl_file("C:/ti/xdctools_3_50_04_43_core/packages/xdc/std.h")
    2163                            .dwattr $C$DW$T$182, DW_AT_decl_line(0xf6)
    2164                            .dwattr $C$DW$T$182, DW_AT_decl_column(0x19)
    2165                    
    2166                    $C$DW$T$87      .dwtag  DW_TAG_typedef
    2167                            .dwattr $C$DW$T$87, DW_AT_name("int32_t")
    2168                            .dwattr $C$DW$T$87, DW_AT_type(*$C$DW$T$10)
    2169                            .dwattr $C$DW$T$87, DW_AT_language(DW_LANG_C)
    2170                            .dwattr $C$DW$T$87, DW_AT_decl_file("C:/ti/ccsv7/tools/compiler/ti-cgt-arm_16.9.8.LTS/include/
    2171                            .dwattr $C$DW$T$87, DW_AT_decl_line(0x2e)
    2172                            .dwattr $C$DW$T$87, DW_AT_decl_column(0x1d)
    2173                    
    2174                    $C$DW$T$183     .dwtag  DW_TAG_typedef
    2175                            .dwattr $C$DW$T$183, DW_AT_name("int_fast16_t")
    2176                            .dwattr $C$DW$T$183, DW_AT_type(*$C$DW$T$87)
    2177                            .dwattr $C$DW$T$183, DW_AT_language(DW_LANG_C)
    2178                            .dwattr $C$DW$T$183, DW_AT_decl_file("C:/ti/ccsv7/tools/compiler/ti-cgt-arm_16.9.8.LTS/include
    2179                            .dwattr $C$DW$T$183, DW_AT_decl_line(0x47)
    2180                            .dwattr $C$DW$T$183, DW_AT_decl_column(0x17)
    2181                    
    2182                    $C$DW$T$184     .dwtag  DW_TAG_typedef
    2183                            .dwattr $C$DW$T$184, DW_AT_name("int_fast32_t")
    2184                            .dwattr $C$DW$T$184, DW_AT_type(*$C$DW$T$87)
    2185                            .dwattr $C$DW$T$184, DW_AT_language(DW_LANG_C)
    2186                            .dwattr $C$DW$T$184, DW_AT_decl_file("C:/ti/ccsv7/tools/compiler/ti-cgt-arm_16.9.8.LTS/include
    2187                            .dwattr $C$DW$T$184, DW_AT_decl_line(0x4a)
    2188                            .dwattr $C$DW$T$184, DW_AT_decl_column(0x17)
    2189                    
    2190                    $C$DW$T$185     .dwtag  DW_TAG_typedef
    2191                            .dwattr $C$DW$T$185, DW_AT_name("int_fast8_t")
    2192                            .dwattr $C$DW$T$185, DW_AT_type(*$C$DW$T$87)
    2193                            .dwattr $C$DW$T$185, DW_AT_language(DW_LANG_C)
    2194                            .dwattr $C$DW$T$185, DW_AT_decl_file("C:/ti/ccsv7/tools/compiler/ti-cgt-arm_16.9.8.LTS/include
    2195                            .dwattr $C$DW$T$185, DW_AT_decl_line(0x45)
    2196                            .dwattr $C$DW$T$185, DW_AT_decl_column(0x17)
    2197                    
    2198                    $C$DW$T$186     .dwtag  DW_TAG_typedef
    2199                            .dwattr $C$DW$T$186, DW_AT_name("int_least32_t")
    2200                            .dwattr $C$DW$T$186, DW_AT_type(*$C$DW$T$87)
TI ARM Assembler PC v16.9.8 Thu Nov 22 09:24:44 2018

Tools Copyright (c) 1996-2017 Texas Instruments Incorporated
C:\Users\Einstein\AppData\Local\Temp\{D2CEF35E-DD0F-4D6B-8D7C-7424DE07D15F} PAGE   41

    2201                            .dwattr $C$DW$T$186, DW_AT_language(DW_LANG_C)
    2202                            .dwattr $C$DW$T$186, DW_AT_decl_file("C:/ti/ccsv7/tools/compiler/ti-cgt-arm_16.9.8.LTS/include
    2203                            .dwattr $C$DW$T$186, DW_AT_decl_line(0x3c)
    2204                            .dwattr $C$DW$T$186, DW_AT_decl_column(0x17)
    2205                    
    2206                    $C$DW$T$187     .dwtag  DW_TAG_typedef
    2207                            .dwattr $C$DW$T$187, DW_AT_name("xdc_Int32")
    2208                            .dwattr $C$DW$T$187, DW_AT_type(*$C$DW$T$186)
    2209                            .dwattr $C$DW$T$187, DW_AT_language(DW_LANG_C)
    2210                            .dwattr $C$DW$T$187, DW_AT_decl_file("C:/ti/simplelink_cc13x0_sdk_2_30_00_20/kernel/tirtos/pac
    2211                            .dwattr $C$DW$T$187, DW_AT_decl_line(0x70)
    2212                            .dwattr $C$DW$T$187, DW_AT_decl_column(0x19)
    2213                    
    2214                    $C$DW$T$188     .dwtag  DW_TAG_typedef
    2215                            .dwattr $C$DW$T$188, DW_AT_name("Int32")
    2216                            .dwattr $C$DW$T$188, DW_AT_type(*$C$DW$T$187)
    2217                            .dwattr $C$DW$T$188, DW_AT_language(DW_LANG_C)
    2218                            .dwattr $C$DW$T$188, DW_AT_decl_file("C:/ti/xdctools_3_50_04_43_core/packages/xdc/std.h")
    2219                            .dwattr $C$DW$T$188, DW_AT_decl_line(0xf5)
    2220                            .dwattr $C$DW$T$188, DW_AT_decl_column(0x19)
    2221                    
    2222                    $C$DW$T$62      .dwtag  DW_TAG_typedef
    2223                            .dwattr $C$DW$T$62, DW_AT_name("intptr_t")
    2224                            .dwattr $C$DW$T$62, DW_AT_type(*$C$DW$T$10)
    2225                            .dwattr $C$DW$T$62, DW_AT_language(DW_LANG_C)
    2226                            .dwattr $C$DW$T$62, DW_AT_decl_file("C:/ti/ccsv7/tools/compiler/ti-cgt-arm_16.9.8.LTS/include/
    2227                            .dwattr $C$DW$T$62, DW_AT_decl_line(0x52)
    2228                            .dwattr $C$DW$T$62, DW_AT_decl_column(0x1a)
    2229                    
    2230                    $C$DW$T$63      .dwtag  DW_TAG_typedef
    2231                            .dwattr $C$DW$T$63, DW_AT_name("xdc_IArg")
    2232                            .dwattr $C$DW$T$63, DW_AT_type(*$C$DW$T$62)
    2233                            .dwattr $C$DW$T$63, DW_AT_language(DW_LANG_C)
    2234                            .dwattr $C$DW$T$63, DW_AT_decl_file("C:/ti/simplelink_cc13x0_sdk_2_30_00_20/kernel/tirtos/pack
    2235                            .dwattr $C$DW$T$63, DW_AT_decl_line(0x98)
    2236                            .dwattr $C$DW$T$63, DW_AT_decl_column(0x19)
    2237                    
    2238                    $C$DW$T$189     .dwtag  DW_TAG_typedef
    2239                            .dwattr $C$DW$T$189, DW_AT_name("IArg")
    2240                            .dwattr $C$DW$T$189, DW_AT_type(*$C$DW$T$63)
    2241                            .dwattr $C$DW$T$189, DW_AT_language(DW_LANG_C)
    2242                            .dwattr $C$DW$T$189, DW_AT_decl_file("C:/ti/xdctools_3_50_04_43_core/packages/xdc/std.h")
    2243                            .dwattr $C$DW$T$189, DW_AT_decl_line(0xf0)
    2244                            .dwattr $C$DW$T$189, DW_AT_decl_column(0x19)
    2245                    
    2246                    $C$DW$T$190     .dwtag  DW_TAG_typedef
    2247                            .dwattr $C$DW$T$190, DW_AT_name("ptrdiff_t")
    2248                            .dwattr $C$DW$T$190, DW_AT_type(*$C$DW$T$10)
    2249                            .dwattr $C$DW$T$190, DW_AT_language(DW_LANG_C)
    2250                            .dwattr $C$DW$T$190, DW_AT_decl_file("C:/ti/ccsv7/tools/compiler/ti-cgt-arm_16.9.8.LTS/include
    2251                            .dwattr $C$DW$T$190, DW_AT_decl_line(0x36)
    2252                            .dwattr $C$DW$T$190, DW_AT_decl_column(0x1c)
    2253                    
    2254                    $C$DW$T$191     .dwtag  DW_TAG_typedef
    2255                            .dwattr $C$DW$T$191, DW_AT_name("xdc_Int")
TI ARM Assembler PC v16.9.8 Thu Nov 22 09:24:44 2018

Tools Copyright (c) 1996-2017 Texas Instruments Incorporated
C:\Users\Einstein\AppData\Local\Temp\{D2CEF35E-DD0F-4D6B-8D7C-7424DE07D15F} PAGE   42

    2256                            .dwattr $C$DW$T$191, DW_AT_type(*$C$DW$T$10)
    2257                            .dwattr $C$DW$T$191, DW_AT_language(DW_LANG_C)
    2258                            .dwattr $C$DW$T$191, DW_AT_decl_file("C:/ti/xdctools_3_50_04_43_core/packages/xdc/std.h")
    2259                            .dwattr $C$DW$T$191, DW_AT_decl_line(0x21)
    2260                            .dwattr $C$DW$T$191, DW_AT_decl_column(0x19)
    2261                    
    2262                    $C$DW$T$192     .dwtag  DW_TAG_typedef
    2263                            .dwattr $C$DW$T$192, DW_AT_name("Int")
    2264                            .dwattr $C$DW$T$192, DW_AT_type(*$C$DW$T$191)
    2265                            .dwattr $C$DW$T$192, DW_AT_language(DW_LANG_C)
    2266                            .dwattr $C$DW$T$192, DW_AT_decl_file("C:/ti/xdctools_3_50_04_43_core/packages/xdc/std.h")
    2267                            .dwattr $C$DW$T$192, DW_AT_decl_line(0xe4)
    2268                            .dwattr $C$DW$T$192, DW_AT_decl_column(0x19)
    2269                    
    2270                    $C$DW$T$11      .dwtag  DW_TAG_base_type
    2271                            .dwattr $C$DW$T$11, DW_AT_encoding(DW_ATE_unsigned)
    2272                            .dwattr $C$DW$T$11, DW_AT_name("unsigned int")
    2273                            .dwattr $C$DW$T$11, DW_AT_byte_size(0x04)
    2274                    
    2275                    $C$DW$T$193     .dwtag  DW_TAG_typedef
    2276                            .dwattr $C$DW$T$193, DW_AT_name("__UINT32")
    2277                            .dwattr $C$DW$T$193, DW_AT_type(*$C$DW$T$11)
    2278                            .dwattr $C$DW$T$193, DW_AT_language(DW_LANG_C)
    2279                            .dwattr $C$DW$T$193, DW_AT_decl_file("C:\ti\simplelink_cc13x0_sdk_2_30_00_20\source\ti\devices
    2280                            .dwattr $C$DW$T$193, DW_AT_decl_line(0x45)
    2281                            .dwattr $C$DW$T$193, DW_AT_decl_column(0x17)
    2282                    
    2283                    
    2284                    $C$DW$T$66      .dwtag  DW_TAG_array_type
    2285                            .dwattr $C$DW$T$66, DW_AT_type(*$C$DW$T$11)
    2286                            .dwattr $C$DW$T$66, DW_AT_language(DW_LANG_C)
    2287                            .dwattr $C$DW$T$66, DW_AT_byte_size(0x10)
    2288                    $C$DW$148       .dwtag  DW_TAG_subrange_type
    2289                            .dwattr $C$DW$148, DW_AT_upper_bound(0x03)
    2290                    
    2291                            .dwendtag $C$DW$T$66
    2292                    
    2293                    $C$DW$T$197     .dwtag  DW_TAG_typedef
    2294                            .dwattr $C$DW$T$197, DW_AT_name("size_t")
    2295                            .dwattr $C$DW$T$197, DW_AT_type(*$C$DW$T$11)
    2296                            .dwattr $C$DW$T$197, DW_AT_language(DW_LANG_C)
    2297                            .dwattr $C$DW$T$197, DW_AT_decl_file("C:/ti/ccsv7/tools/compiler/ti-cgt-arm_16.9.8.LTS/include
    2298                            .dwattr $C$DW$T$197, DW_AT_decl_line(0x3a)
    2299                            .dwattr $C$DW$T$197, DW_AT_decl_column(0x19)
    2300                    
    2301                    $C$DW$T$198     .dwtag  DW_TAG_typedef
    2302                            .dwattr $C$DW$T$198, DW_AT_name("xdc_SizeT")
    2303                            .dwattr $C$DW$T$198, DW_AT_type(*$C$DW$T$197)
    2304                            .dwattr $C$DW$T$198, DW_AT_language(DW_LANG_C)
    2305                            .dwattr $C$DW$T$198, DW_AT_decl_file("C:/ti/xdctools_3_50_04_43_core/packages/xdc/std.h")
    2306                            .dwattr $C$DW$T$198, DW_AT_decl_line(0x28)
    2307                            .dwattr $C$DW$T$198, DW_AT_decl_column(0x19)
    2308                    
    2309                    $C$DW$T$199     .dwtag  DW_TAG_typedef
    2310                            .dwattr $C$DW$T$199, DW_AT_name("SizeT")
TI ARM Assembler PC v16.9.8 Thu Nov 22 09:24:44 2018

Tools Copyright (c) 1996-2017 Texas Instruments Incorporated
C:\Users\Einstein\AppData\Local\Temp\{D2CEF35E-DD0F-4D6B-8D7C-7424DE07D15F} PAGE   43

    2311                            .dwattr $C$DW$T$199, DW_AT_type(*$C$DW$T$198)
    2312                            .dwattr $C$DW$T$199, DW_AT_language(DW_LANG_C)
    2313                            .dwattr $C$DW$T$199, DW_AT_decl_file("C:/ti/xdctools_3_50_04_43_core/packages/xdc/std.h")
    2314                            .dwattr $C$DW$T$199, DW_AT_decl_line(0xed)
    2315                            .dwattr $C$DW$T$199, DW_AT_decl_column(0x19)
    2316                    
    2317                    $C$DW$T$19      .dwtag  DW_TAG_typedef
    2318                            .dwattr $C$DW$T$19, DW_AT_name("uint32_t")
    2319                            .dwattr $C$DW$T$19, DW_AT_type(*$C$DW$T$11)
    2320                            .dwattr $C$DW$T$19, DW_AT_language(DW_LANG_C)
    2321                            .dwattr $C$DW$T$19, DW_AT_decl_file("C:/ti/ccsv7/tools/compiler/ti-cgt-arm_16.9.8.LTS/include/
    2322                            .dwattr $C$DW$T$19, DW_AT_decl_line(0x2f)
    2323                            .dwattr $C$DW$T$19, DW_AT_decl_column(0x1c)
    2324                    
    2325                    $C$DW$T$131     .dwtag  DW_TAG_typedef
    2326                            .dwattr $C$DW$T$131, DW_AT_name("PIN_Config")
    2327                            .dwattr $C$DW$T$131, DW_AT_type(*$C$DW$T$19)
    2328                            .dwattr $C$DW$T$131, DW_AT_language(DW_LANG_C)
    2329                            .dwattr $C$DW$T$131, DW_AT_decl_file("C:/ti/simplelink_cc13x0_sdk_2_30_00_20/source/ti/drivers
    2330                            .dwattr $C$DW$T$131, DW_AT_decl_line(0x255)
    2331                            .dwattr $C$DW$T$131, DW_AT_decl_column(0x12)
    2332                    
    2333                    $C$DW$T$132     .dwtag  DW_TAG_const_type
    2334                            .dwattr $C$DW$T$132, DW_AT_type(*$C$DW$T$131)
    2335                    
    2336                    $C$DW$T$133     .dwtag  DW_TAG_pointer_type
    2337                            .dwattr $C$DW$T$133, DW_AT_type(*$C$DW$T$132)
    2338                            .dwattr $C$DW$T$133, DW_AT_address_class(0x20)
    2339                    
    2340                    
    2341                    $C$DW$T$200     .dwtag  DW_TAG_array_type
    2342                            .dwattr $C$DW$T$200, DW_AT_type(*$C$DW$T$131)
    2343                            .dwattr $C$DW$T$200, DW_AT_language(DW_LANG_C)
    2344                            .dwattr $C$DW$T$200, DW_AT_byte_size(0x10)
    2345                    $C$DW$149       .dwtag  DW_TAG_subrange_type
    2346                            .dwattr $C$DW$149, DW_AT_upper_bound(0x03)
    2347                    
    2348                            .dwendtag $C$DW$T$200
    2349                    
    2350                    
    2351                    $C$DW$T$22      .dwtag  DW_TAG_subroutine_type
    2352                            .dwattr $C$DW$T$22, DW_AT_type(*$C$DW$T$19)
    2353                            .dwattr $C$DW$T$22, DW_AT_language(DW_LANG_C)
    2354                    $C$DW$150       .dwtag  DW_TAG_formal_parameter
    2355                            .dwattr $C$DW$150, DW_AT_type(*$C$DW$T$21)
    2356                    
    2357                    $C$DW$151       .dwtag  DW_TAG_formal_parameter
    2358                            .dwattr $C$DW$151, DW_AT_type(*$C$DW$T$19)
    2359                    
    2360                    $C$DW$152       .dwtag  DW_TAG_formal_parameter
    2361                            .dwattr $C$DW$152, DW_AT_type(*$C$DW$T$19)
    2362                    
    2363                            .dwendtag $C$DW$T$22
    2364                    
    2365                    $C$DW$T$23      .dwtag  DW_TAG_pointer_type
TI ARM Assembler PC v16.9.8 Thu Nov 22 09:24:44 2018

Tools Copyright (c) 1996-2017 Texas Instruments Incorporated
C:\Users\Einstein\AppData\Local\Temp\{D2CEF35E-DD0F-4D6B-8D7C-7424DE07D15F} PAGE   44

    2366                            .dwattr $C$DW$T$23, DW_AT_type(*$C$DW$T$22)
    2367                            .dwattr $C$DW$T$23, DW_AT_address_class(0x20)
    2368                    
    2369                    $C$DW$T$24      .dwtag  DW_TAG_typedef
    2370                            .dwattr $C$DW$T$24, DW_AT_name("FPTR_CRC32_T")
    2371                            .dwattr $C$DW$T$24, DW_AT_type(*$C$DW$T$23)
    2372                            .dwattr $C$DW$T$24, DW_AT_language(DW_LANG_C)
    2373                            .dwattr $C$DW$T$24, DW_AT_decl_file("C:\ti\simplelink_cc13x0_sdk_2_30_00_20\source\ti\devices\
    2374                            .dwattr $C$DW$T$24, DW_AT_decl_line(0x3e)
    2375                            .dwattr $C$DW$T$24, DW_AT_decl_column(0x19)
    2376                    
    2377                    $C$DW$T$33      .dwtag  DW_TAG_typedef
    2378                            .dwattr $C$DW$T$33, DW_AT_name("FPTR_RESERVED3_T")
    2379                            .dwattr $C$DW$T$33, DW_AT_type(*$C$DW$T$23)
    2380                            .dwattr $C$DW$T$33, DW_AT_language(DW_LANG_C)
    2381                            .dwattr $C$DW$T$33, DW_AT_decl_file("C:\ti\simplelink_cc13x0_sdk_2_30_00_20\source\ti\devices\
    2382                            .dwattr $C$DW$T$33, DW_AT_decl_line(0x4a)
    2383                            .dwattr $C$DW$T$33, DW_AT_decl_column(0x19)
    2384                    
    2385                    
    2386                    $C$DW$T$25      .dwtag  DW_TAG_subroutine_type
    2387                            .dwattr $C$DW$T$25, DW_AT_type(*$C$DW$T$19)
    2388                            .dwattr $C$DW$T$25, DW_AT_language(DW_LANG_C)
    2389                            .dwendtag $C$DW$T$25
    2390                    
    2391                    $C$DW$T$26      .dwtag  DW_TAG_pointer_type
    2392                            .dwattr $C$DW$T$26, DW_AT_type(*$C$DW$T$25)
    2393                            .dwattr $C$DW$T$26, DW_AT_address_class(0x20)
    2394                    
    2395                    $C$DW$T$28      .dwtag  DW_TAG_typedef
    2396                            .dwattr $C$DW$T$28, DW_AT_name("FPTR_GETCHIPID_T")
    2397                            .dwattr $C$DW$T$28, DW_AT_type(*$C$DW$T$26)
    2398                            .dwattr $C$DW$T$28, DW_AT_language(DW_LANG_C)
    2399                            .dwattr $C$DW$T$28, DW_AT_decl_file("C:\ti\simplelink_cc13x0_sdk_2_30_00_20\source\ti\devices\
    2400                            .dwattr $C$DW$T$28, DW_AT_decl_line(0x44)
    2401                            .dwattr $C$DW$T$28, DW_AT_decl_column(0x19)
    2402                    
    2403                    $C$DW$T$27      .dwtag  DW_TAG_typedef
    2404                            .dwattr $C$DW$T$27, DW_AT_name("FPTR_GETFLSIZE_T")
    2405                            .dwattr $C$DW$T$27, DW_AT_type(*$C$DW$T$26)
    2406                            .dwattr $C$DW$T$27, DW_AT_language(DW_LANG_C)
    2407                            .dwattr $C$DW$T$27, DW_AT_decl_file("C:\ti\simplelink_cc13x0_sdk_2_30_00_20\source\ti\devices\
    2408                            .dwattr $C$DW$T$27, DW_AT_decl_line(0x42)
    2409                            .dwattr $C$DW$T$27, DW_AT_decl_column(0x19)
    2410                    
    2411                    $C$DW$T$32      .dwtag  DW_TAG_typedef
    2412                            .dwattr $C$DW$T$32, DW_AT_name("FPTR_RESERVED2_T")
    2413                            .dwattr $C$DW$T$32, DW_AT_type(*$C$DW$T$26)
    2414                            .dwattr $C$DW$T$32, DW_AT_language(DW_LANG_C)
    2415                            .dwattr $C$DW$T$32, DW_AT_decl_file("C:\ti\simplelink_cc13x0_sdk_2_30_00_20\source\ti\devices\
    2416                            .dwattr $C$DW$T$32, DW_AT_decl_line(0x48)
    2417                            .dwattr $C$DW$T$32, DW_AT_decl_column(0x19)
    2418                    
    2419                    
    2420                    $C$DW$T$29      .dwtag  DW_TAG_subroutine_type
TI ARM Assembler PC v16.9.8 Thu Nov 22 09:24:44 2018

Tools Copyright (c) 1996-2017 Texas Instruments Incorporated
C:\Users\Einstein\AppData\Local\Temp\{D2CEF35E-DD0F-4D6B-8D7C-7424DE07D15F} PAGE   45

    2421                            .dwattr $C$DW$T$29, DW_AT_type(*$C$DW$T$19)
    2422                            .dwattr $C$DW$T$29, DW_AT_language(DW_LANG_C)
    2423                    $C$DW$153       .dwtag  DW_TAG_formal_parameter
    2424                            .dwattr $C$DW$153, DW_AT_type(*$C$DW$T$19)
    2425                    
    2426                            .dwendtag $C$DW$T$29
    2427                    
    2428                    $C$DW$T$30      .dwtag  DW_TAG_pointer_type
    2429                            .dwattr $C$DW$T$30, DW_AT_type(*$C$DW$T$29)
    2430                            .dwattr $C$DW$T$30, DW_AT_address_class(0x20)
    2431                    
    2432                    $C$DW$T$31      .dwtag  DW_TAG_typedef
    2433                            .dwattr $C$DW$T$31, DW_AT_name("FPTR_RESERVED1_T")
    2434                            .dwattr $C$DW$T$31, DW_AT_type(*$C$DW$T$30)
    2435                            .dwattr $C$DW$T$31, DW_AT_language(DW_LANG_C)
    2436                            .dwattr $C$DW$T$31, DW_AT_decl_file("C:\ti\simplelink_cc13x0_sdk_2_30_00_20\source\ti\devices\
    2437                            .dwattr $C$DW$T$31, DW_AT_decl_line(0x46)
    2438                            .dwattr $C$DW$T$31, DW_AT_decl_column(0x19)
    2439                    
    2440                    
    2441                    $C$DW$T$39      .dwtag  DW_TAG_subroutine_type
    2442                            .dwattr $C$DW$T$39, DW_AT_type(*$C$DW$T$19)
    2443                            .dwattr $C$DW$T$39, DW_AT_language(DW_LANG_C)
    2444                    $C$DW$154       .dwtag  DW_TAG_formal_parameter
    2445                            .dwattr $C$DW$154, DW_AT_type(*$C$DW$T$38)
    2446                    
    2447                    $C$DW$155       .dwtag  DW_TAG_formal_parameter
    2448                            .dwattr $C$DW$155, DW_AT_type(*$C$DW$T$37)
    2449                    
    2450                    $C$DW$156       .dwtag  DW_TAG_formal_parameter
    2451                            .dwattr $C$DW$156, DW_AT_type(*$C$DW$T$37)
    2452                    
    2453                            .dwendtag $C$DW$T$39
    2454                    
    2455                    $C$DW$T$40      .dwtag  DW_TAG_pointer_type
    2456                            .dwattr $C$DW$T$40, DW_AT_type(*$C$DW$T$39)
    2457                            .dwattr $C$DW$T$40, DW_AT_address_class(0x20)
    2458                    
    2459                    $C$DW$T$41      .dwtag  DW_TAG_typedef
    2460                            .dwattr $C$DW$T$41, DW_AT_name("FPTR_FLETCHER32_T")
    2461                            .dwattr $C$DW$T$41, DW_AT_type(*$C$DW$T$40)
    2462                            .dwattr $C$DW$T$41, DW_AT_language(DW_LANG_C)
    2463                            .dwattr $C$DW$T$41, DW_AT_decl_file("C:\ti\simplelink_cc13x0_sdk_2_30_00_20\source\ti\devices\
    2464                            .dwattr $C$DW$T$41, DW_AT_decl_line(0x4f)
    2465                            .dwattr $C$DW$T$41, DW_AT_decl_column(0x19)
    2466                    
    2467                    $C$DW$T$42      .dwtag  DW_TAG_pointer_type
    2468                            .dwattr $C$DW$T$42, DW_AT_type(*$C$DW$T$19)
    2469                            .dwattr $C$DW$T$42, DW_AT_address_class(0x20)
    2470                    
    2471                    
    2472                    $C$DW$T$43      .dwtag  DW_TAG_subroutine_type
    2473                            .dwattr $C$DW$T$43, DW_AT_type(*$C$DW$T$19)
    2474                            .dwattr $C$DW$T$43, DW_AT_language(DW_LANG_C)
    2475                    $C$DW$157       .dwtag  DW_TAG_formal_parameter
TI ARM Assembler PC v16.9.8 Thu Nov 22 09:24:44 2018

Tools Copyright (c) 1996-2017 Texas Instruments Incorporated
C:\Users\Einstein\AppData\Local\Temp\{D2CEF35E-DD0F-4D6B-8D7C-7424DE07D15F} PAGE   46

    2476                            .dwattr $C$DW$157, DW_AT_type(*$C$DW$T$42)
    2477                    
    2478                    $C$DW$158       .dwtag  DW_TAG_formal_parameter
    2479                            .dwattr $C$DW$158, DW_AT_type(*$C$DW$T$19)
    2480                    
    2481                            .dwendtag $C$DW$T$43
    2482                    
    2483                    $C$DW$T$44      .dwtag  DW_TAG_pointer_type
    2484                            .dwattr $C$DW$T$44, DW_AT_type(*$C$DW$T$43)
    2485                            .dwattr $C$DW$T$44, DW_AT_address_class(0x20)
    2486                    
    2487                    $C$DW$T$46      .dwtag  DW_TAG_typedef
    2488                            .dwattr $C$DW$T$46, DW_AT_name("FPTR_MAXVAL_T")
    2489                            .dwattr $C$DW$T$46, DW_AT_type(*$C$DW$T$44)
    2490                            .dwattr $C$DW$T$46, DW_AT_language(DW_LANG_C)
    2491                            .dwattr $C$DW$T$46, DW_AT_decl_file("C:\ti\simplelink_cc13x0_sdk_2_30_00_20\source\ti\devices\
    2492                            .dwattr $C$DW$T$46, DW_AT_decl_line(0x56)
    2493                            .dwattr $C$DW$T$46, DW_AT_decl_column(0x19)
    2494                    
    2495                    $C$DW$T$47      .dwtag  DW_TAG_typedef
    2496                            .dwattr $C$DW$T$47, DW_AT_name("FPTR_MEANVAL_T")
    2497                            .dwattr $C$DW$T$47, DW_AT_type(*$C$DW$T$44)
    2498                            .dwattr $C$DW$T$47, DW_AT_language(DW_LANG_C)
    2499                            .dwattr $C$DW$T$47, DW_AT_decl_file("C:\ti\simplelink_cc13x0_sdk_2_30_00_20\source\ti\devices\
    2500                            .dwattr $C$DW$T$47, DW_AT_decl_line(0x59)
    2501                            .dwattr $C$DW$T$47, DW_AT_decl_column(0x19)
    2502                    
    2503                    $C$DW$T$45      .dwtag  DW_TAG_typedef
    2504                            .dwattr $C$DW$T$45, DW_AT_name("FPTR_MINVAL_T")
    2505                            .dwattr $C$DW$T$45, DW_AT_type(*$C$DW$T$44)
    2506                            .dwattr $C$DW$T$45, DW_AT_language(DW_LANG_C)
    2507                            .dwattr $C$DW$T$45, DW_AT_decl_file("C:\ti\simplelink_cc13x0_sdk_2_30_00_20\source\ti\devices\
    2508                            .dwattr $C$DW$T$45, DW_AT_decl_line(0x53)
    2509                            .dwattr $C$DW$T$45, DW_AT_decl_column(0x19)
    2510                    
    2511                    $C$DW$T$48      .dwtag  DW_TAG_typedef
    2512                            .dwattr $C$DW$T$48, DW_AT_name("FPTR_STDDVAL_T")
    2513                            .dwattr $C$DW$T$48, DW_AT_type(*$C$DW$T$44)
    2514                            .dwattr $C$DW$T$48, DW_AT_language(DW_LANG_C)
    2515                            .dwattr $C$DW$T$48, DW_AT_decl_file("C:\ti\simplelink_cc13x0_sdk_2_30_00_20\source\ti\devices\
    2516                            .dwattr $C$DW$T$48, DW_AT_decl_line(0x5c)
    2517                            .dwattr $C$DW$T$48, DW_AT_decl_column(0x19)
    2518                    
    2519                    $C$DW$T$201     .dwtag  DW_TAG_const_type
    2520                            .dwattr $C$DW$T$201, DW_AT_type(*$C$DW$T$19)
    2521                    
    2522                    $C$DW$T$202     .dwtag  DW_TAG_typedef
    2523                            .dwattr $C$DW$T$202, DW_AT_name("uint_fast16_t")
    2524                            .dwattr $C$DW$T$202, DW_AT_type(*$C$DW$T$19)
    2525                            .dwattr $C$DW$T$202, DW_AT_language(DW_LANG_C)
    2526                            .dwattr $C$DW$T$202, DW_AT_decl_file("C:/ti/ccsv7/tools/compiler/ti-cgt-arm_16.9.8.LTS/include
    2527                            .dwattr $C$DW$T$202, DW_AT_decl_line(0x48)
    2528                            .dwattr $C$DW$T$202, DW_AT_decl_column(0x16)
    2529                    
    2530                    $C$DW$T$203     .dwtag  DW_TAG_typedef
TI ARM Assembler PC v16.9.8 Thu Nov 22 09:24:44 2018

Tools Copyright (c) 1996-2017 Texas Instruments Incorporated
C:\Users\Einstein\AppData\Local\Temp\{D2CEF35E-DD0F-4D6B-8D7C-7424DE07D15F} PAGE   47

    2531                            .dwattr $C$DW$T$203, DW_AT_name("uint_fast32_t")
    2532                            .dwattr $C$DW$T$203, DW_AT_type(*$C$DW$T$19)
    2533                            .dwattr $C$DW$T$203, DW_AT_language(DW_LANG_C)
    2534                            .dwattr $C$DW$T$203, DW_AT_decl_file("C:/ti/ccsv7/tools/compiler/ti-cgt-arm_16.9.8.LTS/include
    2535                            .dwattr $C$DW$T$203, DW_AT_decl_line(0x4b)
    2536                            .dwattr $C$DW$T$203, DW_AT_decl_column(0x16)
    2537                    
    2538                    $C$DW$T$204     .dwtag  DW_TAG_typedef
    2539                            .dwattr $C$DW$T$204, DW_AT_name("uint_fast8_t")
    2540                            .dwattr $C$DW$T$204, DW_AT_type(*$C$DW$T$19)
    2541                            .dwattr $C$DW$T$204, DW_AT_language(DW_LANG_C)
    2542                            .dwattr $C$DW$T$204, DW_AT_decl_file("C:/ti/ccsv7/tools/compiler/ti-cgt-arm_16.9.8.LTS/include
    2543                            .dwattr $C$DW$T$204, DW_AT_decl_line(0x46)
    2544                            .dwattr $C$DW$T$204, DW_AT_decl_column(0x16)
    2545                    
    2546                    $C$DW$T$205     .dwtag  DW_TAG_typedef
    2547                            .dwattr $C$DW$T$205, DW_AT_name("uint_least32_t")
    2548                            .dwattr $C$DW$T$205, DW_AT_type(*$C$DW$T$19)
    2549                            .dwattr $C$DW$T$205, DW_AT_language(DW_LANG_C)
    2550                            .dwattr $C$DW$T$205, DW_AT_decl_file("C:/ti/ccsv7/tools/compiler/ti-cgt-arm_16.9.8.LTS/include
    2551                            .dwattr $C$DW$T$205, DW_AT_decl_line(0x3d)
    2552                            .dwattr $C$DW$T$205, DW_AT_decl_column(0x16)
    2553                    
    2554                    $C$DW$T$206     .dwtag  DW_TAG_typedef
    2555                            .dwattr $C$DW$T$206, DW_AT_name("xdc_UInt32")
    2556                            .dwattr $C$DW$T$206, DW_AT_type(*$C$DW$T$205)
    2557                            .dwattr $C$DW$T$206, DW_AT_language(DW_LANG_C)
    2558                            .dwattr $C$DW$T$206, DW_AT_decl_file("C:/ti/simplelink_cc13x0_sdk_2_30_00_20/kernel/tirtos/pac
    2559                            .dwattr $C$DW$T$206, DW_AT_decl_line(0x71)
    2560                            .dwattr $C$DW$T$206, DW_AT_decl_column(0x19)
    2561                    
    2562                    $C$DW$T$207     .dwtag  DW_TAG_typedef
    2563                            .dwattr $C$DW$T$207, DW_AT_name("UInt32")
    2564                            .dwattr $C$DW$T$207, DW_AT_type(*$C$DW$T$206)
    2565                            .dwattr $C$DW$T$207, DW_AT_language(DW_LANG_C)
    2566                            .dwattr $C$DW$T$207, DW_AT_decl_file("C:/ti/xdctools_3_50_04_43_core/packages/xdc/std.h")
    2567                            .dwattr $C$DW$T$207, DW_AT_decl_line(0x100)
    2568                            .dwattr $C$DW$T$207, DW_AT_decl_column(0x19)
    2569                    
    2570                    $C$DW$T$208     .dwtag  DW_TAG_typedef
    2571                            .dwattr $C$DW$T$208, DW_AT_name("Uint32")
    2572                            .dwattr $C$DW$T$208, DW_AT_type(*$C$DW$T$206)
    2573                            .dwattr $C$DW$T$208, DW_AT_language(DW_LANG_C)
    2574                            .dwattr $C$DW$T$208, DW_AT_decl_file("C:/ti/xdctools_3_50_04_43_core/packages/xdc/std.h")
    2575                            .dwattr $C$DW$T$208, DW_AT_decl_line(0x10d)
    2576                            .dwattr $C$DW$T$208, DW_AT_decl_column(0x19)
    2577                    
    2578                    $C$DW$T$209     .dwtag  DW_TAG_typedef
    2579                            .dwattr $C$DW$T$209, DW_AT_name("xdc_Bits32")
    2580                            .dwattr $C$DW$T$209, DW_AT_type(*$C$DW$T$19)
    2581                            .dwattr $C$DW$T$209, DW_AT_language(DW_LANG_C)
    2582                            .dwattr $C$DW$T$209, DW_AT_decl_file("C:/ti/simplelink_cc13x0_sdk_2_30_00_20/kernel/tirtos/pac
    2583                            .dwattr $C$DW$T$209, DW_AT_decl_line(0x8f)
    2584                            .dwattr $C$DW$T$209, DW_AT_decl_column(0x19)
    2585                    
TI ARM Assembler PC v16.9.8 Thu Nov 22 09:24:44 2018

Tools Copyright (c) 1996-2017 Texas Instruments Incorporated
C:\Users\Einstein\AppData\Local\Temp\{D2CEF35E-DD0F-4D6B-8D7C-7424DE07D15F} PAGE   48

    2586                    $C$DW$T$210     .dwtag  DW_TAG_typedef
    2587                            .dwattr $C$DW$T$210, DW_AT_name("Bits32")
    2588                            .dwattr $C$DW$T$210, DW_AT_type(*$C$DW$T$209)
    2589                            .dwattr $C$DW$T$210, DW_AT_language(DW_LANG_C)
    2590                            .dwattr $C$DW$T$210, DW_AT_decl_file("C:/ti/xdctools_3_50_04_43_core/packages/xdc/std.h")
    2591                            .dwattr $C$DW$T$210, DW_AT_decl_line(0x127)
    2592                            .dwattr $C$DW$T$210, DW_AT_decl_column(0x19)
    2593                    
    2594                    $C$DW$T$68      .dwtag  DW_TAG_typedef
    2595                            .dwattr $C$DW$T$68, DW_AT_name("uintptr_t")
    2596                            .dwattr $C$DW$T$68, DW_AT_type(*$C$DW$T$11)
    2597                            .dwattr $C$DW$T$68, DW_AT_language(DW_LANG_C)
    2598                            .dwattr $C$DW$T$68, DW_AT_decl_file("C:/ti/ccsv7/tools/compiler/ti-cgt-arm_16.9.8.LTS/include/
    2599                            .dwattr $C$DW$T$68, DW_AT_decl_line(0x53)
    2600                            .dwattr $C$DW$T$68, DW_AT_decl_column(0x1a)
    2601                    
    2602                    $C$DW$T$211     .dwtag  DW_TAG_typedef
    2603                            .dwattr $C$DW$T$211, DW_AT_name("xdc_UArg")
    2604                            .dwattr $C$DW$T$211, DW_AT_type(*$C$DW$T$68)
    2605                            .dwattr $C$DW$T$211, DW_AT_language(DW_LANG_C)
    2606                            .dwattr $C$DW$T$211, DW_AT_decl_file("C:/ti/simplelink_cc13x0_sdk_2_30_00_20/kernel/tirtos/pac
    2607                            .dwattr $C$DW$T$211, DW_AT_decl_line(0x99)
    2608                            .dwattr $C$DW$T$211, DW_AT_decl_column(0x19)
    2609                    
    2610                    $C$DW$T$212     .dwtag  DW_TAG_typedef
    2611                            .dwattr $C$DW$T$212, DW_AT_name("UArg")
    2612                            .dwattr $C$DW$T$212, DW_AT_type(*$C$DW$T$211)
    2613                            .dwattr $C$DW$T$212, DW_AT_language(DW_LANG_C)
    2614                            .dwattr $C$DW$T$212, DW_AT_decl_file("C:/ti/xdctools_3_50_04_43_core/packages/xdc/std.h")
    2615                            .dwattr $C$DW$T$212, DW_AT_decl_line(0xf1)
    2616                            .dwattr $C$DW$T$212, DW_AT_decl_column(0x19)
    2617                    
    2618                    $C$DW$T$213     .dwtag  DW_TAG_typedef
    2619                            .dwattr $C$DW$T$213, DW_AT_name("xdc_UInt")
    2620                            .dwattr $C$DW$T$213, DW_AT_type(*$C$DW$T$11)
    2621                            .dwattr $C$DW$T$213, DW_AT_language(DW_LANG_C)
    2622                            .dwattr $C$DW$T$213, DW_AT_decl_file("C:/ti/xdctools_3_50_04_43_core/packages/xdc/std.h")
    2623                            .dwattr $C$DW$T$213, DW_AT_decl_line(0x22)
    2624                            .dwattr $C$DW$T$213, DW_AT_decl_column(0x19)
    2625                    
    2626                    $C$DW$T$214     .dwtag  DW_TAG_typedef
    2627                            .dwattr $C$DW$T$214, DW_AT_name("UInt")
    2628                            .dwattr $C$DW$T$214, DW_AT_type(*$C$DW$T$213)
    2629                            .dwattr $C$DW$T$214, DW_AT_language(DW_LANG_C)
    2630                            .dwattr $C$DW$T$214, DW_AT_decl_file("C:/ti/xdctools_3_50_04_43_core/packages/xdc/std.h")
    2631                            .dwattr $C$DW$T$214, DW_AT_decl_line(0xe5)
    2632                            .dwattr $C$DW$T$214, DW_AT_decl_column(0x19)
    2633                    
    2634                    $C$DW$T$215     .dwtag  DW_TAG_typedef
    2635                            .dwattr $C$DW$T$215, DW_AT_name("Uns")
    2636                            .dwattr $C$DW$T$215, DW_AT_type(*$C$DW$T$213)
    2637                            .dwattr $C$DW$T$215, DW_AT_language(DW_LANG_C)
    2638                            .dwattr $C$DW$T$215, DW_AT_decl_file("C:/ti/xdctools_3_50_04_43_core/packages/xdc/std.h")
    2639                            .dwattr $C$DW$T$215, DW_AT_decl_line(0x10e)
    2640                            .dwattr $C$DW$T$215, DW_AT_decl_column(0x19)
TI ARM Assembler PC v16.9.8 Thu Nov 22 09:24:44 2018

Tools Copyright (c) 1996-2017 Texas Instruments Incorporated
C:\Users\Einstein\AppData\Local\Temp\{D2CEF35E-DD0F-4D6B-8D7C-7424DE07D15F} PAGE   49

    2641                    
    2642                    $C$DW$T$12      .dwtag  DW_TAG_base_type
    2643                            .dwattr $C$DW$T$12, DW_AT_encoding(DW_ATE_signed)
    2644                            .dwattr $C$DW$T$12, DW_AT_name("long")
    2645                            .dwattr $C$DW$T$12, DW_AT_byte_size(0x04)
    2646                    
    2647                    $C$DW$T$216     .dwtag  DW_TAG_typedef
    2648                            .dwattr $C$DW$T$216, DW_AT_name("xdc_Long")
    2649                            .dwattr $C$DW$T$216, DW_AT_type(*$C$DW$T$12)
    2650                            .dwattr $C$DW$T$216, DW_AT_language(DW_LANG_C)
    2651                            .dwattr $C$DW$T$216, DW_AT_decl_file("C:/ti/xdctools_3_50_04_43_core/packages/xdc/std.h")
    2652                            .dwattr $C$DW$T$216, DW_AT_decl_line(0x23)
    2653                            .dwattr $C$DW$T$216, DW_AT_decl_column(0x19)
    2654                    
    2655                    $C$DW$T$217     .dwtag  DW_TAG_typedef
    2656                            .dwattr $C$DW$T$217, DW_AT_name("Long")
    2657                            .dwattr $C$DW$T$217, DW_AT_type(*$C$DW$T$216)
    2658                            .dwattr $C$DW$T$217, DW_AT_language(DW_LANG_C)
    2659                            .dwattr $C$DW$T$217, DW_AT_decl_file("C:/ti/xdctools_3_50_04_43_core/packages/xdc/std.h")
    2660                            .dwattr $C$DW$T$217, DW_AT_decl_line(0xe6)
    2661                            .dwattr $C$DW$T$217, DW_AT_decl_column(0x19)
    2662                    
    2663                    $C$DW$T$13      .dwtag  DW_TAG_base_type
    2664                            .dwattr $C$DW$T$13, DW_AT_encoding(DW_ATE_unsigned)
    2665                            .dwattr $C$DW$T$13, DW_AT_name("unsigned long")
    2666                            .dwattr $C$DW$T$13, DW_AT_byte_size(0x04)
    2667                    
    2668                    $C$DW$T$218     .dwtag  DW_TAG_typedef
    2669                            .dwattr $C$DW$T$218, DW_AT_name("xdc_ULong")
    2670                            .dwattr $C$DW$T$218, DW_AT_type(*$C$DW$T$13)
    2671                            .dwattr $C$DW$T$218, DW_AT_language(DW_LANG_C)
    2672                            .dwattr $C$DW$T$218, DW_AT_decl_file("C:/ti/xdctools_3_50_04_43_core/packages/xdc/std.h")
    2673                            .dwattr $C$DW$T$218, DW_AT_decl_line(0x24)
    2674                            .dwattr $C$DW$T$218, DW_AT_decl_column(0x19)
    2675                    
    2676                    $C$DW$T$219     .dwtag  DW_TAG_typedef
    2677                            .dwattr $C$DW$T$219, DW_AT_name("ULong")
    2678                            .dwattr $C$DW$T$219, DW_AT_type(*$C$DW$T$218)
    2679                            .dwattr $C$DW$T$219, DW_AT_language(DW_LANG_C)
    2680                            .dwattr $C$DW$T$219, DW_AT_decl_file("C:/ti/xdctools_3_50_04_43_core/packages/xdc/std.h")
    2681                            .dwattr $C$DW$T$219, DW_AT_decl_line(0xe7)
    2682                            .dwattr $C$DW$T$219, DW_AT_decl_column(0x19)
    2683                    
    2684                    $C$DW$T$14      .dwtag  DW_TAG_base_type
    2685                            .dwattr $C$DW$T$14, DW_AT_encoding(DW_ATE_signed)
    2686                            .dwattr $C$DW$T$14, DW_AT_name("long long")
    2687                            .dwattr $C$DW$T$14, DW_AT_byte_size(0x08)
    2688                    
    2689                    $C$DW$T$220     .dwtag  DW_TAG_typedef
    2690                            .dwattr $C$DW$T$220, DW_AT_name("int64_t")
    2691                            .dwattr $C$DW$T$220, DW_AT_type(*$C$DW$T$14)
    2692                            .dwattr $C$DW$T$220, DW_AT_language(DW_LANG_C)
    2693                            .dwattr $C$DW$T$220, DW_AT_decl_file("C:/ti/ccsv7/tools/compiler/ti-cgt-arm_16.9.8.LTS/include
    2694                            .dwattr $C$DW$T$220, DW_AT_decl_line(0x32)
    2695                            .dwattr $C$DW$T$220, DW_AT_decl_column(0x21)
TI ARM Assembler PC v16.9.8 Thu Nov 22 09:24:44 2018

Tools Copyright (c) 1996-2017 Texas Instruments Incorporated
C:\Users\Einstein\AppData\Local\Temp\{D2CEF35E-DD0F-4D6B-8D7C-7424DE07D15F} PAGE   50

    2696                    
    2697                    $C$DW$T$221     .dwtag  DW_TAG_typedef
    2698                            .dwattr $C$DW$T$221, DW_AT_name("int_fast64_t")
    2699                            .dwattr $C$DW$T$221, DW_AT_type(*$C$DW$T$220)
    2700                            .dwattr $C$DW$T$221, DW_AT_language(DW_LANG_C)
    2701                            .dwattr $C$DW$T$221, DW_AT_decl_file("C:/ti/ccsv7/tools/compiler/ti-cgt-arm_16.9.8.LTS/include
    2702                            .dwattr $C$DW$T$221, DW_AT_decl_line(0x4e)
    2703                            .dwattr $C$DW$T$221, DW_AT_decl_column(0x17)
    2704                    
    2705                    $C$DW$T$222     .dwtag  DW_TAG_typedef
    2706                            .dwattr $C$DW$T$222, DW_AT_name("int_least64_t")
    2707                            .dwattr $C$DW$T$222, DW_AT_type(*$C$DW$T$220)
    2708                            .dwattr $C$DW$T$222, DW_AT_language(DW_LANG_C)
    2709                            .dwattr $C$DW$T$222, DW_AT_decl_file("C:/ti/ccsv7/tools/compiler/ti-cgt-arm_16.9.8.LTS/include
    2710                            .dwattr $C$DW$T$222, DW_AT_decl_line(0x40)
    2711                            .dwattr $C$DW$T$222, DW_AT_decl_column(0x17)
    2712                    
    2713                    $C$DW$T$223     .dwtag  DW_TAG_typedef
    2714                            .dwattr $C$DW$T$223, DW_AT_name("xdc_Int64")
    2715                            .dwattr $C$DW$T$223, DW_AT_type(*$C$DW$T$222)
    2716                            .dwattr $C$DW$T$223, DW_AT_language(DW_LANG_C)
    2717                            .dwattr $C$DW$T$223, DW_AT_decl_file("C:/ti/simplelink_cc13x0_sdk_2_30_00_20/kernel/tirtos/pac
    2718                            .dwattr $C$DW$T$223, DW_AT_decl_line(0x74)
    2719                            .dwattr $C$DW$T$223, DW_AT_decl_column(0x1d)
    2720                    
    2721                    $C$DW$T$224     .dwtag  DW_TAG_typedef
    2722                            .dwattr $C$DW$T$224, DW_AT_name("Int64")
    2723                            .dwattr $C$DW$T$224, DW_AT_type(*$C$DW$T$223)
    2724                            .dwattr $C$DW$T$224, DW_AT_language(DW_LANG_C)
    2725                            .dwattr $C$DW$T$224, DW_AT_decl_file("C:/ti/xdctools_3_50_04_43_core/packages/xdc/std.h")
    2726                            .dwattr $C$DW$T$224, DW_AT_decl_line(0x116)
    2727                            .dwattr $C$DW$T$224, DW_AT_decl_column(0x19)
    2728                    
    2729                    $C$DW$T$225     .dwtag  DW_TAG_typedef
    2730                            .dwattr $C$DW$T$225, DW_AT_name("intmax_t")
    2731                            .dwattr $C$DW$T$225, DW_AT_type(*$C$DW$T$14)
    2732                            .dwattr $C$DW$T$225, DW_AT_language(DW_LANG_C)
    2733                            .dwattr $C$DW$T$225, DW_AT_decl_file("C:/ti/ccsv7/tools/compiler/ti-cgt-arm_16.9.8.LTS/include
    2734                            .dwattr $C$DW$T$225, DW_AT_decl_line(0x56)
    2735                            .dwattr $C$DW$T$225, DW_AT_decl_column(0x20)
    2736                    
    2737                    $C$DW$T$226     .dwtag  DW_TAG_typedef
    2738                            .dwattr $C$DW$T$226, DW_AT_name("xdc_LLong")
    2739                            .dwattr $C$DW$T$226, DW_AT_type(*$C$DW$T$14)
    2740                            .dwattr $C$DW$T$226, DW_AT_language(DW_LANG_C)
    2741                            .dwattr $C$DW$T$226, DW_AT_decl_file("C:/ti/xdctools_3_50_04_43_core/packages/xdc/std.h")
    2742                            .dwattr $C$DW$T$226, DW_AT_decl_line(0x88)
    2743                            .dwattr $C$DW$T$226, DW_AT_decl_column(0x21)
    2744                    
    2745                    $C$DW$T$227     .dwtag  DW_TAG_typedef
    2746                            .dwattr $C$DW$T$227, DW_AT_name("LLong")
    2747                            .dwattr $C$DW$T$227, DW_AT_type(*$C$DW$T$226)
    2748                            .dwattr $C$DW$T$227, DW_AT_language(DW_LANG_C)
    2749                            .dwattr $C$DW$T$227, DW_AT_decl_file("C:/ti/xdctools_3_50_04_43_core/packages/xdc/std.h")
    2750                            .dwattr $C$DW$T$227, DW_AT_decl_line(0xe8)
TI ARM Assembler PC v16.9.8 Thu Nov 22 09:24:44 2018

Tools Copyright (c) 1996-2017 Texas Instruments Incorporated
C:\Users\Einstein\AppData\Local\Temp\{D2CEF35E-DD0F-4D6B-8D7C-7424DE07D15F} PAGE   51

    2751                            .dwattr $C$DW$T$227, DW_AT_decl_column(0x19)
    2752                    
    2753                    $C$DW$T$15      .dwtag  DW_TAG_base_type
    2754                            .dwattr $C$DW$T$15, DW_AT_encoding(DW_ATE_unsigned)
    2755                            .dwattr $C$DW$T$15, DW_AT_name("unsigned long long")
    2756                            .dwattr $C$DW$T$15, DW_AT_byte_size(0x08)
    2757                    
    2758                    $C$DW$T$228     .dwtag  DW_TAG_typedef
    2759                            .dwattr $C$DW$T$228, DW_AT_name("uint64_t")
    2760                            .dwattr $C$DW$T$228, DW_AT_type(*$C$DW$T$15)
    2761                            .dwattr $C$DW$T$228, DW_AT_language(DW_LANG_C)
    2762                            .dwattr $C$DW$T$228, DW_AT_decl_file("C:/ti/ccsv7/tools/compiler/ti-cgt-arm_16.9.8.LTS/include
    2763                            .dwattr $C$DW$T$228, DW_AT_decl_line(0x33)
    2764                            .dwattr $C$DW$T$228, DW_AT_decl_column(0x20)
    2765                    
    2766                    $C$DW$T$229     .dwtag  DW_TAG_typedef
    2767                            .dwattr $C$DW$T$229, DW_AT_name("uint_fast64_t")
    2768                            .dwattr $C$DW$T$229, DW_AT_type(*$C$DW$T$228)
    2769                            .dwattr $C$DW$T$229, DW_AT_language(DW_LANG_C)
    2770                            .dwattr $C$DW$T$229, DW_AT_decl_file("C:/ti/ccsv7/tools/compiler/ti-cgt-arm_16.9.8.LTS/include
    2771                            .dwattr $C$DW$T$229, DW_AT_decl_line(0x4f)
    2772                            .dwattr $C$DW$T$229, DW_AT_decl_column(0x16)
    2773                    
    2774                    $C$DW$T$230     .dwtag  DW_TAG_typedef
    2775                            .dwattr $C$DW$T$230, DW_AT_name("uint_least64_t")
    2776                            .dwattr $C$DW$T$230, DW_AT_type(*$C$DW$T$228)
    2777                            .dwattr $C$DW$T$230, DW_AT_language(DW_LANG_C)
    2778                            .dwattr $C$DW$T$230, DW_AT_decl_file("C:/ti/ccsv7/tools/compiler/ti-cgt-arm_16.9.8.LTS/include
    2779                            .dwattr $C$DW$T$230, DW_AT_decl_line(0x41)
    2780                            .dwattr $C$DW$T$230, DW_AT_decl_column(0x16)
    2781                    
    2782                    $C$DW$T$231     .dwtag  DW_TAG_typedef
    2783                            .dwattr $C$DW$T$231, DW_AT_name("xdc_UInt64")
    2784                            .dwattr $C$DW$T$231, DW_AT_type(*$C$DW$T$230)
    2785                            .dwattr $C$DW$T$231, DW_AT_language(DW_LANG_C)
    2786                            .dwattr $C$DW$T$231, DW_AT_decl_file("C:/ti/simplelink_cc13x0_sdk_2_30_00_20/kernel/tirtos/pac
    2787                            .dwattr $C$DW$T$231, DW_AT_decl_line(0x75)
    2788                            .dwattr $C$DW$T$231, DW_AT_decl_column(0x1e)
    2789                    
    2790                    $C$DW$T$232     .dwtag  DW_TAG_typedef
    2791                            .dwattr $C$DW$T$232, DW_AT_name("UInt64")
    2792                            .dwattr $C$DW$T$232, DW_AT_type(*$C$DW$T$231)
    2793                            .dwattr $C$DW$T$232, DW_AT_language(DW_LANG_C)
    2794                            .dwattr $C$DW$T$232, DW_AT_decl_file("C:/ti/xdctools_3_50_04_43_core/packages/xdc/std.h")
    2795                            .dwattr $C$DW$T$232, DW_AT_decl_line(0x117)
    2796                            .dwattr $C$DW$T$232, DW_AT_decl_column(0x19)
    2797                    
    2798                    $C$DW$T$233     .dwtag  DW_TAG_typedef
    2799                            .dwattr $C$DW$T$233, DW_AT_name("xdc_Bits64")
    2800                            .dwattr $C$DW$T$233, DW_AT_type(*$C$DW$T$228)
    2801                            .dwattr $C$DW$T$233, DW_AT_language(DW_LANG_C)
    2802                            .dwattr $C$DW$T$233, DW_AT_decl_file("C:/ti/simplelink_cc13x0_sdk_2_30_00_20/kernel/tirtos/pac
    2803                            .dwattr $C$DW$T$233, DW_AT_decl_line(0x92)
    2804                            .dwattr $C$DW$T$233, DW_AT_decl_column(0x19)
    2805                    
TI ARM Assembler PC v16.9.8 Thu Nov 22 09:24:44 2018

Tools Copyright (c) 1996-2017 Texas Instruments Incorporated
C:\Users\Einstein\AppData\Local\Temp\{D2CEF35E-DD0F-4D6B-8D7C-7424DE07D15F} PAGE   52

    2806                    $C$DW$T$234     .dwtag  DW_TAG_typedef
    2807                            .dwattr $C$DW$T$234, DW_AT_name("Bits64")
    2808                            .dwattr $C$DW$T$234, DW_AT_type(*$C$DW$T$233)
    2809                            .dwattr $C$DW$T$234, DW_AT_language(DW_LANG_C)
    2810                            .dwattr $C$DW$T$234, DW_AT_decl_file("C:/ti/xdctools_3_50_04_43_core/packages/xdc/std.h")
    2811                            .dwattr $C$DW$T$234, DW_AT_decl_line(0x12b)
    2812                            .dwattr $C$DW$T$234, DW_AT_decl_column(0x19)
    2813                    
    2814                    $C$DW$T$235     .dwtag  DW_TAG_typedef
    2815                            .dwattr $C$DW$T$235, DW_AT_name("uintmax_t")
    2816                            .dwattr $C$DW$T$235, DW_AT_type(*$C$DW$T$15)
    2817                            .dwattr $C$DW$T$235, DW_AT_language(DW_LANG_C)
    2818                            .dwattr $C$DW$T$235, DW_AT_decl_file("C:/ti/ccsv7/tools/compiler/ti-cgt-arm_16.9.8.LTS/include
    2819                            .dwattr $C$DW$T$235, DW_AT_decl_line(0x57)
    2820                            .dwattr $C$DW$T$235, DW_AT_decl_column(0x20)
    2821                    
    2822                    $C$DW$T$236     .dwtag  DW_TAG_typedef
    2823                            .dwattr $C$DW$T$236, DW_AT_name("xdc_ULLong")
    2824                            .dwattr $C$DW$T$236, DW_AT_type(*$C$DW$T$15)
    2825                            .dwattr $C$DW$T$236, DW_AT_language(DW_LANG_C)
    2826                            .dwattr $C$DW$T$236, DW_AT_decl_file("C:/ti/xdctools_3_50_04_43_core/packages/xdc/std.h")
    2827                            .dwattr $C$DW$T$236, DW_AT_decl_line(0x89)
    2828                            .dwattr $C$DW$T$236, DW_AT_decl_column(0x21)
    2829                    
    2830                    $C$DW$T$237     .dwtag  DW_TAG_typedef
    2831                            .dwattr $C$DW$T$237, DW_AT_name("ULLong")
    2832                            .dwattr $C$DW$T$237, DW_AT_type(*$C$DW$T$236)
    2833                            .dwattr $C$DW$T$237, DW_AT_language(DW_LANG_C)
    2834                            .dwattr $C$DW$T$237, DW_AT_decl_file("C:/ti/xdctools_3_50_04_43_core/packages/xdc/std.h")
    2835                            .dwattr $C$DW$T$237, DW_AT_decl_line(0xe9)
    2836                            .dwattr $C$DW$T$237, DW_AT_decl_column(0x19)
    2837                    
    2838                    $C$DW$T$16      .dwtag  DW_TAG_base_type
    2839                            .dwattr $C$DW$T$16, DW_AT_encoding(DW_ATE_float)
    2840                            .dwattr $C$DW$T$16, DW_AT_name("float")
    2841                            .dwattr $C$DW$T$16, DW_AT_byte_size(0x04)
    2842                    
    2843                    $C$DW$T$61      .dwtag  DW_TAG_typedef
    2844                            .dwattr $C$DW$T$61, DW_AT_name("xdc_Float")
    2845                            .dwattr $C$DW$T$61, DW_AT_type(*$C$DW$T$16)
    2846                            .dwattr $C$DW$T$61, DW_AT_language(DW_LANG_C)
    2847                            .dwattr $C$DW$T$61, DW_AT_decl_file("C:/ti/xdctools_3_50_04_43_core/packages/xdc/std.h")
    2848                            .dwattr $C$DW$T$61, DW_AT_decl_line(0x25)
    2849                            .dwattr $C$DW$T$61, DW_AT_decl_column(0x19)
    2850                    
    2851                    $C$DW$T$238     .dwtag  DW_TAG_typedef
    2852                            .dwattr $C$DW$T$238, DW_AT_name("Float")
    2853                            .dwattr $C$DW$T$238, DW_AT_type(*$C$DW$T$61)
    2854                            .dwattr $C$DW$T$238, DW_AT_language(DW_LANG_C)
    2855                            .dwattr $C$DW$T$238, DW_AT_decl_file("C:/ti/xdctools_3_50_04_43_core/packages/xdc/std.h")
    2856                            .dwattr $C$DW$T$238, DW_AT_decl_line(0xea)
    2857                            .dwattr $C$DW$T$238, DW_AT_decl_column(0x19)
    2858                    
    2859                    $C$DW$T$17      .dwtag  DW_TAG_base_type
    2860                            .dwattr $C$DW$T$17, DW_AT_encoding(DW_ATE_float)
TI ARM Assembler PC v16.9.8 Thu Nov 22 09:24:44 2018

Tools Copyright (c) 1996-2017 Texas Instruments Incorporated
C:\Users\Einstein\AppData\Local\Temp\{D2CEF35E-DD0F-4D6B-8D7C-7424DE07D15F} PAGE   53

    2861                            .dwattr $C$DW$T$17, DW_AT_name("double")
    2862                            .dwattr $C$DW$T$17, DW_AT_byte_size(0x08)
    2863                    
    2864                    $C$DW$T$239     .dwtag  DW_TAG_typedef
    2865                            .dwattr $C$DW$T$239, DW_AT_name("xdc_Double")
    2866                            .dwattr $C$DW$T$239, DW_AT_type(*$C$DW$T$17)
    2867                            .dwattr $C$DW$T$239, DW_AT_language(DW_LANG_C)
    2868                            .dwattr $C$DW$T$239, DW_AT_decl_file("C:/ti/xdctools_3_50_04_43_core/packages/xdc/std.h")
    2869                            .dwattr $C$DW$T$239, DW_AT_decl_line(0x26)
    2870                            .dwattr $C$DW$T$239, DW_AT_decl_column(0x19)
    2871                    
    2872                    $C$DW$T$240     .dwtag  DW_TAG_typedef
    2873                            .dwattr $C$DW$T$240, DW_AT_name("Double")
    2874                            .dwattr $C$DW$T$240, DW_AT_type(*$C$DW$T$239)
    2875                            .dwattr $C$DW$T$240, DW_AT_language(DW_LANG_C)
    2876                            .dwattr $C$DW$T$240, DW_AT_decl_file("C:/ti/xdctools_3_50_04_43_core/packages/xdc/std.h")
    2877                            .dwattr $C$DW$T$240, DW_AT_decl_line(0xeb)
    2878                            .dwattr $C$DW$T$240, DW_AT_decl_column(0x19)
    2879                    
    2880                    $C$DW$T$18      .dwtag  DW_TAG_base_type
    2881                            .dwattr $C$DW$T$18, DW_AT_encoding(DW_ATE_float)
    2882                            .dwattr $C$DW$T$18, DW_AT_name("long double")
    2883                            .dwattr $C$DW$T$18, DW_AT_byte_size(0x08)
    2884                    
    2885                    $C$DW$T$241     .dwtag  DW_TAG_typedef
    2886                            .dwattr $C$DW$T$241, DW_AT_name("xdc_LDouble")
    2887                            .dwattr $C$DW$T$241, DW_AT_type(*$C$DW$T$18)
    2888                            .dwattr $C$DW$T$241, DW_AT_language(DW_LANG_C)
    2889                            .dwattr $C$DW$T$241, DW_AT_decl_file("C:/ti/xdctools_3_50_04_43_core/packages/xdc/std.h")
    2890                            .dwattr $C$DW$T$241, DW_AT_decl_line(0x27)
    2891                            .dwattr $C$DW$T$241, DW_AT_decl_column(0x19)
    2892                    
    2893                    $C$DW$T$242     .dwtag  DW_TAG_typedef
    2894                            .dwattr $C$DW$T$242, DW_AT_name("LDouble")
    2895                            .dwattr $C$DW$T$242, DW_AT_type(*$C$DW$T$241)
    2896                            .dwattr $C$DW$T$242, DW_AT_language(DW_LANG_C)
    2897                            .dwattr $C$DW$T$242, DW_AT_decl_file("C:/ti/xdctools_3_50_04_43_core/packages/xdc/std.h")
    2898                            .dwattr $C$DW$T$242, DW_AT_decl_line(0xec)
    2899                            .dwattr $C$DW$T$242, DW_AT_decl_column(0x19)
    2900                    
    2901                    $C$DW$T$69      .dwtag  DW_TAG_base_type
    2902                            .dwattr $C$DW$T$69, DW_AT_encoding(DW_ATE_unsigned_char)
    2903                            .dwattr $C$DW$T$69, DW_AT_name("unsigned char")
    2904                            .dwattr $C$DW$T$69, DW_AT_byte_size(0x01)
    2905                    
    2906                    
    2907                    $C$DW$T$72      .dwtag  DW_TAG_array_type
    2908                            .dwattr $C$DW$T$72, DW_AT_type(*$C$DW$T$6)
    2909                            .dwattr $C$DW$T$72, DW_AT_language(DW_LANG_C)
    2910                            .dwattr $C$DW$T$72, DW_AT_byte_size(0x1c)
    2911                    $C$DW$159       .dwtag  DW_TAG_subrange_type
    2912                            .dwattr $C$DW$159, DW_AT_upper_bound(0x1b)
    2913                    
    2914                            .dwendtag $C$DW$T$72
    2915                    
TI ARM Assembler PC v16.9.8 Thu Nov 22 09:24:44 2018

Tools Copyright (c) 1996-2017 Texas Instruments Incorporated
C:\Users\Einstein\AppData\Local\Temp\{D2CEF35E-DD0F-4D6B-8D7C-7424DE07D15F} PAGE   54

    2916                    $C$DW$T$243     .dwtag  DW_TAG_pointer_type
    2917                            .dwattr $C$DW$T$243, DW_AT_type(*$C$DW$T$6)
    2918                            .dwattr $C$DW$T$243, DW_AT_address_class(0x20)
    2919                    
    2920                    $C$DW$T$244     .dwtag  DW_TAG_typedef
    2921                            .dwattr $C$DW$T$244, DW_AT_name("xdc_String")
    2922                            .dwattr $C$DW$T$244, DW_AT_type(*$C$DW$T$243)
    2923                            .dwattr $C$DW$T$244, DW_AT_language(DW_LANG_C)
    2924                            .dwattr $C$DW$T$244, DW_AT_decl_file("C:/ti/xdctools_3_50_04_43_core/packages/xdc/std.h")
    2925                            .dwattr $C$DW$T$244, DW_AT_decl_line(0x30)
    2926                            .dwattr $C$DW$T$244, DW_AT_decl_column(0x1a)
    2927                    
    2928                    $C$DW$T$245     .dwtag  DW_TAG_typedef
    2929                            .dwattr $C$DW$T$245, DW_AT_name("String")
    2930                            .dwattr $C$DW$T$245, DW_AT_type(*$C$DW$T$244)
    2931                            .dwattr $C$DW$T$245, DW_AT_language(DW_LANG_C)
    2932                            .dwattr $C$DW$T$245, DW_AT_decl_file("C:/ti/xdctools_3_50_04_43_core/packages/xdc/std.h")
    2933                            .dwattr $C$DW$T$245, DW_AT_decl_line(0xfa)
    2934                            .dwattr $C$DW$T$245, DW_AT_decl_column(0x19)
    2935                    
    2936                    $C$DW$T$246     .dwtag  DW_TAG_const_type
    2937                            .dwattr $C$DW$T$246, DW_AT_type(*$C$DW$T$6)
    2938                    
    2939                    $C$DW$T$247     .dwtag  DW_TAG_pointer_type
    2940                            .dwattr $C$DW$T$247, DW_AT_type(*$C$DW$T$246)
    2941                            .dwattr $C$DW$T$247, DW_AT_address_class(0x20)
    2942                    
    2943                    $C$DW$T$248     .dwtag  DW_TAG_typedef
    2944                            .dwattr $C$DW$T$248, DW_AT_name("xdc_CString")
    2945                            .dwattr $C$DW$T$248, DW_AT_type(*$C$DW$T$247)
    2946                            .dwattr $C$DW$T$248, DW_AT_language(DW_LANG_C)
    2947                            .dwattr $C$DW$T$248, DW_AT_decl_file("C:/ti/xdctools_3_50_04_43_core/packages/xdc/std.h")
    2948                            .dwattr $C$DW$T$248, DW_AT_decl_line(0x31)
    2949                            .dwattr $C$DW$T$248, DW_AT_decl_column(0x1a)
    2950                    
    2951                    $C$DW$T$249     .dwtag  DW_TAG_typedef
    2952                            .dwattr $C$DW$T$249, DW_AT_name("CString")
    2953                            .dwattr $C$DW$T$249, DW_AT_type(*$C$DW$T$248)
    2954                            .dwattr $C$DW$T$249, DW_AT_language(DW_LANG_C)
    2955                            .dwattr $C$DW$T$249, DW_AT_decl_file("C:/ti/xdctools_3_50_04_43_core/packages/xdc/std.h")
    2956                            .dwattr $C$DW$T$249, DW_AT_decl_line(0xfc)
    2957                            .dwattr $C$DW$T$249, DW_AT_decl_column(0x19)
    2958                    
    2959                    $C$DW$T$250     .dwtag  DW_TAG_typedef
    2960                            .dwattr $C$DW$T$250, DW_AT_name("xdc_Char")
    2961                            .dwattr $C$DW$T$250, DW_AT_type(*$C$DW$T$6)
    2962                            .dwattr $C$DW$T$250, DW_AT_language(DW_LANG_C)
    2963                            .dwattr $C$DW$T$250, DW_AT_decl_file("C:/ti/xdctools_3_50_04_43_core/packages/xdc/std.h")
    2964                            .dwattr $C$DW$T$250, DW_AT_decl_line(0x1d)
    2965                            .dwattr $C$DW$T$250, DW_AT_decl_column(0x19)
    2966                    
    2967                    $C$DW$T$251     .dwtag  DW_TAG_typedef
    2968                            .dwattr $C$DW$T$251, DW_AT_name("Char")
    2969                            .dwattr $C$DW$T$251, DW_AT_type(*$C$DW$T$250)
    2970                            .dwattr $C$DW$T$251, DW_AT_language(DW_LANG_C)
TI ARM Assembler PC v16.9.8 Thu Nov 22 09:24:44 2018

Tools Copyright (c) 1996-2017 Texas Instruments Incorporated
C:\Users\Einstein\AppData\Local\Temp\{D2CEF35E-DD0F-4D6B-8D7C-7424DE07D15F} PAGE   55

    2971                            .dwattr $C$DW$T$251, DW_AT_decl_file("C:/ti/xdctools_3_50_04_43_core/packages/xdc/std.h")
    2972                            .dwattr $C$DW$T$251, DW_AT_decl_line(0xe0)
    2973                            .dwattr $C$DW$T$251, DW_AT_decl_column(0x19)
    2974                    
    2975                    
    2976                    $C$DW$T$83      .dwtag  DW_TAG_structure_type
    2977                            .dwattr $C$DW$T$83, DW_AT_name("__va_list")
    2978                            .dwattr $C$DW$T$83, DW_AT_byte_size(0x04)
    2979                    $C$DW$160       .dwtag  DW_TAG_member
    2980                            .dwattr $C$DW$160, DW_AT_type(*$C$DW$T$3)
    2981                            .dwattr $C$DW$160, DW_AT_name("__ap")
    2982                            .dwattr $C$DW$160, DW_AT_TI_symbol_name("__ap")
    2983                            .dwattr $C$DW$160, DW_AT_data_member_location[DW_OP_plus_uconst 0x0]
    2984                            .dwattr $C$DW$160, DW_AT_accessibility(DW_ACCESS_public)
    2985                            .dwattr $C$DW$160, DW_AT_decl_file("C:/ti/ccsv7/tools/compiler/ti-cgt-arm_16.9.8.LTS/include/s
    2986                            .dwattr $C$DW$160, DW_AT_decl_line(0x38)
    2987                            .dwattr $C$DW$160, DW_AT_decl_column(0x0c)
    2988                    
    2989                            .dwattr $C$DW$T$83, DW_AT_decl_file("C:/ti/ccsv7/tools/compiler/ti-cgt-arm_16.9.8.LTS/include/
    2990                            .dwattr $C$DW$T$83, DW_AT_decl_line(0x37)
    2991                            .dwattr $C$DW$T$83, DW_AT_decl_column(0x10)
    2992                            .dwendtag $C$DW$T$83
    2993                    
    2994                    $C$DW$T$252     .dwtag  DW_TAG_typedef
    2995                            .dwattr $C$DW$T$252, DW_AT_name("va_list")
    2996                            .dwattr $C$DW$T$252, DW_AT_type(*$C$DW$T$83)
    2997                            .dwattr $C$DW$T$252, DW_AT_language(DW_LANG_C)
    2998                            .dwattr $C$DW$T$252, DW_AT_decl_file("C:/ti/ccsv7/tools/compiler/ti-cgt-arm_16.9.8.LTS/include
    2999                            .dwattr $C$DW$T$252, DW_AT_decl_line(0x39)
    3000                            .dwattr $C$DW$T$252, DW_AT_decl_column(0x03)
    3001                    
    3002                    $C$DW$T$253     .dwtag  DW_TAG_typedef
    3003                            .dwattr $C$DW$T$253, DW_AT_name("xdc_VaList")
    3004                            .dwattr $C$DW$T$253, DW_AT_type(*$C$DW$T$252)
    3005                            .dwattr $C$DW$T$253, DW_AT_language(DW_LANG_C)
    3006                            .dwattr $C$DW$T$253, DW_AT_decl_file("C:/ti/xdctools_3_50_04_43_core/packages/xdc/std.h")
    3007                            .dwattr $C$DW$T$253, DW_AT_decl_line(0x29)
    3008                            .dwattr $C$DW$T$253, DW_AT_decl_column(0x19)
    3009                    
    3010                    $C$DW$T$254     .dwtag  DW_TAG_typedef
    3011                            .dwattr $C$DW$T$254, DW_AT_name("VaList")
    3012                            .dwattr $C$DW$T$254, DW_AT_type(*$C$DW$T$253)
    3013                            .dwattr $C$DW$T$254, DW_AT_language(DW_LANG_C)
    3014                            .dwattr $C$DW$T$254, DW_AT_decl_file("C:/ti/xdctools_3_50_04_43_core/packages/xdc/std.h")
    3015                            .dwattr $C$DW$T$254, DW_AT_decl_line(0xee)
    3016                            .dwattr $C$DW$T$254, DW_AT_decl_column(0x19)
    3017                    
    3018                            .dwattr $C$DW$CU, DW_AT_language(DW_LANG_C)
    3019                    
    3020                    ;***************************************************************
    3021                    ;* DWARF CIE ENTRIES                                           *
    3022                    ;***************************************************************
    3023                    
    3024                    $C$DW$CIE       .dwcie 14
    3025                            .dwcfi  cfa_register, 13
TI ARM Assembler PC v16.9.8 Thu Nov 22 09:24:44 2018

Tools Copyright (c) 1996-2017 Texas Instruments Incorporated
C:\Users\Einstein\AppData\Local\Temp\{D2CEF35E-DD0F-4D6B-8D7C-7424DE07D15F} PAGE   56

    3026                            .dwcfi  cfa_offset, 0
    3027                            .dwcfi  same_value, 4
    3028                            .dwcfi  same_value, 5
    3029                            .dwcfi  same_value, 6
    3030                            .dwcfi  same_value, 7
    3031                            .dwcfi  same_value, 8
    3032                            .dwcfi  same_value, 9
    3033                            .dwcfi  same_value, 10
    3034                            .dwcfi  same_value, 11
    3035                            .dwendentry
    3036                    
    3037                    ;***************************************************************
    3038                    ;* DWARF REGISTER MAP                                          *
    3039                    ;***************************************************************
    3040                    
    3041                    $C$DW$161       .dwtag  DW_TAG_TI_assign_register
    3042                            .dwattr $C$DW$161, DW_AT_name("A1")
    3043                            .dwattr $C$DW$161, DW_AT_location[DW_OP_reg0]
    3044                    
    3045                    $C$DW$162       .dwtag  DW_TAG_TI_assign_register
    3046                            .dwattr $C$DW$162, DW_AT_name("A2")
    3047                            .dwattr $C$DW$162, DW_AT_location[DW_OP_reg1]
    3048                    
    3049                    $C$DW$163       .dwtag  DW_TAG_TI_assign_register
    3050                            .dwattr $C$DW$163, DW_AT_name("A3")
    3051                            .dwattr $C$DW$163, DW_AT_location[DW_OP_reg2]
    3052                    
    3053                    $C$DW$164       .dwtag  DW_TAG_TI_assign_register
    3054                            .dwattr $C$DW$164, DW_AT_name("A4")
    3055                            .dwattr $C$DW$164, DW_AT_location[DW_OP_reg3]
    3056                    
    3057                    $C$DW$165       .dwtag  DW_TAG_TI_assign_register
    3058                            .dwattr $C$DW$165, DW_AT_name("V1")
    3059                            .dwattr $C$DW$165, DW_AT_location[DW_OP_reg4]
    3060                    
    3061                    $C$DW$166       .dwtag  DW_TAG_TI_assign_register
    3062                            .dwattr $C$DW$166, DW_AT_name("V2")
    3063                            .dwattr $C$DW$166, DW_AT_location[DW_OP_reg5]
    3064                    
    3065                    $C$DW$167       .dwtag  DW_TAG_TI_assign_register
    3066                            .dwattr $C$DW$167, DW_AT_name("V3")
    3067                            .dwattr $C$DW$167, DW_AT_location[DW_OP_reg6]
    3068                    
    3069                    $C$DW$168       .dwtag  DW_TAG_TI_assign_register
    3070                            .dwattr $C$DW$168, DW_AT_name("V4")
    3071                            .dwattr $C$DW$168, DW_AT_location[DW_OP_reg7]
    3072                    
    3073                    $C$DW$169       .dwtag  DW_TAG_TI_assign_register
    3074                            .dwattr $C$DW$169, DW_AT_name("V5")
    3075                            .dwattr $C$DW$169, DW_AT_location[DW_OP_reg8]
    3076                    
    3077                    $C$DW$170       .dwtag  DW_TAG_TI_assign_register
    3078                            .dwattr $C$DW$170, DW_AT_name("V6")
    3079                            .dwattr $C$DW$170, DW_AT_location[DW_OP_reg9]
    3080                    
TI ARM Assembler PC v16.9.8 Thu Nov 22 09:24:44 2018

Tools Copyright (c) 1996-2017 Texas Instruments Incorporated
C:\Users\Einstein\AppData\Local\Temp\{D2CEF35E-DD0F-4D6B-8D7C-7424DE07D15F} PAGE   57

    3081                    $C$DW$171       .dwtag  DW_TAG_TI_assign_register
    3082                            .dwattr $C$DW$171, DW_AT_name("V7")
    3083                            .dwattr $C$DW$171, DW_AT_location[DW_OP_reg10]
    3084                    
    3085                    $C$DW$172       .dwtag  DW_TAG_TI_assign_register
    3086                            .dwattr $C$DW$172, DW_AT_name("V8")
    3087                            .dwattr $C$DW$172, DW_AT_location[DW_OP_reg11]
    3088                    
    3089                    $C$DW$173       .dwtag  DW_TAG_TI_assign_register
    3090                            .dwattr $C$DW$173, DW_AT_name("V9")
    3091                            .dwattr $C$DW$173, DW_AT_location[DW_OP_reg12]
    3092                    
    3093                    $C$DW$174       .dwtag  DW_TAG_TI_assign_register
    3094                            .dwattr $C$DW$174, DW_AT_name("SP")
    3095                            .dwattr $C$DW$174, DW_AT_location[DW_OP_reg13]
    3096                    
    3097                    $C$DW$175       .dwtag  DW_TAG_TI_assign_register
    3098                            .dwattr $C$DW$175, DW_AT_name("LR")
    3099                            .dwattr $C$DW$175, DW_AT_location[DW_OP_reg14]
