TI ARM Assembler PC v16.9.8 Thu Nov 22 09:24:40 2018

Tools Copyright (c) 1996-2017 Texas Instruments Incorporated
C:\Users\Einstein\AppData\Local\Temp\{C719C61D-1508-48D8-97C8-A86DFC77D700} PAGE    1

       1                    ;******************************************************************************
       2                    ;* TI ARM C/C++ Codegen                                        PC v16.9.8.LTS *
       3                    ;* Date/Time created: Thu Nov 22 09:24:39 2018                                *
       4                    ;******************************************************************************
       5                            .compiler_opts --abi=eabi --arm_vmrs_si_workaround=off --code_state=16 --diag_wrap=off --embed
       6 00000000                   .thumb
       7                    
       8                    $C$DW$CU        .dwtag  DW_TAG_compile_unit
       9                            .dwattr $C$DW$CU, DW_AT_name("../Application/MAC/HAL/target/hal_aes.c")
      10                            .dwattr $C$DW$CU, DW_AT_producer("TI TI ARM C/C++ Codegen PC v16.9.8.LTS Copyright (c) 1996-20
      11                            .dwattr $C$DW$CU, DW_AT_TI_version(0x01)
      12                            .dwattr $C$DW$CU, DW_AT_comp_dir("C:\Users\Einstein\MyWorkspaceCC1350\sensor_cc1350lp\sensor_c
      13                    
      14                    $C$DW$1 .dwtag  DW_TAG_subprogram
      15                            .dwattr $C$DW$1, DW_AT_name("NOROM_CRYPTOAesLoadKey")
      16                            .dwattr $C$DW$1, DW_AT_TI_symbol_name("NOROM_CRYPTOAesLoadKey")
      17                            .dwattr $C$DW$1, DW_AT_type(*$C$DW$T$19)
      18                            .dwattr $C$DW$1, DW_AT_declaration
      19                            .dwattr $C$DW$1, DW_AT_external
      20                            .dwattr $C$DW$1, DW_AT_decl_file("C:/ti/simplelink_cc13x0_sdk_2_30_00_20/source/ti/devices/cc1
      21                            .dwattr $C$DW$1, DW_AT_decl_line(0xe6)
      22                            .dwattr $C$DW$1, DW_AT_decl_column(0x11)
      23                    $C$DW$2 .dwtag  DW_TAG_formal_parameter
      24                            .dwattr $C$DW$2, DW_AT_type(*$C$DW$T$42)
      25                    
      26                    $C$DW$3 .dwtag  DW_TAG_formal_parameter
      27                            .dwattr $C$DW$3, DW_AT_type(*$C$DW$T$19)
      28                    
      29                            .dwendtag $C$DW$1
      30                    
      31                    
      32                    $C$DW$4 .dwtag  DW_TAG_subprogram
      33                            .dwattr $C$DW$4, DW_AT_name("NOROM_CRYPTOAesEcb")
      34                            .dwattr $C$DW$4, DW_AT_TI_symbol_name("NOROM_CRYPTOAesEcb")
      35                            .dwattr $C$DW$4, DW_AT_type(*$C$DW$T$19)
      36                            .dwattr $C$DW$4, DW_AT_declaration
      37                            .dwattr $C$DW$4, DW_AT_external
      38                            .dwattr $C$DW$4, DW_AT_decl_file("C:/ti/simplelink_cc13x0_sdk_2_30_00_20/source/ti/devices/cc1
      39                            .dwattr $C$DW$4, DW_AT_decl_line(0x13e)
      40                            .dwattr $C$DW$4, DW_AT_decl_column(0x11)
      41                    $C$DW$5 .dwtag  DW_TAG_formal_parameter
      42                            .dwattr $C$DW$5, DW_AT_type(*$C$DW$T$42)
      43                    
      44                    $C$DW$6 .dwtag  DW_TAG_formal_parameter
      45                            .dwattr $C$DW$6, DW_AT_type(*$C$DW$T$42)
      46                    
      47                    $C$DW$7 .dwtag  DW_TAG_formal_parameter
      48                            .dwattr $C$DW$7, DW_AT_type(*$C$DW$T$19)
      49                    
      50                    $C$DW$8 .dwtag  DW_TAG_formal_parameter
      51                            .dwattr $C$DW$8, DW_AT_type(*$C$DW$T$100)
      52                    
      53                    $C$DW$9 .dwtag  DW_TAG_formal_parameter
      54                            .dwattr $C$DW$9, DW_AT_type(*$C$DW$T$100)
      55                    
TI ARM Assembler PC v16.9.8 Thu Nov 22 09:24:40 2018

Tools Copyright (c) 1996-2017 Texas Instruments Incorporated
C:\Users\Einstein\AppData\Local\Temp\{C719C61D-1508-48D8-97C8-A86DFC77D700} PAGE    2

      56                            .dwendtag $C$DW$4
      57                    
      58                    
      59                    $C$DW$10        .dwtag  DW_TAG_subprogram
      60                            .dwattr $C$DW$10, DW_AT_name("NOROM_CRYPTOAesEcbStatus")
      61                            .dwattr $C$DW$10, DW_AT_TI_symbol_name("NOROM_CRYPTOAesEcbStatus")
      62                            .dwattr $C$DW$10, DW_AT_type(*$C$DW$T$19)
      63                            .dwattr $C$DW$10, DW_AT_declaration
      64                            .dwattr $C$DW$10, DW_AT_external
      65                            .dwattr $C$DW$10, DW_AT_decl_file("C:/ti/simplelink_cc13x0_sdk_2_30_00_20/source/ti/devices/cc
      66                            .dwattr $C$DW$10, DW_AT_decl_line(0x151)
      67                            .dwattr $C$DW$10, DW_AT_decl_column(0x11)
      68                            .dwendtag $C$DW$10
      69                    
      70                            .global pSspAesEncrypt
      71 00000000                   .data
      72                            .align  4
      73                            .elfsym pSspAesEncrypt,SYM_SIZE(4)
      74 00000000           pSspAesEncrypt:
      75 00000000 00000000          .bits   0,32                    ; pSspAesEncrypt @ 0
      76                    
      77                    $C$DW$11        .dwtag  DW_TAG_variable
      78                            .dwattr $C$DW$11, DW_AT_name("pSspAesEncrypt")
      79                            .dwattr $C$DW$11, DW_AT_TI_symbol_name("pSspAesEncrypt")
      80                            .dwattr $C$DW$11, DW_AT_location[DW_OP_addr pSspAesEncrypt]
      81                            .dwattr $C$DW$11, DW_AT_type(*$C$DW$T$172)
      82                            .dwattr $C$DW$11, DW_AT_external
      83                            .dwattr $C$DW$11, DW_AT_decl_file("../Application/MAC/HAL/target/hal_aes.c")
      84                            .dwattr $C$DW$11, DW_AT_decl_line(0x4a)
      85                            .dwattr $C$DW$11, DW_AT_decl_column(0x08)
      86                    
      87                    ;       C:\ti\ccsv7\tools\compiler\ti-cgt-arm_16.9.8.LTS\bin\armopt.exe C:/Users/Einstein/MyWorkspaceC
      88 00000000                   .sect   ".text:ssp_HW_KeyInit"
      89                            .clink
      90                            .thumbfunc ssp_HW_KeyInit
      91 00000000                   .thumb
      92                            .global ssp_HW_KeyInit
      93                    
      94                    $C$DW$12        .dwtag  DW_TAG_subprogram
      95                            .dwattr $C$DW$12, DW_AT_name("ssp_HW_KeyInit")
      96                            .dwattr $C$DW$12, DW_AT_low_pc(ssp_HW_KeyInit)
      97                            .dwattr $C$DW$12, DW_AT_high_pc(0x00)
      98                            .dwattr $C$DW$12, DW_AT_TI_symbol_name("ssp_HW_KeyInit")
      99                            .dwattr $C$DW$12, DW_AT_external
     100                            .dwattr $C$DW$12, DW_AT_TI_begin_file("../Application/MAC/HAL/target/hal_aes.c")
     101                            .dwattr $C$DW$12, DW_AT_TI_begin_line(0x6d)
     102                            .dwattr $C$DW$12, DW_AT_TI_begin_column(0x06)
     103                            .dwattr $C$DW$12, DW_AT_decl_file("../Application/MAC/HAL/target/hal_aes.c")
     104                            .dwattr $C$DW$12, DW_AT_decl_line(0x6d)
     105                            .dwattr $C$DW$12, DW_AT_decl_column(0x06)
     106                            .dwattr $C$DW$12, DW_AT_TI_max_frame_size(0x00)
     107                            .dwpsn  file "../Application/MAC/HAL/target/hal_aes.c",line 110,column 1,is_stmt,address ssp_H
     108                    
     109                            .dwfde $C$DW$CIE, ssp_HW_KeyInit
     110                    $C$DW$13        .dwtag  DW_TAG_formal_parameter
TI ARM Assembler PC v16.9.8 Thu Nov 22 09:24:40 2018

Tools Copyright (c) 1996-2017 Texas Instruments Incorporated
C:\Users\Einstein\AppData\Local\Temp\{C719C61D-1508-48D8-97C8-A86DFC77D700} PAGE    3

     111                            .dwattr $C$DW$13, DW_AT_name("AesKey")
     112                            .dwattr $C$DW$13, DW_AT_TI_symbol_name("AesKey")
     113                            .dwattr $C$DW$13, DW_AT_type(*$C$DW$T$169)
     114                            .dwattr $C$DW$13, DW_AT_location[DW_OP_reg0]
     115                    
     116                    
     117                    ;*****************************************************************************
     118                    ;* FUNCTION NAME: ssp_HW_KeyInit                                             *
     119                    ;*                                                                           *
     120                    ;*   Regs Modified     : A1,A2,A3,A4,V9,LR,SR                                *
     121                    ;*   Regs Used         : A1,A2,A3,A4,V9,SP,LR,SR                             *
     122                    ;*   Local Frame Size  : 0 Args + 0 Auto + 0 Save = 0 byte                   *
     123                    ;*****************************************************************************
     124 00000000           ssp_HW_KeyInit:
     125                    ;* --------------------------------------------------------------------------*
     126                            .dwcfi  cfa_offset, 0
     127                            .dwpsn  file "../Application/MAC/HAL/target/hal_aes.c",line 114,column 3,is_stmt,isa 1
     128 00000000 2100              MOVS      A2, #0                ; [DPU_3_PIPE] |114|  ; [ORIG 16-BIT INS]
     129                    $C$DW$14        .dwtag  DW_TAG_TI_branch
     130                            .dwattr $C$DW$14, DW_AT_low_pc(0x00)
     131                            .dwattr $C$DW$14, DW_AT_name("NOROM_CRYPTOAesLoadKey")
     132                            .dwattr $C$DW$14, DW_AT_TI_call
     133                            .dwattr $C$DW$14, DW_AT_TI_return
     134                    
     135 00000002 BFFEF7FF!         CRET      NOROM_CRYPTOAesLoadKey ; [DPU_3_PIPE] |114|  ; [KEEP 32-BIT INS]
     136                            ; CALL OCCURS {NOROM_CRYPTOAesLoadKey }  ; [] |114| 
     137                            .dwattr $C$DW$12, DW_AT_TI_end_file("../Application/MAC/HAL/target/hal_aes.c")
     138                            .dwattr $C$DW$12, DW_AT_TI_end_line(0x73)
     139                            .dwattr $C$DW$12, DW_AT_TI_end_column(0x01)
     140                            .dwendentry
     141                            .dwendtag $C$DW$12
     142                    
     143 00000000                   .sect   ".text:sspAesEncryptHW_keylocation"
     144                            .clink
     145                            .thumbfunc sspAesEncryptHW_keylocation
     146 00000000                   .thumb
     147                            .global sspAesEncryptHW_keylocation
     148                    
     149                    $C$DW$15        .dwtag  DW_TAG_subprogram
     150                            .dwattr $C$DW$15, DW_AT_name("sspAesEncryptHW_keylocation")
     151                            .dwattr $C$DW$15, DW_AT_low_pc(sspAesEncryptHW_keylocation)
     152                            .dwattr $C$DW$15, DW_AT_high_pc(0x00)
     153                            .dwattr $C$DW$15, DW_AT_TI_symbol_name("sspAesEncryptHW_keylocation")
     154                            .dwattr $C$DW$15, DW_AT_external
     155                            .dwattr $C$DW$15, DW_AT_TI_begin_file("../Application/MAC/HAL/target/hal_aes.c")
     156                            .dwattr $C$DW$15, DW_AT_TI_begin_line(0xcb)
     157                            .dwattr $C$DW$15, DW_AT_TI_begin_column(0x06)
     158                            .dwattr $C$DW$15, DW_AT_decl_file("../Application/MAC/HAL/target/hal_aes.c")
     159                            .dwattr $C$DW$15, DW_AT_decl_line(0xcb)
     160                            .dwattr $C$DW$15, DW_AT_decl_column(0x06)
     161                            .dwattr $C$DW$15, DW_AT_TI_max_frame_size(0x10)
     162                            .dwpsn  file "../Application/MAC/HAL/target/hal_aes.c",line 204,column 1,is_stmt,address sspAe
     163                    
     164                            .dwfde $C$DW$CIE, sspAesEncryptHW_keylocation
     165                    $C$DW$16        .dwtag  DW_TAG_formal_parameter
TI ARM Assembler PC v16.9.8 Thu Nov 22 09:24:40 2018

Tools Copyright (c) 1996-2017 Texas Instruments Incorporated
C:\Users\Einstein\AppData\Local\Temp\{C719C61D-1508-48D8-97C8-A86DFC77D700} PAGE    4

     166                            .dwattr $C$DW$16, DW_AT_name("msg_in")
     167                            .dwattr $C$DW$16, DW_AT_TI_symbol_name("msg_in")
     168                            .dwattr $C$DW$16, DW_AT_type(*$C$DW$T$169)
     169                            .dwattr $C$DW$16, DW_AT_location[DW_OP_reg0]
     170                    
     171                    $C$DW$17        .dwtag  DW_TAG_formal_parameter
     172                            .dwattr $C$DW$17, DW_AT_name("msg_out")
     173                            .dwattr $C$DW$17, DW_AT_TI_symbol_name("msg_out")
     174                            .dwattr $C$DW$17, DW_AT_type(*$C$DW$T$169)
     175                            .dwattr $C$DW$17, DW_AT_location[DW_OP_reg1]
     176                    
     177                    $C$DW$18        .dwtag  DW_TAG_formal_parameter
     178                            .dwattr $C$DW$18, DW_AT_name("key_location")
     179                            .dwattr $C$DW$18, DW_AT_TI_symbol_name("key_location")
     180                            .dwattr $C$DW$18, DW_AT_type(*$C$DW$T$10)
     181                            .dwattr $C$DW$18, DW_AT_location[DW_OP_reg2]
     182                    
     183                    
     184                    ;*****************************************************************************
     185                    ;* FUNCTION NAME: sspAesEncryptHW_keylocation                                *
     186                    ;*                                                                           *
     187                    ;*   Regs Modified     : A1,A2,A3,A4,V1,V9,SP,LR,SR                          *
     188                    ;*   Regs Used         : A1,A2,A3,A4,V1,V9,SP,LR,SR                          *
     189                    ;*   Local Frame Size  : 4 Args + 0 Auto + 8 Save = 12 byte                  *
     190                    ;*****************************************************************************
     191 00000000           sspAesEncryptHW_keylocation:
     192                    ;* --------------------------------------------------------------------------*
     193                    ;* A1    assigned to $O$C1
     194                    ;* V1    assigned to $O$C2
     195                            .dwcfi  cfa_offset, 0
     196 00000000 B51C              PUSH      {A3, A4, V1, LR}      ; [DPU_3_PIPE]  ; [ORIG 16-BIT INS]
     197                            .dwcfi  cfa_offset, 16
     198                            .dwcfi  save_reg_to_mem, 14, -4
     199                            .dwcfi  save_reg_to_mem, 4, -8
     200                            .dwcfi  save_reg_to_mem, 3, -12
     201                            .dwcfi  save_reg_to_mem, 2, -16
     202                            .dwpsn  file "../Application/MAC/HAL/target/hal_aes.c",line 208,column 3,is_stmt,isa 1
     203 00000002 2400              MOVS      V1, #0                ; [DPU_3_PIPE] |208|  ; [ORIG 16-BIT INS]
     204 00000004 2301              MOVS      A4, #1                ; [DPU_3_PIPE] |208|  ; [ORIG 16-BIT INS]
     205 00000006 9400              STR       V1, [SP, #0]          ; [DPU_3_PIPE] |208|  ; [ORIG 16-BIT INS]
     206                    $C$DW$19        .dwtag  DW_TAG_TI_branch
     207                            .dwattr $C$DW$19, DW_AT_low_pc(0x00)
     208                            .dwattr $C$DW$19, DW_AT_name("NOROM_CRYPTOAesEcb")
     209                            .dwattr $C$DW$19, DW_AT_TI_call
     210                    
     211 00000008 FFFEF7FF!         BL        NOROM_CRYPTOAesEcb    ; [DPU_3_PIPE] |208|  ; [KEEP 32-BIT INS]
     212                            ; CALL OCCURS {NOROM_CRYPTOAesEcb }  ; [] |208| 
     213                    ;* --------------------------------------------------------------------------*
     214                    ;*   BEGIN LOOP ||$C$L1||
     215                    ;*
     216                    ;*   Loop source line                : 211
     217                    ;*   Loop closing brace source line  : 214
     218                    ;*   Known Minimum Trip Count        : 1
     219                    ;*   Known Maximum Trip Count        : 4294967295
     220                    ;*   Known Max Trip Count Factor     : 1
TI ARM Assembler PC v16.9.8 Thu Nov 22 09:24:40 2018

Tools Copyright (c) 1996-2017 Texas Instruments Incorporated
C:\Users\Einstein\AppData\Local\Temp\{C719C61D-1508-48D8-97C8-A86DFC77D700} PAGE    5

     221                    ;* --------------------------------------------------------------------------*
     222 0000000c           ||$C$L1||:    
     223 0000000c BF00       NOP ; [ORIG 16-BIT INS]
     224                            .dwpsn  file "../Application/MAC/HAL/target/hal_aes.c",line 211,column 3,is_stmt,isa 1
     225                    $C$DW$20        .dwtag  DW_TAG_TI_branch
     226                            .dwattr $C$DW$20, DW_AT_low_pc(0x00)
     227                            .dwattr $C$DW$20, DW_AT_name("NOROM_CRYPTOAesEcbStatus")
     228                            .dwattr $C$DW$20, DW_AT_TI_call
     229                    
     230 0000000e FFFEF7FF!         BL        NOROM_CRYPTOAesEcbStatus ; [DPU_3_PIPE] |211|  ; [KEEP 32-BIT INS]
     231                            ; CALL OCCURS {NOROM_CRYPTOAesEcbStatus }  ; [] |211| 
     232 00000012 2800              CMP       A1, #0                ; [DPU_3_PIPE] |211|  ; [ORIG 16-BIT INS]
     233 00000014 D1FA              BNE       ||$C$L1||             ; [DPU_3_PIPE] |211|  ; [ORIG 16-BIT INS]
     234                            ; BRANCHCC OCCURS {||$C$L1||}    ; [] |211| 
     235                    ;* --------------------------------------------------------------------------*
     236                            .dwpsn  file "C:/ti/simplelink_cc13x0_sdk_2_30_00_20/source/ti/devices/cc13x0/driverlib/crypto
     237 00000016 4802              LDR       A1, $C$CON1           ; [DPU_3_PIPE] |356|  ; [ORIG 16-BIT INS]
     238 00000018 41B0F8C0          STR       V1, [A1, #432]        ; [DPU_3_PIPE] |356|  ; [KEEP 32-BIT INS]
     239                            .dwpsn  file "C:/ti/simplelink_cc13x0_sdk_2_30_00_20/source/ti/devices/cc13x0/driverlib/crypto
     240 0000001c 6004              STR       V1, [A1, #0]          ; [DPU_3_PIPE] |357|  ; [ORIG 16-BIT INS]
     241                    $C$DW$21        .dwtag  DW_TAG_TI_branch
     242                            .dwattr $C$DW$21, DW_AT_low_pc(0x00)
     243                            .dwattr $C$DW$21, DW_AT_TI_return
     244                    
     245 0000001e BD1C              POP       {A3, A4, V1, PC}      ; [DPU_3_PIPE]  ; [ORIG 16-BIT INS]
     246                            .dwcfi  cfa_offset, 0
     247                            .dwcfi  restore_reg, 4
     248                            .dwcfi  restore_reg, 3
     249                            .dwcfi  restore_reg, 2
     250                            ; BRANCH OCCURS                  ; [] 
     251                            .dwattr $C$DW$15, DW_AT_TI_end_file("../Application/MAC/HAL/target/hal_aes.c")
     252                            .dwattr $C$DW$15, DW_AT_TI_end_line(0xd9)
     253                            .dwattr $C$DW$15, DW_AT_TI_end_column(0x01)
     254                            .dwendentry
     255                            .dwendtag $C$DW$15
     256                    
     257 00000000                   .sect   ".text:sspAesEncryptHW"
     258                            .clink
     259                            .thumbfunc sspAesEncryptHW
     260 00000000                   .thumb
     261                            .global sspAesEncryptHW
     262                    
     263                    $C$DW$22        .dwtag  DW_TAG_subprogram
     264                            .dwattr $C$DW$22, DW_AT_name("sspAesEncryptHW")
     265                            .dwattr $C$DW$22, DW_AT_low_pc(sspAesEncryptHW)
     266                            .dwattr $C$DW$22, DW_AT_high_pc(0x00)
     267                            .dwattr $C$DW$22, DW_AT_TI_symbol_name("sspAesEncryptHW")
     268                            .dwattr $C$DW$22, DW_AT_external
     269                            .dwattr $C$DW$22, DW_AT_TI_begin_file("../Application/MAC/HAL/target/hal_aes.c")
     270                            .dwattr $C$DW$22, DW_AT_TI_begin_line(0x87)
     271                            .dwattr $C$DW$22, DW_AT_TI_begin_column(0x06)
     272                            .dwattr $C$DW$22, DW_AT_decl_file("../Application/MAC/HAL/target/hal_aes.c")
     273                            .dwattr $C$DW$22, DW_AT_decl_line(0x87)
     274                            .dwattr $C$DW$22, DW_AT_decl_column(0x06)
     275                            .dwattr $C$DW$22, DW_AT_TI_max_frame_size(0x10)
TI ARM Assembler PC v16.9.8 Thu Nov 22 09:24:40 2018

Tools Copyright (c) 1996-2017 Texas Instruments Incorporated
C:\Users\Einstein\AppData\Local\Temp\{C719C61D-1508-48D8-97C8-A86DFC77D700} PAGE    6

     276                            .dwpsn  file "../Application/MAC/HAL/target/hal_aes.c",line 136,column 1,is_stmt,address sspAe
     277                    
     278                            .dwfde $C$DW$CIE, sspAesEncryptHW
     279                    $C$DW$23        .dwtag  DW_TAG_formal_parameter
     280                            .dwattr $C$DW$23, DW_AT_name("AesKey")
     281                            .dwattr $C$DW$23, DW_AT_TI_symbol_name("AesKey")
     282                            .dwattr $C$DW$23, DW_AT_type(*$C$DW$T$169)
     283                            .dwattr $C$DW$23, DW_AT_location[DW_OP_reg0]
     284                    
     285                    $C$DW$24        .dwtag  DW_TAG_formal_parameter
     286                            .dwattr $C$DW$24, DW_AT_name("Cstate")
     287                            .dwattr $C$DW$24, DW_AT_TI_symbol_name("Cstate")
     288                            .dwattr $C$DW$24, DW_AT_type(*$C$DW$T$169)
     289                            .dwattr $C$DW$24, DW_AT_location[DW_OP_reg1]
     290                    
     291                    
     292                    ;*****************************************************************************
     293                    ;* FUNCTION NAME: sspAesEncryptHW                                            *
     294                    ;*                                                                           *
     295                    ;*   Regs Modified     : A1,A2,A3,A4,V1,V9,SP,LR,SR                          *
     296                    ;*   Regs Used         : A1,A2,A3,A4,V1,V9,SP,LR,SR                          *
     297                    ;*   Local Frame Size  : 4 Args + 0 Auto + 8 Save = 12 byte                  *
     298                    ;*****************************************************************************
     299                    sspAesEncryptHW:
     300                    ;* --------------------------------------------------------------------------*
     301                    ;* A1    assigned to $O$C1
     302                    ;* V1    assigned to $O$C2
     303                    ;* A2    assigned to Cstate
     304                    $C$DW$25        .dwtag  DW_TAG_variable
     305                            .dwattr $C$DW$25, DW_AT_name("Cstate")
     306                            .dwattr $C$DW$25, DW_AT_TI_symbol_name("Cstate")
     307                            .dwattr $C$DW$25, DW_AT_type(*$C$DW$T$189)
     308                            .dwattr $C$DW$25, DW_AT_location[DW_OP_reg1]
     309                    
     310                            .dwcfi  cfa_offset, 0
     311 00000000 B51C              PUSH      {A3, A4, V1, LR}      ; [DPU_3_PIPE]  ; [ORIG 16-BIT INS]
     312                            .dwcfi  cfa_offset, 16
     313                            .dwcfi  save_reg_to_mem, 14, -4
     314                            .dwcfi  save_reg_to_mem, 4, -8
     315                            .dwcfi  save_reg_to_mem, 3, -12
     316                            .dwcfi  save_reg_to_mem, 2, -16
     317                            .dwpsn  file "../Application/MAC/HAL/target/hal_aes.c",line 140,column 3,is_stmt,isa 1
     318 00000002 2400              MOVS      V1, #0                ; [DPU_3_PIPE] |140|  ; [ORIG 16-BIT INS]
     319 00000004 4608              MOV       A1, A2                ; [DPU_3_PIPE] |140|  ; [ORIG 16-BIT INS]
     320 00000006 2301              MOVS      A4, #1                ; [DPU_3_PIPE] |140|  ; [ORIG 16-BIT INS]
     321 00000008 4622              MOV       A3, V1                ; [DPU_3_PIPE] |140|  ; [ORIG 16-BIT INS]
     322 0000000a 9400              STR       V1, [SP, #0]          ; [DPU_3_PIPE] |140|  ; [ORIG 16-BIT INS]
     323                    $C$DW$26        .dwtag  DW_TAG_TI_branch
     324                            .dwattr $C$DW$26, DW_AT_low_pc(0x00)
     325                            .dwattr $C$DW$26, DW_AT_name("NOROM_CRYPTOAesEcb")
     326                            .dwattr $C$DW$26, DW_AT_TI_call
     327                    
     328 0000000c FFFEF7FF!         BL        NOROM_CRYPTOAesEcb    ; [DPU_3_PIPE] |140|  ; [KEEP 32-BIT INS]
     329                            ; CALL OCCURS {NOROM_CRYPTOAesEcb }  ; [] |140| 
     330                    ;* --------------------------------------------------------------------------*
TI ARM Assembler PC v16.9.8 Thu Nov 22 09:24:40 2018

Tools Copyright (c) 1996-2017 Texas Instruments Incorporated
C:\Users\Einstein\AppData\Local\Temp\{C719C61D-1508-48D8-97C8-A86DFC77D700} PAGE    7

     331                    ;*   BEGIN LOOP ||$C$L2||
     332                    ;*
     333                    ;*   Loop source line                : 143
     334                    ;*   Loop closing brace source line  : 146
     335                    ;*   Known Minimum Trip Count        : 1
     336                    ;*   Known Maximum Trip Count        : 4294967295
     337                    ;*   Known Max Trip Count Factor     : 1
     338                    ;* --------------------------------------------------------------------------*
     339 00000010           ||$C$L2||:    
     340 00000010 BF00       NOP ; [ORIG 16-BIT INS]
     341                            .dwpsn  file "../Application/MAC/HAL/target/hal_aes.c",line 143,column 3,is_stmt,isa 1
     342                    $C$DW$27        .dwtag  DW_TAG_TI_branch
     343                            .dwattr $C$DW$27, DW_AT_low_pc(0x00)
     344                            .dwattr $C$DW$27, DW_AT_name("NOROM_CRYPTOAesEcbStatus")
     345                            .dwattr $C$DW$27, DW_AT_TI_call
     346                    
     347 00000012 FFFEF7FF!         BL        NOROM_CRYPTOAesEcbStatus ; [DPU_3_PIPE] |143|  ; [KEEP 32-BIT INS]
     348                            ; CALL OCCURS {NOROM_CRYPTOAesEcbStatus }  ; [] |143| 
     349 00000016 2800              CMP       A1, #0                ; [DPU_3_PIPE] |143|  ; [ORIG 16-BIT INS]
     350 00000018 D1FA              BNE       ||$C$L2||             ; [DPU_3_PIPE] |143|  ; [ORIG 16-BIT INS]
     351                            ; BRANCHCC OCCURS {||$C$L2||}    ; [] |143| 
     352                    ;* --------------------------------------------------------------------------*
     353                            .dwpsn  file "C:/ti/simplelink_cc13x0_sdk_2_30_00_20/source/ti/devices/cc13x0/driverlib/crypto
     354 0000001a 4802              LDR       A1, $C$CON2           ; [DPU_3_PIPE] |356|  ; [ORIG 16-BIT INS]
     355 0000001c 41B0F8C0          STR       V1, [A1, #432]        ; [DPU_3_PIPE] |356|  ; [KEEP 32-BIT INS]
     356                            .dwpsn  file "C:/ti/simplelink_cc13x0_sdk_2_30_00_20/source/ti/devices/cc13x0/driverlib/crypto
     357 00000020 6004              STR       V1, [A1, #0]          ; [DPU_3_PIPE] |357|  ; [ORIG 16-BIT INS]
     358                    $C$DW$28        .dwtag  DW_TAG_TI_branch
     359                            .dwattr $C$DW$28, DW_AT_low_pc(0x00)
     360                            .dwattr $C$DW$28, DW_AT_TI_return
     361                    
     362 00000022 BD1C              POP       {A3, A4, V1, PC}      ; [DPU_3_PIPE]  ; [ORIG 16-BIT INS]
     363                            .dwcfi  cfa_offset, 0
     364                            .dwcfi  restore_reg, 4
     365                            .dwcfi  restore_reg, 3
     366                            .dwcfi  restore_reg, 2
     367                            ; BRANCH OCCURS                  ; [] 
     368                            .dwattr $C$DW$22, DW_AT_TI_end_file("../Application/MAC/HAL/target/hal_aes.c")
     369                            .dwattr $C$DW$22, DW_AT_TI_end_line(0x95)
     370                            .dwattr $C$DW$22, DW_AT_TI_end_column(0x01)
     371                            .dwendentry
     372                            .dwendtag $C$DW$22
     373                    
     374 00000000                   .sect   ".text:sspAesDecryptHW_keylocation"
     375                            .clink
     376                            .thumbfunc sspAesDecryptHW_keylocation
     377 00000000                   .thumb
     378                            .global sspAesDecryptHW_keylocation
     379                    
     380                    $C$DW$29        .dwtag  DW_TAG_subprogram
     381                            .dwattr $C$DW$29, DW_AT_name("sspAesDecryptHW_keylocation")
     382                            .dwattr $C$DW$29, DW_AT_low_pc(sspAesDecryptHW_keylocation)
     383                            .dwattr $C$DW$29, DW_AT_high_pc(0x00)
     384                            .dwattr $C$DW$29, DW_AT_TI_symbol_name("sspAesDecryptHW_keylocation")
     385                            .dwattr $C$DW$29, DW_AT_external
TI ARM Assembler PC v16.9.8 Thu Nov 22 09:24:40 2018

Tools Copyright (c) 1996-2017 Texas Instruments Incorporated
C:\Users\Einstein\AppData\Local\Temp\{C719C61D-1508-48D8-97C8-A86DFC77D700} PAGE    8

     386                            .dwattr $C$DW$29, DW_AT_TI_begin_file("../Application/MAC/HAL/target/hal_aes.c")
     387                            .dwattr $C$DW$29, DW_AT_TI_begin_line(0xed)
     388                            .dwattr $C$DW$29, DW_AT_TI_begin_column(0x06)
     389                            .dwattr $C$DW$29, DW_AT_decl_file("../Application/MAC/HAL/target/hal_aes.c")
     390                            .dwattr $C$DW$29, DW_AT_decl_line(0xed)
     391                            .dwattr $C$DW$29, DW_AT_decl_column(0x06)
     392                            .dwattr $C$DW$29, DW_AT_TI_max_frame_size(0x10)
     393                            .dwpsn  file "../Application/MAC/HAL/target/hal_aes.c",line 238,column 1,is_stmt,address sspAe
     394                    
     395                            .dwfde $C$DW$CIE, sspAesDecryptHW_keylocation
     396                    $C$DW$30        .dwtag  DW_TAG_formal_parameter
     397                            .dwattr $C$DW$30, DW_AT_name("msg_in")
     398                            .dwattr $C$DW$30, DW_AT_TI_symbol_name("msg_in")
     399                            .dwattr $C$DW$30, DW_AT_type(*$C$DW$T$169)
     400                            .dwattr $C$DW$30, DW_AT_location[DW_OP_reg0]
     401                    
     402                    $C$DW$31        .dwtag  DW_TAG_formal_parameter
     403                            .dwattr $C$DW$31, DW_AT_name("msg_out")
     404                            .dwattr $C$DW$31, DW_AT_TI_symbol_name("msg_out")
     405                            .dwattr $C$DW$31, DW_AT_type(*$C$DW$T$169)
     406                            .dwattr $C$DW$31, DW_AT_location[DW_OP_reg1]
     407                    
     408                    $C$DW$32        .dwtag  DW_TAG_formal_parameter
     409                            .dwattr $C$DW$32, DW_AT_name("key_location")
     410                            .dwattr $C$DW$32, DW_AT_TI_symbol_name("key_location")
     411                            .dwattr $C$DW$32, DW_AT_type(*$C$DW$T$10)
     412                            .dwattr $C$DW$32, DW_AT_location[DW_OP_reg2]
     413                    
     414                    
     415                    ;*****************************************************************************
     416                    ;* FUNCTION NAME: sspAesDecryptHW_keylocation                                *
     417                    ;*                                                                           *
     418                    ;*   Regs Modified     : A1,A2,A3,A4,V1,V9,SP,LR,SR                          *
     419                    ;*   Regs Used         : A1,A2,A3,A4,V1,V9,SP,LR,SR                          *
     420                    ;*   Local Frame Size  : 4 Args + 0 Auto + 8 Save = 12 byte                  *
     421                    ;*****************************************************************************
     422 00000000           sspAesDecryptHW_keylocation:
     423                    ;* --------------------------------------------------------------------------*
     424                    ;* A1    assigned to $O$C1
     425                    ;* V1    assigned to $O$C2
     426                            .dwcfi  cfa_offset, 0
     427 00000000 B51C              PUSH      {A3, A4, V1, LR}      ; [DPU_3_PIPE]  ; [ORIG 16-BIT INS]
     428                            .dwcfi  cfa_offset, 16
     429                            .dwcfi  save_reg_to_mem, 14, -4
     430                            .dwcfi  save_reg_to_mem, 4, -8
     431                            .dwcfi  save_reg_to_mem, 3, -12
     432                            .dwcfi  save_reg_to_mem, 2, -16
     433                            .dwpsn  file "../Application/MAC/HAL/target/hal_aes.c",line 242,column 3,is_stmt,isa 1
     434 00000002 2400              MOVS      V1, #0                ; [DPU_3_PIPE] |242|  ; [ORIG 16-BIT INS]
     435 00000004 4623              MOV       A4, V1                ; [DPU_3_PIPE] |242|  ; [ORIG 16-BIT INS]
     436 00000006 9400              STR       V1, [SP, #0]          ; [DPU_3_PIPE] |242|  ; [ORIG 16-BIT INS]
     437                    $C$DW$33        .dwtag  DW_TAG_TI_branch
     438                            .dwattr $C$DW$33, DW_AT_low_pc(0x00)
     439                            .dwattr $C$DW$33, DW_AT_name("NOROM_CRYPTOAesEcb")
     440                            .dwattr $C$DW$33, DW_AT_TI_call
TI ARM Assembler PC v16.9.8 Thu Nov 22 09:24:40 2018

Tools Copyright (c) 1996-2017 Texas Instruments Incorporated
C:\Users\Einstein\AppData\Local\Temp\{C719C61D-1508-48D8-97C8-A86DFC77D700} PAGE    9

     441                    
     442 00000008 FFFEF7FF!         BL        NOROM_CRYPTOAesEcb    ; [DPU_3_PIPE] |242|  ; [KEEP 32-BIT INS]
     443                            ; CALL OCCURS {NOROM_CRYPTOAesEcb }  ; [] |242| 
     444                    ;* --------------------------------------------------------------------------*
     445                    ;*   BEGIN LOOP ||$C$L3||
     446                    ;*
     447                    ;*   Loop source line                : 245
     448                    ;*   Loop closing brace source line  : 248
     449                    ;*   Known Minimum Trip Count        : 1
     450                    ;*   Known Maximum Trip Count        : 4294967295
     451                    ;*   Known Max Trip Count Factor     : 1
     452                    ;* --------------------------------------------------------------------------*
     453 0000000c           ||$C$L3||:    
     454 0000000c BF00       NOP ; [ORIG 16-BIT INS]
     455                            .dwpsn  file "../Application/MAC/HAL/target/hal_aes.c",line 245,column 3,is_stmt,isa 1
     456                    $C$DW$34        .dwtag  DW_TAG_TI_branch
     457                            .dwattr $C$DW$34, DW_AT_low_pc(0x00)
     458                            .dwattr $C$DW$34, DW_AT_name("NOROM_CRYPTOAesEcbStatus")
     459                            .dwattr $C$DW$34, DW_AT_TI_call
     460                    
     461 0000000e FFFEF7FF!         BL        NOROM_CRYPTOAesEcbStatus ; [DPU_3_PIPE] |245|  ; [KEEP 32-BIT INS]
     462                            ; CALL OCCURS {NOROM_CRYPTOAesEcbStatus }  ; [] |245| 
     463 00000012 2800              CMP       A1, #0                ; [DPU_3_PIPE] |245|  ; [ORIG 16-BIT INS]
     464 00000014 D1FA              BNE       ||$C$L3||             ; [DPU_3_PIPE] |245|  ; [ORIG 16-BIT INS]
     465                            ; BRANCHCC OCCURS {||$C$L3||}    ; [] |245| 
     466                    ;* --------------------------------------------------------------------------*
     467                            .dwpsn  file "C:/ti/simplelink_cc13x0_sdk_2_30_00_20/source/ti/devices/cc13x0/driverlib/crypto
     468 00000016 4802              LDR       A1, $C$CON3           ; [DPU_3_PIPE] |356|  ; [ORIG 16-BIT INS]
     469 00000018 41B0F8C0          STR       V1, [A1, #432]        ; [DPU_3_PIPE] |356|  ; [KEEP 32-BIT INS]
     470                            .dwpsn  file "C:/ti/simplelink_cc13x0_sdk_2_30_00_20/source/ti/devices/cc13x0/driverlib/crypto
     471 0000001c 6004              STR       V1, [A1, #0]          ; [DPU_3_PIPE] |357|  ; [ORIG 16-BIT INS]
     472                    $C$DW$35        .dwtag  DW_TAG_TI_branch
     473                            .dwattr $C$DW$35, DW_AT_low_pc(0x00)
     474                            .dwattr $C$DW$35, DW_AT_TI_return
     475                    
     476 0000001e BD1C              POP       {A3, A4, V1, PC}      ; [DPU_3_PIPE]  ; [ORIG 16-BIT INS]
     477                            .dwcfi  cfa_offset, 0
     478                            .dwcfi  restore_reg, 4
     479                            .dwcfi  restore_reg, 3
     480                            .dwcfi  restore_reg, 2
     481                            ; BRANCH OCCURS                  ; [] 
     482                            .dwattr $C$DW$29, DW_AT_TI_end_file("../Application/MAC/HAL/target/hal_aes.c")
     483                            .dwattr $C$DW$29, DW_AT_TI_end_line(0xfb)
     484                            .dwattr $C$DW$29, DW_AT_TI_end_column(0x01)
     485                            .dwendentry
     486                            .dwendtag $C$DW$29
     487                    
     488 00000000                   .sect   ".text:sspAesDecryptHW"
     489                            .clink
     490                            .thumbfunc sspAesDecryptHW
     491 00000000                   .thumb
     492                            .global sspAesDecryptHW
     493                    
     494                    $C$DW$36        .dwtag  DW_TAG_subprogram
     495                            .dwattr $C$DW$36, DW_AT_name("sspAesDecryptHW")
TI ARM Assembler PC v16.9.8 Thu Nov 22 09:24:40 2018

Tools Copyright (c) 1996-2017 Texas Instruments Incorporated
C:\Users\Einstein\AppData\Local\Temp\{C719C61D-1508-48D8-97C8-A86DFC77D700} PAGE   10

     496                            .dwattr $C$DW$36, DW_AT_low_pc(sspAesDecryptHW)
     497                            .dwattr $C$DW$36, DW_AT_high_pc(0x00)
     498                            .dwattr $C$DW$36, DW_AT_TI_symbol_name("sspAesDecryptHW")
     499                            .dwattr $C$DW$36, DW_AT_external
     500                            .dwattr $C$DW$36, DW_AT_TI_begin_file("../Application/MAC/HAL/target/hal_aes.c")
     501                            .dwattr $C$DW$36, DW_AT_TI_begin_line(0xa9)
     502                            .dwattr $C$DW$36, DW_AT_TI_begin_column(0x06)
     503                            .dwattr $C$DW$36, DW_AT_decl_file("../Application/MAC/HAL/target/hal_aes.c")
     504                            .dwattr $C$DW$36, DW_AT_decl_line(0xa9)
     505                            .dwattr $C$DW$36, DW_AT_decl_column(0x06)
     506                            .dwattr $C$DW$36, DW_AT_TI_max_frame_size(0x10)
     507                            .dwpsn  file "../Application/MAC/HAL/target/hal_aes.c",line 170,column 1,is_stmt,address sspAe
     508                    
     509                            .dwfde $C$DW$CIE, sspAesDecryptHW
     510                    $C$DW$37        .dwtag  DW_TAG_formal_parameter
     511                            .dwattr $C$DW$37, DW_AT_name("AesKey")
     512                            .dwattr $C$DW$37, DW_AT_TI_symbol_name("AesKey")
     513                            .dwattr $C$DW$37, DW_AT_type(*$C$DW$T$169)
     514                            .dwattr $C$DW$37, DW_AT_location[DW_OP_reg0]
     515                    
     516                    $C$DW$38        .dwtag  DW_TAG_formal_parameter
     517                            .dwattr $C$DW$38, DW_AT_name("Cstate")
     518                            .dwattr $C$DW$38, DW_AT_TI_symbol_name("Cstate")
     519                            .dwattr $C$DW$38, DW_AT_type(*$C$DW$T$169)
     520                            .dwattr $C$DW$38, DW_AT_location[DW_OP_reg1]
     521                    
     522                    
     523                    ;*****************************************************************************
     524                    ;* FUNCTION NAME: sspAesDecryptHW                                            *
     525                    ;*                                                                           *
     526                    ;*   Regs Modified     : A1,A2,A3,A4,V1,V9,SP,LR,SR                          *
     527                    ;*   Regs Used         : A1,A2,A3,A4,V1,V9,SP,LR,SR                          *
     528                    ;*   Local Frame Size  : 4 Args + 0 Auto + 8 Save = 12 byte                  *
     529                    ;*****************************************************************************
     530                    sspAesDecryptHW:
     531                    ;* --------------------------------------------------------------------------*
     532                    ;* A1    assigned to $O$C1
     533                    ;* V1    assigned to $O$C2
     534                    ;* A2    assigned to Cstate
     535                    $C$DW$39        .dwtag  DW_TAG_variable
     536                            .dwattr $C$DW$39, DW_AT_name("Cstate")
     537                            .dwattr $C$DW$39, DW_AT_TI_symbol_name("Cstate")
     538                            .dwattr $C$DW$39, DW_AT_type(*$C$DW$T$189)
     539                            .dwattr $C$DW$39, DW_AT_location[DW_OP_reg1]
     540                    
     541                            .dwcfi  cfa_offset, 0
     542 00000000 B51C              PUSH      {A3, A4, V1, LR}      ; [DPU_3_PIPE]  ; [ORIG 16-BIT INS]
     543                            .dwcfi  cfa_offset, 16
     544                            .dwcfi  save_reg_to_mem, 14, -4
     545                            .dwcfi  save_reg_to_mem, 4, -8
     546                            .dwcfi  save_reg_to_mem, 3, -12
     547                            .dwcfi  save_reg_to_mem, 2, -16
     548                            .dwpsn  file "../Application/MAC/HAL/target/hal_aes.c",line 174,column 3,is_stmt,isa 1
     549 00000002 2400              MOVS      V1, #0                ; [DPU_3_PIPE] |174|  ; [ORIG 16-BIT INS]
     550 00000004 4608              MOV       A1, A2                ; [DPU_3_PIPE] |174|  ; [ORIG 16-BIT INS]
TI ARM Assembler PC v16.9.8 Thu Nov 22 09:24:40 2018

Tools Copyright (c) 1996-2017 Texas Instruments Incorporated
C:\Users\Einstein\AppData\Local\Temp\{C719C61D-1508-48D8-97C8-A86DFC77D700} PAGE   11

     551 00000006 4622              MOV       A3, V1                ; [DPU_3_PIPE] |174|  ; [ORIG 16-BIT INS]
     552 00000008 9400              STR       V1, [SP, #0]          ; [DPU_3_PIPE] |174|  ; [ORIG 16-BIT INS]
     553 0000000a 4613              MOV       A4, A3                ; [DPU_3_PIPE] |174|  ; [ORIG 16-BIT INS]
     554                    $C$DW$40        .dwtag  DW_TAG_TI_branch
     555                            .dwattr $C$DW$40, DW_AT_low_pc(0x00)
     556                            .dwattr $C$DW$40, DW_AT_name("NOROM_CRYPTOAesEcb")
     557                            .dwattr $C$DW$40, DW_AT_TI_call
     558                    
     559 0000000c FFFEF7FF!         BL        NOROM_CRYPTOAesEcb    ; [DPU_3_PIPE] |174|  ; [KEEP 32-BIT INS]
     560                            ; CALL OCCURS {NOROM_CRYPTOAesEcb }  ; [] |174| 
     561                    ;* --------------------------------------------------------------------------*
     562                    ;*   BEGIN LOOP ||$C$L4||
     563                    ;*
     564                    ;*   Loop source line                : 177
     565                    ;*   Loop closing brace source line  : 180
     566                    ;*   Known Minimum Trip Count        : 1
     567                    ;*   Known Maximum Trip Count        : 4294967295
     568                    ;*   Known Max Trip Count Factor     : 1
     569                    ;* --------------------------------------------------------------------------*
     570 00000010           ||$C$L4||:    
     571 00000010 BF00       NOP ; [ORIG 16-BIT INS]
     572                            .dwpsn  file "../Application/MAC/HAL/target/hal_aes.c",line 177,column 3,is_stmt,isa 1
     573                    $C$DW$41        .dwtag  DW_TAG_TI_branch
     574                            .dwattr $C$DW$41, DW_AT_low_pc(0x00)
     575                            .dwattr $C$DW$41, DW_AT_name("NOROM_CRYPTOAesEcbStatus")
     576                            .dwattr $C$DW$41, DW_AT_TI_call
     577                    
     578 00000012 FFFEF7FF!         BL        NOROM_CRYPTOAesEcbStatus ; [DPU_3_PIPE] |177|  ; [KEEP 32-BIT INS]
     579                            ; CALL OCCURS {NOROM_CRYPTOAesEcbStatus }  ; [] |177| 
     580 00000016 2800              CMP       A1, #0                ; [DPU_3_PIPE] |177|  ; [ORIG 16-BIT INS]
     581 00000018 D1FA              BNE       ||$C$L4||             ; [DPU_3_PIPE] |177|  ; [ORIG 16-BIT INS]
     582                            ; BRANCHCC OCCURS {||$C$L4||}    ; [] |177| 
     583                    ;* --------------------------------------------------------------------------*
     584                            .dwpsn  file "C:/ti/simplelink_cc13x0_sdk_2_30_00_20/source/ti/devices/cc13x0/driverlib/crypto
     585 0000001a 4802              LDR       A1, $C$CON4           ; [DPU_3_PIPE] |356|  ; [ORIG 16-BIT INS]
     586 0000001c 41B0F8C0          STR       V1, [A1, #432]        ; [DPU_3_PIPE] |356|  ; [KEEP 32-BIT INS]
     587                            .dwpsn  file "C:/ti/simplelink_cc13x0_sdk_2_30_00_20/source/ti/devices/cc13x0/driverlib/crypto
     588 00000020 6004              STR       V1, [A1, #0]          ; [DPU_3_PIPE] |357|  ; [ORIG 16-BIT INS]
     589                    $C$DW$42        .dwtag  DW_TAG_TI_branch
     590                            .dwattr $C$DW$42, DW_AT_low_pc(0x00)
     591                            .dwattr $C$DW$42, DW_AT_TI_return
     592                    
     593 00000022 BD1C              POP       {A3, A4, V1, PC}      ; [DPU_3_PIPE]  ; [ORIG 16-BIT INS]
     594                            .dwcfi  cfa_offset, 0
     595                            .dwcfi  restore_reg, 4
     596                            .dwcfi  restore_reg, 3
     597                            .dwcfi  restore_reg, 2
     598                            ; BRANCH OCCURS                  ; [] 
     599                            .dwattr $C$DW$36, DW_AT_TI_end_file("../Application/MAC/HAL/target/hal_aes.c")
     600                            .dwattr $C$DW$36, DW_AT_TI_end_line(0xb7)
     601                            .dwattr $C$DW$36, DW_AT_TI_end_column(0x01)
     602                            .dwendentry
     603                            .dwendtag $C$DW$36
     604                    
     605 00000000                   .sect   ".text:HalAesInit"
TI ARM Assembler PC v16.9.8 Thu Nov 22 09:24:40 2018

Tools Copyright (c) 1996-2017 Texas Instruments Incorporated
C:\Users\Einstein\AppData\Local\Temp\{C719C61D-1508-48D8-97C8-A86DFC77D700} PAGE   12

     606                            .clink
     607                            .thumbfunc HalAesInit
     608 00000000                   .thumb
     609                            .global HalAesInit
     610                    
     611                    $C$DW$43        .dwtag  DW_TAG_subprogram
     612                            .dwattr $C$DW$43, DW_AT_name("HalAesInit")
     613                            .dwattr $C$DW$43, DW_AT_low_pc(HalAesInit)
     614                            .dwattr $C$DW$43, DW_AT_high_pc(0x00)
     615                            .dwattr $C$DW$43, DW_AT_TI_symbol_name("HalAesInit")
     616                            .dwattr $C$DW$43, DW_AT_external
     617                            .dwattr $C$DW$43, DW_AT_TI_begin_file("../Application/MAC/HAL/target/hal_aes.c")
     618                            .dwattr $C$DW$43, DW_AT_TI_begin_line(0x5b)
     619                            .dwattr $C$DW$43, DW_AT_TI_begin_column(0x06)
     620                            .dwattr $C$DW$43, DW_AT_decl_file("../Application/MAC/HAL/target/hal_aes.c")
     621                            .dwattr $C$DW$43, DW_AT_decl_line(0x5b)
     622                            .dwattr $C$DW$43, DW_AT_decl_column(0x06)
     623                            .dwattr $C$DW$43, DW_AT_TI_max_frame_size(0x00)
     624                            .dwpsn  file "../Application/MAC/HAL/target/hal_aes.c",line 92,column 1,is_stmt,address HalAes
     625                    
     626                            .dwfde $C$DW$CIE, HalAesInit
     627                    
     628                    ;*****************************************************************************
     629                    ;* FUNCTION NAME: HalAesInit                                                 *
     630                    ;*                                                                           *
     631                    ;*   Regs Modified     : A1,A2                                               *
     632                    ;*   Regs Used         : A1,A2,LR                                            *
     633                    ;*   Local Frame Size  : 0 Args + 0 Auto + 0 Save = 0 byte                   *
     634                    ;*****************************************************************************
     635 00000000           HalAesInit:
     636                    ;* --------------------------------------------------------------------------*
     637                    ;* A1    assigned to $O$C1
     638                            .dwcfi  cfa_offset, 0
     639                            .dwpsn  file "../Application/MAC/HAL/target/hal_aes.c",line 93,column 3,is_stmt,isa 1
     640 00000000 4804              LDR       A1, $C$CON5           ; [DPU_3_PIPE] |93|  ; [ORIG 16-BIT INS]
     641 00000002 6801              LDR       A2, [A1, #0]          ; [DPU_3_PIPE] |93|  ; [ORIG 16-BIT INS]
     642 00000004 0101F041          ORR       A2, A2, #1            ; [DPU_3_PIPE] |93|  ; [KEEP 32-BIT INS]
     643 00000008 6001              STR       A2, [A1, #0]          ; [DPU_3_PIPE] |93|  ; [ORIG 16-BIT INS]
     644                            .dwpsn  file "../Application/MAC/HAL/target/hal_aes.c",line 94,column 3,is_stmt,isa 1
     645 0000000a 6841              LDR       A2, [A1, #4]          ; [DPU_3_PIPE] |94|  ; [ORIG 16-BIT INS]
     646 0000000c 0103F041          ORR       A2, A2, #3            ; [DPU_3_PIPE] |94|  ; [KEEP 32-BIT INS]
     647 00000010 6041              STR       A2, [A1, #4]          ; [DPU_3_PIPE] |94|  ; [ORIG 16-BIT INS]
     648                    $C$DW$44        .dwtag  DW_TAG_TI_branch
     649                            .dwattr $C$DW$44, DW_AT_low_pc(0x00)
     650                            .dwattr $C$DW$44, DW_AT_TI_return
     651                    
     652 00000012 4770              BX        LR                    ; [DPU_3_PIPE]  ; [ORIG 16-BIT INS]
     653                            ; BRANCH OCCURS                  ; [] 
     654                            .dwattr $C$DW$43, DW_AT_TI_end_file("../Application/MAC/HAL/target/hal_aes.c")
     655                            .dwattr $C$DW$43, DW_AT_TI_end_line(0x5f)
     656                            .dwattr $C$DW$43, DW_AT_TI_end_column(0x01)
     657                            .dwendentry
     658                            .dwendtag $C$DW$43
     659                    
     660                    ;******************************************************************************
TI ARM Assembler PC v16.9.8 Thu Nov 22 09:24:40 2018

Tools Copyright (c) 1996-2017 Texas Instruments Incorporated
C:\Users\Einstein\AppData\Local\Temp\{C719C61D-1508-48D8-97C8-A86DFC77D700} PAGE   13

     661                    ;* CONSTANT TABLE                                                             *
     662                    ;******************************************************************************
     663 00000020                   .sect   ".text:sspAesEncryptHW_keylocation"
     664                            .align  4
     665 00000020 40024550  ||$C$CON1||:    .bits   1073890640,32
     666                    ;******************************************************************************
     667                    ;* CONSTANT TABLE                                                             *
     668                    ;******************************************************************************
     669 00000024                   .sect   ".text:sspAesEncryptHW"
     670                            .align  4
     671 00000024 40024550  ||$C$CON2||:    .bits   1073890640,32
     672                    ;******************************************************************************
     673                    ;* CONSTANT TABLE                                                             *
     674                    ;******************************************************************************
     675 00000020                   .sect   ".text:sspAesDecryptHW_keylocation"
     676                            .align  4
     677 00000020 40024550  ||$C$CON3||:    .bits   1073890640,32
     678                    ;******************************************************************************
     679                    ;* CONSTANT TABLE                                                             *
     680                    ;******************************************************************************
     681 00000024                   .sect   ".text:sspAesDecryptHW"
     682                            .align  4
     683 00000024 40024550  ||$C$CON4||:    .bits   1073890640,32
     684                    ;******************************************************************************
     685                    ;* CONSTANT TABLE                                                             *
     686                    ;******************************************************************************
     687 00000014                   .sect   ".text:HalAesInit"
     688                            .align  4
     689 00000014 40024780  ||$C$CON5||:    .bits   1073891200,32
     690                    ;*****************************************************************************
     691                    ;* UNDEFINED EXTERNAL REFERENCES                                             *
     692                    ;*****************************************************************************
     693                            .global NOROM_CRYPTOAesLoadKey
     694                            .global NOROM_CRYPTOAesEcb
     695                            .global NOROM_CRYPTOAesEcbStatus
     696                    
     697                    ;******************************************************************************
     698                    ;* BUILD ATTRIBUTES                                                           *
     699                    ;******************************************************************************
     700                            .battr "aeabi", Tag_File, 1, Tag_ABI_PCS_wchar_t(2)
     701                            .battr "aeabi", Tag_File, 1, Tag_ABI_FP_rounding(0)
     702                            .battr "aeabi", Tag_File, 1, Tag_ABI_FP_denormal(0)
     703                            .battr "aeabi", Tag_File, 1, Tag_ABI_FP_exceptions(0)
     704                            .battr "aeabi", Tag_File, 1, Tag_ABI_FP_number_model(1)
     705                            .battr "aeabi", Tag_File, 1, Tag_ABI_enum_size(1)
     706                            .battr "aeabi", Tag_File, 1, Tag_ABI_optimization_goals(0)
     707                            .battr "aeabi", Tag_File, 1, Tag_ABI_FP_optimization_goals(0)
     708                            .battr "TI", Tag_File, 1, Tag_Bitfield_layout(2)
     709                            .battr "aeabi", Tag_File, 1, Tag_ABI_VFP_args(3)
     710                            .battr "TI", Tag_File, 1, Tag_FP_interface(1)
     711                    
     712                    ;******************************************************************************
     713                    ;* TYPE INFORMATION                                                           *
     714                    ;******************************************************************************
     715                    
TI ARM Assembler PC v16.9.8 Thu Nov 22 09:24:40 2018

Tools Copyright (c) 1996-2017 Texas Instruments Incorporated
C:\Users\Einstein\AppData\Local\Temp\{C719C61D-1508-48D8-97C8-A86DFC77D700} PAGE   14

     716                    $C$DW$T$154     .dwtag  DW_TAG_enumeration_type
     717                            .dwattr $C$DW$T$154, DW_AT_byte_size(0x01)
     718                    $C$DW$45        .dwtag  DW_TAG_enumerator
     719                            .dwattr $C$DW$45, DW_AT_name("FAPI_PROGRAM_DATA")
     720                            .dwattr $C$DW$45, DW_AT_const_value(0x02)
     721                            .dwattr $C$DW$45, DW_AT_decl_file("C:/ti/simplelink_cc13x0_sdk_2_30_00_20/source/ti/devices/cc
     722                            .dwattr $C$DW$45, DW_AT_decl_line(0xa6)
     723                            .dwattr $C$DW$45, DW_AT_decl_column(0x05)
     724                    
     725                    $C$DW$46        .dwtag  DW_TAG_enumerator
     726                            .dwattr $C$DW$46, DW_AT_name("FAPI_ERASE_SECTOR")
     727                            .dwattr $C$DW$46, DW_AT_const_value(0x06)
     728                            .dwattr $C$DW$46, DW_AT_decl_file("C:/ti/simplelink_cc13x0_sdk_2_30_00_20/source/ti/devices/cc
     729                            .dwattr $C$DW$46, DW_AT_decl_line(0xa7)
     730                            .dwattr $C$DW$46, DW_AT_decl_column(0x05)
     731                    
     732                    $C$DW$47        .dwtag  DW_TAG_enumerator
     733                            .dwattr $C$DW$47, DW_AT_name("FAPI_ERASE_BANK")
     734                            .dwattr $C$DW$47, DW_AT_const_value(0x08)
     735                            .dwattr $C$DW$47, DW_AT_decl_file("C:/ti/simplelink_cc13x0_sdk_2_30_00_20/source/ti/devices/cc
     736                            .dwattr $C$DW$47, DW_AT_decl_line(0xa8)
     737                            .dwattr $C$DW$47, DW_AT_decl_column(0x05)
     738                    
     739                    $C$DW$48        .dwtag  DW_TAG_enumerator
     740                            .dwattr $C$DW$48, DW_AT_name("FAPI_VALIDATE_SECTOR")
     741                            .dwattr $C$DW$48, DW_AT_const_value(0x0e)
     742                            .dwattr $C$DW$48, DW_AT_decl_file("C:/ti/simplelink_cc13x0_sdk_2_30_00_20/source/ti/devices/cc
     743                            .dwattr $C$DW$48, DW_AT_decl_line(0xa9)
     744                            .dwattr $C$DW$48, DW_AT_decl_column(0x05)
     745                    
     746                    $C$DW$49        .dwtag  DW_TAG_enumerator
     747                            .dwattr $C$DW$49, DW_AT_name("FAPI_CLEAR_STATUS")
     748                            .dwattr $C$DW$49, DW_AT_const_value(0x10)
     749                            .dwattr $C$DW$49, DW_AT_decl_file("C:/ti/simplelink_cc13x0_sdk_2_30_00_20/source/ti/devices/cc
     750                            .dwattr $C$DW$49, DW_AT_decl_line(0xaa)
     751                            .dwattr $C$DW$49, DW_AT_decl_column(0x05)
     752                    
     753                    $C$DW$50        .dwtag  DW_TAG_enumerator
     754                            .dwattr $C$DW$50, DW_AT_name("FAPI_PROGRAM_RESUME")
     755                            .dwattr $C$DW$50, DW_AT_const_value(0x14)
     756                            .dwattr $C$DW$50, DW_AT_decl_file("C:/ti/simplelink_cc13x0_sdk_2_30_00_20/source/ti/devices/cc
     757                            .dwattr $C$DW$50, DW_AT_decl_line(0xab)
     758                            .dwattr $C$DW$50, DW_AT_decl_column(0x05)
     759                    
     760                    $C$DW$51        .dwtag  DW_TAG_enumerator
     761                            .dwattr $C$DW$51, DW_AT_name("FAPI_ERASE_RESUME")
     762                            .dwattr $C$DW$51, DW_AT_const_value(0x16)
     763                            .dwattr $C$DW$51, DW_AT_decl_file("C:/ti/simplelink_cc13x0_sdk_2_30_00_20/source/ti/devices/cc
     764                            .dwattr $C$DW$51, DW_AT_decl_line(0xac)
     765                            .dwattr $C$DW$51, DW_AT_decl_column(0x05)
     766                    
     767                    $C$DW$52        .dwtag  DW_TAG_enumerator
     768                            .dwattr $C$DW$52, DW_AT_name("FAPI_CLEAR_MORE")
     769                            .dwattr $C$DW$52, DW_AT_const_value(0x18)
     770                            .dwattr $C$DW$52, DW_AT_decl_file("C:/ti/simplelink_cc13x0_sdk_2_30_00_20/source/ti/devices/cc
TI ARM Assembler PC v16.9.8 Thu Nov 22 09:24:40 2018

Tools Copyright (c) 1996-2017 Texas Instruments Incorporated
C:\Users\Einstein\AppData\Local\Temp\{C719C61D-1508-48D8-97C8-A86DFC77D700} PAGE   15

     771                            .dwattr $C$DW$52, DW_AT_decl_line(0xad)
     772                            .dwattr $C$DW$52, DW_AT_decl_column(0x05)
     773                    
     774                    $C$DW$53        .dwtag  DW_TAG_enumerator
     775                            .dwattr $C$DW$53, DW_AT_name("FAPI_PROGRAM_SECTOR")
     776                            .dwattr $C$DW$53, DW_AT_const_value(0x20)
     777                            .dwattr $C$DW$53, DW_AT_decl_file("C:/ti/simplelink_cc13x0_sdk_2_30_00_20/source/ti/devices/cc
     778                            .dwattr $C$DW$53, DW_AT_decl_line(0xae)
     779                            .dwattr $C$DW$53, DW_AT_decl_column(0x05)
     780                    
     781                    $C$DW$54        .dwtag  DW_TAG_enumerator
     782                            .dwattr $C$DW$54, DW_AT_name("FAPI_ERASE_OTP")
     783                            .dwattr $C$DW$54, DW_AT_const_value(0x30)
     784                            .dwattr $C$DW$54, DW_AT_decl_file("C:/ti/simplelink_cc13x0_sdk_2_30_00_20/source/ti/devices/cc
     785                            .dwattr $C$DW$54, DW_AT_decl_line(0xaf)
     786                            .dwattr $C$DW$54, DW_AT_decl_column(0x05)
     787                    
     788                            .dwattr $C$DW$T$154, DW_AT_decl_file("C:/ti/simplelink_cc13x0_sdk_2_30_00_20/source/ti/devices
     789                            .dwattr $C$DW$T$154, DW_AT_decl_line(0xa5)
     790                            .dwattr $C$DW$T$154, DW_AT_decl_column(0x01)
     791                            .dwendtag $C$DW$T$154
     792                    
     793                    $C$DW$T$155     .dwtag  DW_TAG_typedef
     794                            .dwattr $C$DW$T$155, DW_AT_name("tFlashStateCommandsType")
     795                            .dwattr $C$DW$T$155, DW_AT_type(*$C$DW$T$154)
     796                            .dwattr $C$DW$T$155, DW_AT_language(DW_LANG_C)
     797                            .dwattr $C$DW$T$155, DW_AT_decl_file("C:/ti/simplelink_cc13x0_sdk_2_30_00_20/source/ti/devices
     798                            .dwattr $C$DW$T$155, DW_AT_decl_line(0xb0)
     799                            .dwattr $C$DW$T$155, DW_AT_decl_column(0x03)
     800                    
     801                    
     802                    $C$DW$T$156     .dwtag  DW_TAG_enumeration_type
     803                            .dwattr $C$DW$T$156, DW_AT_byte_size(0x01)
     804                    $C$DW$55        .dwtag  DW_TAG_enumerator
     805                            .dwattr $C$DW$55, DW_AT_name("ICALL_RTI_APP_CMD_EVENT")
     806                            .dwattr $C$DW$55, DW_AT_const_value(0xe0)
     807                            .dwattr $C$DW$55, DW_AT_decl_file("C:/ti/simplelink_cc13x0_sdk_2_30_00_20/source/ti/ti154stack
     808                            .dwattr $C$DW$55, DW_AT_decl_line(0x3de)
     809                            .dwattr $C$DW$55, DW_AT_decl_column(0x04)
     810                    
     811                    $C$DW$56        .dwtag  DW_TAG_enumerator
     812                            .dwattr $C$DW$56, DW_AT_name("ICALL_RTI_STACK_CMD_EVENT")
     813                            .dwattr $C$DW$56, DW_AT_const_value(0xe1)
     814                            .dwattr $C$DW$56, DW_AT_decl_file("C:/ti/simplelink_cc13x0_sdk_2_30_00_20/source/ti/ti154stack
     815                            .dwattr $C$DW$56, DW_AT_decl_line(0x3e0)
     816                            .dwattr $C$DW$56, DW_AT_decl_column(0x04)
     817                    
     818                    $C$DW$57        .dwtag  DW_TAG_enumerator
     819                            .dwattr $C$DW$57, DW_AT_name("ICALL_RTI_APP_ASYNC_CMD_EVENT")
     820                            .dwattr $C$DW$57, DW_AT_const_value(0xe2)
     821                            .dwattr $C$DW$57, DW_AT_decl_file("C:/ti/simplelink_cc13x0_sdk_2_30_00_20/source/ti/ti154stack
     822                            .dwattr $C$DW$57, DW_AT_decl_line(0x3e2)
     823                            .dwattr $C$DW$57, DW_AT_decl_column(0x04)
     824                    
     825                    $C$DW$58        .dwtag  DW_TAG_enumerator
TI ARM Assembler PC v16.9.8 Thu Nov 22 09:24:40 2018

Tools Copyright (c) 1996-2017 Texas Instruments Incorporated
C:\Users\Einstein\AppData\Local\Temp\{C719C61D-1508-48D8-97C8-A86DFC77D700} PAGE   16

     826                            .dwattr $C$DW$58, DW_AT_name("ICALL_RTI_APP_SYNC_CMD_EVENT")
     827                            .dwattr $C$DW$58, DW_AT_const_value(0xe3)
     828                            .dwattr $C$DW$58, DW_AT_decl_file("C:/ti/simplelink_cc13x0_sdk_2_30_00_20/source/ti/ti154stack
     829                            .dwattr $C$DW$58, DW_AT_decl_line(0x3e4)
     830                            .dwattr $C$DW$58, DW_AT_decl_column(0x04)
     831                    
     832                    $C$DW$59        .dwtag  DW_TAG_enumerator
     833                            .dwattr $C$DW$59, DW_AT_name("ICALL_RCN_APP_ASYNC_CMD_EVENT")
     834                            .dwattr $C$DW$59, DW_AT_const_value(0xe4)
     835                            .dwattr $C$DW$59, DW_AT_decl_file("C:/ti/simplelink_cc13x0_sdk_2_30_00_20/source/ti/ti154stack
     836                            .dwattr $C$DW$59, DW_AT_decl_line(0x3e6)
     837                            .dwattr $C$DW$59, DW_AT_decl_column(0x04)
     838                    
     839                    $C$DW$60        .dwtag  DW_TAG_enumerator
     840                            .dwattr $C$DW$60, DW_AT_name("ICALL_RCN_APP_SYNC_CMD_EVENT")
     841                            .dwattr $C$DW$60, DW_AT_const_value(0xe5)
     842                            .dwattr $C$DW$60, DW_AT_decl_file("C:/ti/simplelink_cc13x0_sdk_2_30_00_20/source/ti/ti154stack
     843                            .dwattr $C$DW$60, DW_AT_decl_line(0x3e8)
     844                            .dwattr $C$DW$60, DW_AT_decl_column(0x04)
     845                    
     846                            .dwattr $C$DW$T$156, DW_AT_decl_file("C:/ti/simplelink_cc13x0_sdk_2_30_00_20/source/ti/ti154st
     847                            .dwattr $C$DW$T$156, DW_AT_decl_line(0x3dc)
     848                            .dwattr $C$DW$T$156, DW_AT_decl_column(0x01)
     849                            .dwendtag $C$DW$T$156
     850                    
     851                    $C$DW$T$157     .dwtag  DW_TAG_typedef
     852                            .dwattr $C$DW$T$157, DW_AT_name("ICall_RemotiCmdEvent_t")
     853                            .dwattr $C$DW$T$157, DW_AT_type(*$C$DW$T$156)
     854                            .dwattr $C$DW$T$157, DW_AT_language(DW_LANG_C)
     855                            .dwattr $C$DW$T$157, DW_AT_decl_file("C:/ti/simplelink_cc13x0_sdk_2_30_00_20/source/ti/ti154st
     856                            .dwattr $C$DW$T$157, DW_AT_decl_line(0x3e9)
     857                            .dwattr $C$DW$T$157, DW_AT_decl_column(0x02)
     858                    
     859                    
     860                    $C$DW$T$60      .dwtag  DW_TAG_structure_type
     861                            .dwattr $C$DW$T$60, DW_AT_byte_size(0x4c)
     862                    $C$DW$61        .dwtag  DW_TAG_member
     863                            .dwattr $C$DW$61, DW_AT_type(*$C$DW$T$24)
     864                            .dwattr $C$DW$61, DW_AT_name("Crc32")
     865                            .dwattr $C$DW$61, DW_AT_TI_symbol_name("Crc32")
     866                            .dwattr $C$DW$61, DW_AT_data_member_location[DW_OP_plus_uconst 0x0]
     867                            .dwattr $C$DW$61, DW_AT_accessibility(DW_ACCESS_public)
     868                            .dwattr $C$DW$61, DW_AT_decl_file("C:\ti\simplelink_cc13x0_sdk_2_30_00_20\source\ti\devices\cc
     869                            .dwattr $C$DW$61, DW_AT_decl_line(0x76)
     870                            .dwattr $C$DW$61, DW_AT_decl_column(0x25)
     871                    
     872                    $C$DW$62        .dwtag  DW_TAG_member
     873                            .dwattr $C$DW$62, DW_AT_type(*$C$DW$T$27)
     874                            .dwattr $C$DW$62, DW_AT_name("FlashGetSize")
     875                            .dwattr $C$DW$62, DW_AT_TI_symbol_name("FlashGetSize")
     876                            .dwattr $C$DW$62, DW_AT_data_member_location[DW_OP_plus_uconst 0x4]
     877                            .dwattr $C$DW$62, DW_AT_accessibility(DW_ACCESS_public)
     878                            .dwattr $C$DW$62, DW_AT_decl_file("C:\ti\simplelink_cc13x0_sdk_2_30_00_20\source\ti\devices\cc
     879                            .dwattr $C$DW$62, DW_AT_decl_line(0x77)
     880                            .dwattr $C$DW$62, DW_AT_decl_column(0x25)
TI ARM Assembler PC v16.9.8 Thu Nov 22 09:24:40 2018

Tools Copyright (c) 1996-2017 Texas Instruments Incorporated
C:\Users\Einstein\AppData\Local\Temp\{C719C61D-1508-48D8-97C8-A86DFC77D700} PAGE   17

     881                    
     882                    $C$DW$63        .dwtag  DW_TAG_member
     883                            .dwattr $C$DW$63, DW_AT_type(*$C$DW$T$28)
     884                            .dwattr $C$DW$63, DW_AT_name("GetChipId")
     885                            .dwattr $C$DW$63, DW_AT_TI_symbol_name("GetChipId")
     886                            .dwattr $C$DW$63, DW_AT_data_member_location[DW_OP_plus_uconst 0x8]
     887                            .dwattr $C$DW$63, DW_AT_accessibility(DW_ACCESS_public)
     888                            .dwattr $C$DW$63, DW_AT_decl_file("C:\ti\simplelink_cc13x0_sdk_2_30_00_20\source\ti\devices\cc
     889                            .dwattr $C$DW$63, DW_AT_decl_line(0x78)
     890                            .dwattr $C$DW$63, DW_AT_decl_column(0x25)
     891                    
     892                    $C$DW$64        .dwtag  DW_TAG_member
     893                            .dwattr $C$DW$64, DW_AT_type(*$C$DW$T$31)
     894                            .dwattr $C$DW$64, DW_AT_name("ReservedLocation1")
     895                            .dwattr $C$DW$64, DW_AT_TI_symbol_name("ReservedLocation1")
     896                            .dwattr $C$DW$64, DW_AT_data_member_location[DW_OP_plus_uconst 0xc]
     897                            .dwattr $C$DW$64, DW_AT_accessibility(DW_ACCESS_public)
     898                            .dwattr $C$DW$64, DW_AT_decl_file("C:\ti\simplelink_cc13x0_sdk_2_30_00_20\source\ti\devices\cc
     899                            .dwattr $C$DW$64, DW_AT_decl_line(0x79)
     900                            .dwattr $C$DW$64, DW_AT_decl_column(0x25)
     901                    
     902                    $C$DW$65        .dwtag  DW_TAG_member
     903                            .dwattr $C$DW$65, DW_AT_type(*$C$DW$T$32)
     904                            .dwattr $C$DW$65, DW_AT_name("ReservedLocation2")
     905                            .dwattr $C$DW$65, DW_AT_TI_symbol_name("ReservedLocation2")
     906                            .dwattr $C$DW$65, DW_AT_data_member_location[DW_OP_plus_uconst 0x10]
     907                            .dwattr $C$DW$65, DW_AT_accessibility(DW_ACCESS_public)
     908                            .dwattr $C$DW$65, DW_AT_decl_file("C:\ti\simplelink_cc13x0_sdk_2_30_00_20\source\ti\devices\cc
     909                            .dwattr $C$DW$65, DW_AT_decl_line(0x7a)
     910                            .dwattr $C$DW$65, DW_AT_decl_column(0x25)
     911                    
     912                    $C$DW$66        .dwtag  DW_TAG_member
     913                            .dwattr $C$DW$66, DW_AT_type(*$C$DW$T$33)
     914                            .dwattr $C$DW$66, DW_AT_name("ReservedLocation3")
     915                            .dwattr $C$DW$66, DW_AT_TI_symbol_name("ReservedLocation3")
     916                            .dwattr $C$DW$66, DW_AT_data_member_location[DW_OP_plus_uconst 0x14]
     917                            .dwattr $C$DW$66, DW_AT_accessibility(DW_ACCESS_public)
     918                            .dwattr $C$DW$66, DW_AT_decl_file("C:\ti\simplelink_cc13x0_sdk_2_30_00_20\source\ti\devices\cc
     919                            .dwattr $C$DW$66, DW_AT_decl_line(0x7b)
     920                            .dwattr $C$DW$66, DW_AT_decl_column(0x25)
     921                    
     922                    $C$DW$67        .dwtag  DW_TAG_member
     923                            .dwattr $C$DW$67, DW_AT_type(*$C$DW$T$36)
     924                            .dwattr $C$DW$67, DW_AT_name("ResetDevice")
     925                            .dwattr $C$DW$67, DW_AT_TI_symbol_name("ResetDevice")
     926                            .dwattr $C$DW$67, DW_AT_data_member_location[DW_OP_plus_uconst 0x18]
     927                            .dwattr $C$DW$67, DW_AT_accessibility(DW_ACCESS_public)
     928                            .dwattr $C$DW$67, DW_AT_decl_file("C:\ti\simplelink_cc13x0_sdk_2_30_00_20\source\ti\devices\cc
     929                            .dwattr $C$DW$67, DW_AT_decl_line(0x7c)
     930                            .dwattr $C$DW$67, DW_AT_decl_column(0x25)
     931                    
     932                    $C$DW$68        .dwtag  DW_TAG_member
     933                            .dwattr $C$DW$68, DW_AT_type(*$C$DW$T$41)
     934                            .dwattr $C$DW$68, DW_AT_name("Fletcher32")
     935                            .dwattr $C$DW$68, DW_AT_TI_symbol_name("Fletcher32")
TI ARM Assembler PC v16.9.8 Thu Nov 22 09:24:40 2018

Tools Copyright (c) 1996-2017 Texas Instruments Incorporated
C:\Users\Einstein\AppData\Local\Temp\{C719C61D-1508-48D8-97C8-A86DFC77D700} PAGE   18

     936                            .dwattr $C$DW$68, DW_AT_data_member_location[DW_OP_plus_uconst 0x1c]
     937                            .dwattr $C$DW$68, DW_AT_accessibility(DW_ACCESS_public)
     938                            .dwattr $C$DW$68, DW_AT_decl_file("C:\ti\simplelink_cc13x0_sdk_2_30_00_20\source\ti\devices\cc
     939                            .dwattr $C$DW$68, DW_AT_decl_line(0x7d)
     940                            .dwattr $C$DW$68, DW_AT_decl_column(0x25)
     941                    
     942                    $C$DW$69        .dwtag  DW_TAG_member
     943                            .dwattr $C$DW$69, DW_AT_type(*$C$DW$T$45)
     944                            .dwattr $C$DW$69, DW_AT_name("MinValue")
     945                            .dwattr $C$DW$69, DW_AT_TI_symbol_name("MinValue")
     946                            .dwattr $C$DW$69, DW_AT_data_member_location[DW_OP_plus_uconst 0x20]
     947                            .dwattr $C$DW$69, DW_AT_accessibility(DW_ACCESS_public)
     948                            .dwattr $C$DW$69, DW_AT_decl_file("C:\ti\simplelink_cc13x0_sdk_2_30_00_20\source\ti\devices\cc
     949                            .dwattr $C$DW$69, DW_AT_decl_line(0x7e)
     950                            .dwattr $C$DW$69, DW_AT_decl_column(0x25)
     951                    
     952                    $C$DW$70        .dwtag  DW_TAG_member
     953                            .dwattr $C$DW$70, DW_AT_type(*$C$DW$T$46)
     954                            .dwattr $C$DW$70, DW_AT_name("MaxValue")
     955                            .dwattr $C$DW$70, DW_AT_TI_symbol_name("MaxValue")
     956                            .dwattr $C$DW$70, DW_AT_data_member_location[DW_OP_plus_uconst 0x24]
     957                            .dwattr $C$DW$70, DW_AT_accessibility(DW_ACCESS_public)
     958                            .dwattr $C$DW$70, DW_AT_decl_file("C:\ti\simplelink_cc13x0_sdk_2_30_00_20\source\ti\devices\cc
     959                            .dwattr $C$DW$70, DW_AT_decl_line(0x7f)
     960                            .dwattr $C$DW$70, DW_AT_decl_column(0x25)
     961                    
     962                    $C$DW$71        .dwtag  DW_TAG_member
     963                            .dwattr $C$DW$71, DW_AT_type(*$C$DW$T$47)
     964                            .dwattr $C$DW$71, DW_AT_name("MeanValue")
     965                            .dwattr $C$DW$71, DW_AT_TI_symbol_name("MeanValue")
     966                            .dwattr $C$DW$71, DW_AT_data_member_location[DW_OP_plus_uconst 0x28]
     967                            .dwattr $C$DW$71, DW_AT_accessibility(DW_ACCESS_public)
     968                            .dwattr $C$DW$71, DW_AT_decl_file("C:\ti\simplelink_cc13x0_sdk_2_30_00_20\source\ti\devices\cc
     969                            .dwattr $C$DW$71, DW_AT_decl_line(0x80)
     970                            .dwattr $C$DW$71, DW_AT_decl_column(0x25)
     971                    
     972                    $C$DW$72        .dwtag  DW_TAG_member
     973                            .dwattr $C$DW$72, DW_AT_type(*$C$DW$T$48)
     974                            .dwattr $C$DW$72, DW_AT_name("StandDeviationValue")
     975                            .dwattr $C$DW$72, DW_AT_TI_symbol_name("StandDeviationValue")
     976                            .dwattr $C$DW$72, DW_AT_data_member_location[DW_OP_plus_uconst 0x2c]
     977                            .dwattr $C$DW$72, DW_AT_accessibility(DW_ACCESS_public)
     978                            .dwattr $C$DW$72, DW_AT_decl_file("C:\ti\simplelink_cc13x0_sdk_2_30_00_20\source\ti\devices\cc
     979                            .dwattr $C$DW$72, DW_AT_decl_line(0x81)
     980                            .dwattr $C$DW$72, DW_AT_decl_column(0x25)
     981                    
     982                    $C$DW$73        .dwtag  DW_TAG_member
     983                            .dwattr $C$DW$73, DW_AT_type(*$C$DW$T$51)
     984                            .dwattr $C$DW$73, DW_AT_name("ReservedLocation4")
     985                            .dwattr $C$DW$73, DW_AT_TI_symbol_name("ReservedLocation4")
     986                            .dwattr $C$DW$73, DW_AT_data_member_location[DW_OP_plus_uconst 0x30]
     987                            .dwattr $C$DW$73, DW_AT_accessibility(DW_ACCESS_public)
     988                            .dwattr $C$DW$73, DW_AT_decl_file("C:\ti\simplelink_cc13x0_sdk_2_30_00_20\source\ti\devices\cc
     989                            .dwattr $C$DW$73, DW_AT_decl_line(0x82)
     990                            .dwattr $C$DW$73, DW_AT_decl_column(0x25)
TI ARM Assembler PC v16.9.8 Thu Nov 22 09:24:40 2018

Tools Copyright (c) 1996-2017 Texas Instruments Incorporated
C:\Users\Einstein\AppData\Local\Temp\{C719C61D-1508-48D8-97C8-A86DFC77D700} PAGE   19

     991                    
     992                    $C$DW$74        .dwtag  DW_TAG_member
     993                            .dwattr $C$DW$74, DW_AT_type(*$C$DW$T$52)
     994                            .dwattr $C$DW$74, DW_AT_name("ReservedLocation5")
     995                            .dwattr $C$DW$74, DW_AT_TI_symbol_name("ReservedLocation5")
     996                            .dwattr $C$DW$74, DW_AT_data_member_location[DW_OP_plus_uconst 0x34]
     997                            .dwattr $C$DW$74, DW_AT_accessibility(DW_ACCESS_public)
     998                            .dwattr $C$DW$74, DW_AT_decl_file("C:\ti\simplelink_cc13x0_sdk_2_30_00_20\source\ti\devices\cc
     999                            .dwattr $C$DW$74, DW_AT_decl_line(0x83)
    1000                            .dwattr $C$DW$74, DW_AT_decl_column(0x25)
    1001                    
    1002                    $C$DW$75        .dwtag  DW_TAG_member
    1003                            .dwattr $C$DW$75, DW_AT_type(*$C$DW$T$53)
    1004                            .dwattr $C$DW$75, DW_AT_name("HFSourceSafeSwitch")
    1005                            .dwattr $C$DW$75, DW_AT_TI_symbol_name("HFSourceSafeSwitch")
    1006                            .dwattr $C$DW$75, DW_AT_data_member_location[DW_OP_plus_uconst 0x38]
    1007                            .dwattr $C$DW$75, DW_AT_accessibility(DW_ACCESS_public)
    1008                            .dwattr $C$DW$75, DW_AT_decl_file("C:\ti\simplelink_cc13x0_sdk_2_30_00_20\source\ti\devices\cc
    1009                            .dwattr $C$DW$75, DW_AT_decl_line(0x84)
    1010                            .dwattr $C$DW$75, DW_AT_decl_column(0x25)
    1011                    
    1012                    $C$DW$76        .dwtag  DW_TAG_member
    1013                            .dwattr $C$DW$76, DW_AT_type(*$C$DW$T$56)
    1014                            .dwattr $C$DW$76, DW_AT_name("SelectCompAInput")
    1015                            .dwattr $C$DW$76, DW_AT_TI_symbol_name("SelectCompAInput")
    1016                            .dwattr $C$DW$76, DW_AT_data_member_location[DW_OP_plus_uconst 0x3c]
    1017                            .dwattr $C$DW$76, DW_AT_accessibility(DW_ACCESS_public)
    1018                            .dwattr $C$DW$76, DW_AT_decl_file("C:\ti\simplelink_cc13x0_sdk_2_30_00_20\source\ti\devices\cc
    1019                            .dwattr $C$DW$76, DW_AT_decl_line(0x85)
    1020                            .dwattr $C$DW$76, DW_AT_decl_column(0x25)
    1021                    
    1022                    $C$DW$77        .dwtag  DW_TAG_member
    1023                            .dwattr $C$DW$77, DW_AT_type(*$C$DW$T$57)
    1024                            .dwattr $C$DW$77, DW_AT_name("SelectCompARef")
    1025                            .dwattr $C$DW$77, DW_AT_TI_symbol_name("SelectCompARef")
    1026                            .dwattr $C$DW$77, DW_AT_data_member_location[DW_OP_plus_uconst 0x40]
    1027                            .dwattr $C$DW$77, DW_AT_accessibility(DW_ACCESS_public)
    1028                            .dwattr $C$DW$77, DW_AT_decl_file("C:\ti\simplelink_cc13x0_sdk_2_30_00_20\source\ti\devices\cc
    1029                            .dwattr $C$DW$77, DW_AT_decl_line(0x86)
    1030                            .dwattr $C$DW$77, DW_AT_decl_column(0x25)
    1031                    
    1032                    $C$DW$78        .dwtag  DW_TAG_member
    1033                            .dwattr $C$DW$78, DW_AT_type(*$C$DW$T$58)
    1034                            .dwattr $C$DW$78, DW_AT_name("SelectADCCompBInput")
    1035                            .dwattr $C$DW$78, DW_AT_TI_symbol_name("SelectADCCompBInput")
    1036                            .dwattr $C$DW$78, DW_AT_data_member_location[DW_OP_plus_uconst 0x44]
    1037                            .dwattr $C$DW$78, DW_AT_accessibility(DW_ACCESS_public)
    1038                            .dwattr $C$DW$78, DW_AT_decl_file("C:\ti\simplelink_cc13x0_sdk_2_30_00_20\source\ti\devices\cc
    1039                            .dwattr $C$DW$78, DW_AT_decl_line(0x87)
    1040                            .dwattr $C$DW$78, DW_AT_decl_column(0x25)
    1041                    
    1042                    $C$DW$79        .dwtag  DW_TAG_member
    1043                            .dwattr $C$DW$79, DW_AT_type(*$C$DW$T$59)
    1044                            .dwattr $C$DW$79, DW_AT_name("SelectCompBRef")
    1045                            .dwattr $C$DW$79, DW_AT_TI_symbol_name("SelectCompBRef")
TI ARM Assembler PC v16.9.8 Thu Nov 22 09:24:40 2018

Tools Copyright (c) 1996-2017 Texas Instruments Incorporated
C:\Users\Einstein\AppData\Local\Temp\{C719C61D-1508-48D8-97C8-A86DFC77D700} PAGE   20

    1046                            .dwattr $C$DW$79, DW_AT_data_member_location[DW_OP_plus_uconst 0x48]
    1047                            .dwattr $C$DW$79, DW_AT_accessibility(DW_ACCESS_public)
    1048                            .dwattr $C$DW$79, DW_AT_decl_file("C:\ti\simplelink_cc13x0_sdk_2_30_00_20\source\ti\devices\cc
    1049                            .dwattr $C$DW$79, DW_AT_decl_line(0x88)
    1050                            .dwattr $C$DW$79, DW_AT_decl_column(0x25)
    1051                    
    1052                            .dwattr $C$DW$T$60, DW_AT_decl_file("C:\ti\simplelink_cc13x0_sdk_2_30_00_20\source\ti\devices\
    1053                            .dwattr $C$DW$T$60, DW_AT_decl_line(0x75)
    1054                            .dwattr $C$DW$T$60, DW_AT_decl_column(0x01)
    1055                            .dwendtag $C$DW$T$60
    1056                    
    1057                    $C$DW$T$158     .dwtag  DW_TAG_typedef
    1058                            .dwattr $C$DW$T$158, DW_AT_name("HARD_API_T")
    1059                            .dwattr $C$DW$T$158, DW_AT_type(*$C$DW$T$60)
    1060                            .dwattr $C$DW$T$158, DW_AT_language(DW_LANG_C)
    1061                            .dwattr $C$DW$T$158, DW_AT_decl_file("C:\ti\simplelink_cc13x0_sdk_2_30_00_20\source\ti\devices
    1062                            .dwattr $C$DW$T$158, DW_AT_decl_line(0x89)
    1063                            .dwattr $C$DW$T$158, DW_AT_decl_column(0x03)
    1064                    
    1065                    
    1066                    $C$DW$T$61      .dwtag  DW_TAG_structure_type
    1067                            .dwattr $C$DW$T$61, DW_AT_byte_size(0x08)
    1068                    $C$DW$80        .dwtag  DW_TAG_member
    1069                            .dwattr $C$DW$80, DW_AT_type(*$C$DW$T$10)
    1070                            .dwattr $C$DW$80, DW_AT_name("quot")
    1071                            .dwattr $C$DW$80, DW_AT_TI_symbol_name("quot")
    1072                            .dwattr $C$DW$80, DW_AT_data_member_location[DW_OP_plus_uconst 0x0]
    1073                            .dwattr $C$DW$80, DW_AT_accessibility(DW_ACCESS_public)
    1074                            .dwattr $C$DW$80, DW_AT_decl_file("C:/ti/ccsv7/tools/compiler/ti-cgt-arm_16.9.8.LTS/include/st
    1075                            .dwattr $C$DW$80, DW_AT_decl_line(0x5c)
    1076                            .dwattr $C$DW$80, DW_AT_decl_column(0x16)
    1077                    
    1078                    $C$DW$81        .dwtag  DW_TAG_member
    1079                            .dwattr $C$DW$81, DW_AT_type(*$C$DW$T$10)
    1080                            .dwattr $C$DW$81, DW_AT_name("rem")
    1081                            .dwattr $C$DW$81, DW_AT_TI_symbol_name("rem")
    1082                            .dwattr $C$DW$81, DW_AT_data_member_location[DW_OP_plus_uconst 0x4]
    1083                            .dwattr $C$DW$81, DW_AT_accessibility(DW_ACCESS_public)
    1084                            .dwattr $C$DW$81, DW_AT_decl_file("C:/ti/ccsv7/tools/compiler/ti-cgt-arm_16.9.8.LTS/include/st
    1085                            .dwattr $C$DW$81, DW_AT_decl_line(0x5c)
    1086                            .dwattr $C$DW$81, DW_AT_decl_column(0x1c)
    1087                    
    1088                            .dwattr $C$DW$T$61, DW_AT_decl_file("C:/ti/ccsv7/tools/compiler/ti-cgt-arm_16.9.8.LTS/include/
    1089                            .dwattr $C$DW$T$61, DW_AT_decl_line(0x5c)
    1090                            .dwattr $C$DW$T$61, DW_AT_decl_column(0x10)
    1091                            .dwendtag $C$DW$T$61
    1092                    
    1093                    $C$DW$T$159     .dwtag  DW_TAG_typedef
    1094                            .dwattr $C$DW$T$159, DW_AT_name("div_t")
    1095                            .dwattr $C$DW$T$159, DW_AT_type(*$C$DW$T$61)
    1096                            .dwattr $C$DW$T$159, DW_AT_language(DW_LANG_C)
    1097                            .dwattr $C$DW$T$159, DW_AT_decl_file("C:/ti/ccsv7/tools/compiler/ti-cgt-arm_16.9.8.LTS/include
    1098                            .dwattr $C$DW$T$159, DW_AT_decl_line(0x5c)
    1099                            .dwattr $C$DW$T$159, DW_AT_decl_column(0x23)
    1100                    
TI ARM Assembler PC v16.9.8 Thu Nov 22 09:24:40 2018

Tools Copyright (c) 1996-2017 Texas Instruments Incorporated
C:\Users\Einstein\AppData\Local\Temp\{C719C61D-1508-48D8-97C8-A86DFC77D700} PAGE   21

    1101                    
    1102                    $C$DW$T$62      .dwtag  DW_TAG_structure_type
    1103                            .dwattr $C$DW$T$62, DW_AT_byte_size(0x08)
    1104                    $C$DW$82        .dwtag  DW_TAG_member
    1105                            .dwattr $C$DW$82, DW_AT_type(*$C$DW$T$10)
    1106                            .dwattr $C$DW$82, DW_AT_name("quot")
    1107                            .dwattr $C$DW$82, DW_AT_TI_symbol_name("quot")
    1108                            .dwattr $C$DW$82, DW_AT_data_member_location[DW_OP_plus_uconst 0x0]
    1109                            .dwattr $C$DW$82, DW_AT_accessibility(DW_ACCESS_public)
    1110                            .dwattr $C$DW$82, DW_AT_decl_file("C:/ti/ccsv7/tools/compiler/ti-cgt-arm_16.9.8.LTS/include/st
    1111                            .dwattr $C$DW$82, DW_AT_decl_line(0x5e)
    1112                            .dwattr $C$DW$82, DW_AT_decl_column(0x16)
    1113                    
    1114                    $C$DW$83        .dwtag  DW_TAG_member
    1115                            .dwattr $C$DW$83, DW_AT_type(*$C$DW$T$10)
    1116                            .dwattr $C$DW$83, DW_AT_name("rem")
    1117                            .dwattr $C$DW$83, DW_AT_TI_symbol_name("rem")
    1118                            .dwattr $C$DW$83, DW_AT_data_member_location[DW_OP_plus_uconst 0x4]
    1119                            .dwattr $C$DW$83, DW_AT_accessibility(DW_ACCESS_public)
    1120                            .dwattr $C$DW$83, DW_AT_decl_file("C:/ti/ccsv7/tools/compiler/ti-cgt-arm_16.9.8.LTS/include/st
    1121                            .dwattr $C$DW$83, DW_AT_decl_line(0x5e)
    1122                            .dwattr $C$DW$83, DW_AT_decl_column(0x1c)
    1123                    
    1124                            .dwattr $C$DW$T$62, DW_AT_decl_file("C:/ti/ccsv7/tools/compiler/ti-cgt-arm_16.9.8.LTS/include/
    1125                            .dwattr $C$DW$T$62, DW_AT_decl_line(0x5e)
    1126                            .dwattr $C$DW$T$62, DW_AT_decl_column(0x10)
    1127                            .dwendtag $C$DW$T$62
    1128                    
    1129                    $C$DW$T$160     .dwtag  DW_TAG_typedef
    1130                            .dwattr $C$DW$T$160, DW_AT_name("ldiv_t")
    1131                            .dwattr $C$DW$T$160, DW_AT_type(*$C$DW$T$62)
    1132                            .dwattr $C$DW$T$160, DW_AT_language(DW_LANG_C)
    1133                            .dwattr $C$DW$T$160, DW_AT_decl_file("C:/ti/ccsv7/tools/compiler/ti-cgt-arm_16.9.8.LTS/include
    1134                            .dwattr $C$DW$T$160, DW_AT_decl_line(0x5e)
    1135                            .dwattr $C$DW$T$160, DW_AT_decl_column(0x23)
    1136                    
    1137                    
    1138                    $C$DW$T$63      .dwtag  DW_TAG_structure_type
    1139                            .dwattr $C$DW$T$63, DW_AT_byte_size(0x10)
    1140                    $C$DW$84        .dwtag  DW_TAG_member
    1141                            .dwattr $C$DW$84, DW_AT_type(*$C$DW$T$14)
    1142                            .dwattr $C$DW$84, DW_AT_name("quot")
    1143                            .dwattr $C$DW$84, DW_AT_TI_symbol_name("quot")
    1144                            .dwattr $C$DW$84, DW_AT_data_member_location[DW_OP_plus_uconst 0x0]
    1145                            .dwattr $C$DW$84, DW_AT_accessibility(DW_ACCESS_public)
    1146                            .dwattr $C$DW$84, DW_AT_decl_file("C:/ti/ccsv7/tools/compiler/ti-cgt-arm_16.9.8.LTS/include/st
    1147                            .dwattr $C$DW$84, DW_AT_decl_line(0x61)
    1148                            .dwattr $C$DW$84, DW_AT_decl_column(0x1c)
    1149                    
    1150                    $C$DW$85        .dwtag  DW_TAG_member
    1151                            .dwattr $C$DW$85, DW_AT_type(*$C$DW$T$14)
    1152                            .dwattr $C$DW$85, DW_AT_name("rem")
    1153                            .dwattr $C$DW$85, DW_AT_TI_symbol_name("rem")
    1154                            .dwattr $C$DW$85, DW_AT_data_member_location[DW_OP_plus_uconst 0x8]
    1155                            .dwattr $C$DW$85, DW_AT_accessibility(DW_ACCESS_public)
TI ARM Assembler PC v16.9.8 Thu Nov 22 09:24:40 2018

Tools Copyright (c) 1996-2017 Texas Instruments Incorporated
C:\Users\Einstein\AppData\Local\Temp\{C719C61D-1508-48D8-97C8-A86DFC77D700} PAGE   22

    1156                            .dwattr $C$DW$85, DW_AT_decl_file("C:/ti/ccsv7/tools/compiler/ti-cgt-arm_16.9.8.LTS/include/st
    1157                            .dwattr $C$DW$85, DW_AT_decl_line(0x61)
    1158                            .dwattr $C$DW$85, DW_AT_decl_column(0x22)
    1159                    
    1160                            .dwattr $C$DW$T$63, DW_AT_decl_file("C:/ti/ccsv7/tools/compiler/ti-cgt-arm_16.9.8.LTS/include/
    1161                            .dwattr $C$DW$T$63, DW_AT_decl_line(0x61)
    1162                            .dwattr $C$DW$T$63, DW_AT_decl_column(0x10)
    1163                            .dwendtag $C$DW$T$63
    1164                    
    1165                    $C$DW$T$161     .dwtag  DW_TAG_typedef
    1166                            .dwattr $C$DW$T$161, DW_AT_name("lldiv_t")
    1167                            .dwattr $C$DW$T$161, DW_AT_type(*$C$DW$T$63)
    1168                            .dwattr $C$DW$T$161, DW_AT_language(DW_LANG_C)
    1169                            .dwattr $C$DW$T$161, DW_AT_decl_file("C:/ti/ccsv7/tools/compiler/ti-cgt-arm_16.9.8.LTS/include
    1170                            .dwattr $C$DW$T$161, DW_AT_decl_line(0x61)
    1171                            .dwattr $C$DW$T$161, DW_AT_decl_column(0x29)
    1172                    
    1173                    
    1174                    $C$DW$T$67      .dwtag  DW_TAG_structure_type
    1175                            .dwattr $C$DW$T$67, DW_AT_byte_size(0x08)
    1176                    $C$DW$86        .dwtag  DW_TAG_member
    1177                            .dwattr $C$DW$86, DW_AT_type(*$C$DW$T$65)
    1178                            .dwattr $C$DW$86, DW_AT_name("pointerStack")
    1179                            .dwattr $C$DW$86, DW_AT_TI_symbol_name("pointerStack")
    1180                            .dwattr $C$DW$86, DW_AT_data_member_location[DW_OP_plus_uconst 0x0]
    1181                            .dwattr $C$DW$86, DW_AT_accessibility(DW_ACCESS_public)
    1182                            .dwattr $C$DW$86, DW_AT_decl_file("C:/ti/simplelink_cc13x0_sdk_2_30_00_20/source/ti/ti154stack
    1183                            .dwattr $C$DW$86, DW_AT_decl_line(0x3f5)
    1184                            .dwattr $C$DW$86, DW_AT_decl_column(0x16)
    1185                    
    1186                    $C$DW$87        .dwtag  DW_TAG_member
    1187                            .dwattr $C$DW$87, DW_AT_type(*$C$DW$T$66)
    1188                            .dwattr $C$DW$87, DW_AT_name("directAPI")
    1189                            .dwattr $C$DW$87, DW_AT_TI_symbol_name("directAPI")
    1190                            .dwattr $C$DW$87, DW_AT_data_member_location[DW_OP_plus_uconst 0x4]
    1191                            .dwattr $C$DW$87, DW_AT_accessibility(DW_ACCESS_public)
    1192                            .dwattr $C$DW$87, DW_AT_decl_file("C:/ti/simplelink_cc13x0_sdk_2_30_00_20/source/ti/ti154stack
    1193                            .dwattr $C$DW$87, DW_AT_decl_line(0x3f6)
    1194                            .dwattr $C$DW$87, DW_AT_decl_column(0x15)
    1195                    
    1196                            .dwattr $C$DW$T$67, DW_AT_decl_file("C:/ti/simplelink_cc13x0_sdk_2_30_00_20/source/ti/ti154sta
    1197                            .dwattr $C$DW$T$67, DW_AT_decl_line(0x3f4)
    1198                            .dwattr $C$DW$T$67, DW_AT_decl_column(0x01)
    1199                            .dwendtag $C$DW$T$67
    1200                    
    1201                    $C$DW$T$69      .dwtag  DW_TAG_typedef
    1202                            .dwattr $C$DW$T$69, DW_AT_name("icall_directAPIMsg_t")
    1203                            .dwattr $C$DW$T$69, DW_AT_type(*$C$DW$T$67)
    1204                            .dwattr $C$DW$T$69, DW_AT_language(DW_LANG_C)
    1205                            .dwattr $C$DW$T$69, DW_AT_decl_file("C:/ti/simplelink_cc13x0_sdk_2_30_00_20/source/ti/ti154sta
    1206                            .dwattr $C$DW$T$69, DW_AT_decl_line(0x3f7)
    1207                            .dwattr $C$DW$T$69, DW_AT_decl_column(0x03)
    1208                    
    1209                    
    1210                    $C$DW$T$70      .dwtag  DW_TAG_structure_type
TI ARM Assembler PC v16.9.8 Thu Nov 22 09:24:40 2018

Tools Copyright (c) 1996-2017 Texas Instruments Incorporated
C:\Users\Einstein\AppData\Local\Temp\{C719C61D-1508-48D8-97C8-A86DFC77D700} PAGE   23

    1211                            .dwattr $C$DW$T$70, DW_AT_byte_size(0x14)
    1212                    $C$DW$88        .dwtag  DW_TAG_member
    1213                            .dwattr $C$DW$88, DW_AT_type(*$C$DW$T$68)
    1214                            .dwattr $C$DW$88, DW_AT_name("hdr")
    1215                            .dwattr $C$DW$88, DW_AT_TI_symbol_name("hdr")
    1216                            .dwattr $C$DW$88, DW_AT_data_member_location[DW_OP_plus_uconst 0x0]
    1217                            .dwattr $C$DW$88, DW_AT_accessibility(DW_ACCESS_public)
    1218                            .dwattr $C$DW$88, DW_AT_decl_file("C:/ti/simplelink_cc13x0_sdk_2_30_00_20/source/ti/ti154stack
    1219                            .dwattr $C$DW$88, DW_AT_decl_line(0x3fb)
    1220                            .dwattr $C$DW$88, DW_AT_decl_column(0x10)
    1221                    
    1222                    $C$DW$89        .dwtag  DW_TAG_member
    1223                            .dwattr $C$DW$89, DW_AT_type(*$C$DW$T$69)
    1224                            .dwattr $C$DW$89, DW_AT_name("msg")
    1225                            .dwattr $C$DW$89, DW_AT_TI_symbol_name("msg")
    1226                            .dwattr $C$DW$89, DW_AT_data_member_location[DW_OP_plus_uconst 0xc]
    1227                            .dwattr $C$DW$89, DW_AT_accessibility(DW_ACCESS_public)
    1228                            .dwattr $C$DW$89, DW_AT_decl_file("C:/ti/simplelink_cc13x0_sdk_2_30_00_20/source/ti/ti154stack
    1229                            .dwattr $C$DW$89, DW_AT_decl_line(0x3fc)
    1230                            .dwattr $C$DW$89, DW_AT_decl_column(0x1a)
    1231                    
    1232                            .dwattr $C$DW$T$70, DW_AT_decl_file("C:/ti/simplelink_cc13x0_sdk_2_30_00_20/source/ti/ti154sta
    1233                            .dwattr $C$DW$T$70, DW_AT_decl_line(0x3fa)
    1234                            .dwattr $C$DW$T$70, DW_AT_decl_column(0x01)
    1235                            .dwendtag $C$DW$T$70
    1236                    
    1237                    $C$DW$T$162     .dwtag  DW_TAG_typedef
    1238                            .dwattr $C$DW$T$162, DW_AT_name("icallLiteMsg_t")
    1239                            .dwattr $C$DW$T$162, DW_AT_type(*$C$DW$T$70)
    1240                            .dwattr $C$DW$T$162, DW_AT_language(DW_LANG_C)
    1241                            .dwattr $C$DW$T$162, DW_AT_decl_file("C:/ti/simplelink_cc13x0_sdk_2_30_00_20/source/ti/ti154st
    1242                            .dwattr $C$DW$T$162, DW_AT_decl_line(0x3fd)
    1243                            .dwattr $C$DW$T$162, DW_AT_decl_column(0x03)
    1244                    
    1245                    
    1246                    $C$DW$T$75      .dwtag  DW_TAG_union_type
    1247                            .dwattr $C$DW$T$75, DW_AT_byte_size(0x02)
    1248                    $C$DW$90        .dwtag  DW_TAG_member
    1249                            .dwattr $C$DW$90, DW_AT_type(*$C$DW$T$72)
    1250                            .dwattr $C$DW$90, DW_AT_name("entityId")
    1251                            .dwattr $C$DW$90, DW_AT_TI_symbol_name("entityId")
    1252                            .dwattr $C$DW$90, DW_AT_data_member_location[DW_OP_plus_uconst 0x0]
    1253                            .dwattr $C$DW$90, DW_AT_accessibility(DW_ACCESS_public)
    1254                            .dwattr $C$DW$90, DW_AT_decl_file("C:/ti/simplelink_cc13x0_sdk_2_30_00_20/source/ti/ti154stack
    1255                            .dwattr $C$DW$90, DW_AT_decl_line(0x1fe)
    1256                            .dwattr $C$DW$90, DW_AT_decl_column(0x14)
    1257                    
    1258                    $C$DW$91        .dwtag  DW_TAG_member
    1259                            .dwattr $C$DW$91, DW_AT_type(*$C$DW$T$74)
    1260                            .dwattr $C$DW$91, DW_AT_name("servId")
    1261                            .dwattr $C$DW$91, DW_AT_TI_symbol_name("servId")
    1262                            .dwattr $C$DW$91, DW_AT_data_member_location[DW_OP_plus_uconst 0x0]
    1263                            .dwattr $C$DW$91, DW_AT_accessibility(DW_ACCESS_public)
    1264                            .dwattr $C$DW$91, DW_AT_decl_file("C:/ti/simplelink_cc13x0_sdk_2_30_00_20/source/ti/ti154stack
    1265                            .dwattr $C$DW$91, DW_AT_decl_line(0x200)
TI ARM Assembler PC v16.9.8 Thu Nov 22 09:24:40 2018

Tools Copyright (c) 1996-2017 Texas Instruments Incorporated
C:\Users\Einstein\AppData\Local\Temp\{C719C61D-1508-48D8-97C8-A86DFC77D700} PAGE   24

    1266                            .dwattr $C$DW$91, DW_AT_decl_column(0x17)
    1267                    
    1268                            .dwattr $C$DW$T$75, DW_AT_decl_file("C:/ti/simplelink_cc13x0_sdk_2_30_00_20/source/ti/ti154sta
    1269                            .dwattr $C$DW$T$75, DW_AT_decl_line(0x1fc)
    1270                            .dwattr $C$DW$T$75, DW_AT_decl_column(0x03)
    1271                            .dwendtag $C$DW$T$75
    1272                    
    1273                    
    1274                    $C$DW$T$76      .dwtag  DW_TAG_union_type
    1275                            .dwattr $C$DW$T$76, DW_AT_byte_size(0x02)
    1276                    $C$DW$92        .dwtag  DW_TAG_member
    1277                            .dwattr $C$DW$92, DW_AT_type(*$C$DW$T$74)
    1278                            .dwattr $C$DW$92, DW_AT_name("servId")
    1279                            .dwattr $C$DW$92, DW_AT_TI_symbol_name("servId")
    1280                            .dwattr $C$DW$92, DW_AT_data_member_location[DW_OP_plus_uconst 0x0]
    1281                            .dwattr $C$DW$92, DW_AT_accessibility(DW_ACCESS_public)
    1282                            .dwattr $C$DW$92, DW_AT_decl_file("C:/ti/simplelink_cc13x0_sdk_2_30_00_20/source/ti/ti154stack
    1283                            .dwattr $C$DW$92, DW_AT_decl_line(0x211)
    1284                            .dwattr $C$DW$92, DW_AT_decl_column(0x17)
    1285                    
    1286                    $C$DW$93        .dwtag  DW_TAG_member
    1287                            .dwattr $C$DW$93, DW_AT_type(*$C$DW$T$72)
    1288                            .dwattr $C$DW$93, DW_AT_name("entityId")
    1289                            .dwattr $C$DW$93, DW_AT_TI_symbol_name("entityId")
    1290                            .dwattr $C$DW$93, DW_AT_data_member_location[DW_OP_plus_uconst 0x0]
    1291                            .dwattr $C$DW$93, DW_AT_accessibility(DW_ACCESS_public)
    1292                            .dwattr $C$DW$93, DW_AT_decl_file("C:/ti/simplelink_cc13x0_sdk_2_30_00_20/source/ti/ti154stack
    1293                            .dwattr $C$DW$93, DW_AT_decl_line(0x213)
    1294                            .dwattr $C$DW$93, DW_AT_decl_column(0x14)
    1295                    
    1296                            .dwattr $C$DW$T$76, DW_AT_decl_file("C:/ti/simplelink_cc13x0_sdk_2_30_00_20/source/ti/ti154sta
    1297                            .dwattr $C$DW$T$76, DW_AT_decl_line(0x20f)
    1298                            .dwattr $C$DW$T$76, DW_AT_decl_column(0x03)
    1299                            .dwendtag $C$DW$T$76
    1300                    
    1301                    
    1302                    $C$DW$T$77      .dwtag  DW_TAG_structure_type
    1303                            .dwattr $C$DW$T$77, DW_AT_name("_ICall_LiteCmdStatus_")
    1304                            .dwattr $C$DW$T$77, DW_AT_byte_size(0x01)
    1305                    $C$DW$94        .dwtag  DW_TAG_member
    1306                            .dwattr $C$DW$94, DW_AT_type(*$C$DW$T$71)
    1307                            .dwattr $C$DW$94, DW_AT_name("cmdId")
    1308                            .dwattr $C$DW$94, DW_AT_TI_symbol_name("cmdId")
    1309                            .dwattr $C$DW$94, DW_AT_data_member_location[DW_OP_plus_uconst 0x0]
    1310                            .dwattr $C$DW$94, DW_AT_accessibility(DW_ACCESS_public)
    1311                            .dwattr $C$DW$94, DW_AT_decl_file("C:/ti/simplelink_cc13x0_sdk_2_30_00_20/source/ti/ti154stack
    1312                            .dwattr $C$DW$94, DW_AT_decl_line(0x3f0)
    1313                            .dwattr $C$DW$94, DW_AT_decl_column(0x11)
    1314                    
    1315                            .dwattr $C$DW$T$77, DW_AT_decl_file("C:/ti/simplelink_cc13x0_sdk_2_30_00_20/source/ti/ti154sta
    1316                            .dwattr $C$DW$T$77, DW_AT_decl_line(0x3ee)
    1317                            .dwattr $C$DW$T$77, DW_AT_decl_column(0x10)
    1318                            .dwendtag $C$DW$T$77
    1319                    
    1320                    $C$DW$T$163     .dwtag  DW_TAG_typedef
TI ARM Assembler PC v16.9.8 Thu Nov 22 09:24:40 2018

Tools Copyright (c) 1996-2017 Texas Instruments Incorporated
C:\Users\Einstein\AppData\Local\Temp\{C719C61D-1508-48D8-97C8-A86DFC77D700} PAGE   25

    1321                            .dwattr $C$DW$T$163, DW_AT_name("ICall_LiteCmdStatus")
    1322                            .dwattr $C$DW$T$163, DW_AT_type(*$C$DW$T$77)
    1323                            .dwattr $C$DW$T$163, DW_AT_language(DW_LANG_C)
    1324                            .dwattr $C$DW$T$163, DW_AT_decl_file("C:/ti/simplelink_cc13x0_sdk_2_30_00_20/source/ti/ti154st
    1325                            .dwattr $C$DW$T$163, DW_AT_decl_line(0x3f1)
    1326                            .dwattr $C$DW$T$163, DW_AT_decl_column(0x03)
    1327                    
    1328                    $C$DW$T$2       .dwtag  DW_TAG_unspecified_type
    1329                            .dwattr $C$DW$T$2, DW_AT_name("void")
    1330                    
    1331                    $C$DW$T$3       .dwtag  DW_TAG_pointer_type
    1332                            .dwattr $C$DW$T$3, DW_AT_type(*$C$DW$T$2)
    1333                            .dwattr $C$DW$T$3, DW_AT_address_class(0x20)
    1334                    
    1335                    $C$DW$T$164     .dwtag  DW_TAG_typedef
    1336                            .dwattr $C$DW$T$164, DW_AT_name("ICall_Semaphore")
    1337                            .dwattr $C$DW$T$164, DW_AT_type(*$C$DW$T$3)
    1338                            .dwattr $C$DW$T$164, DW_AT_language(DW_LANG_C)
    1339                            .dwattr $C$DW$T$164, DW_AT_decl_file("C:/ti/simplelink_cc13x0_sdk_2_30_00_20/source/ti/ti154st
    1340                            .dwattr $C$DW$T$164, DW_AT_decl_line(0x1ac)
    1341                            .dwattr $C$DW$T$164, DW_AT_decl_column(0x0f)
    1342                    
    1343                    $C$DW$T$91      .dwtag  DW_TAG_typedef
    1344                            .dwattr $C$DW$T$91, DW_AT_name("ICall_SyncHandle")
    1345                            .dwattr $C$DW$T$91, DW_AT_type(*$C$DW$T$3)
    1346                            .dwattr $C$DW$T$91, DW_AT_language(DW_LANG_C)
    1347                            .dwattr $C$DW$T$91, DW_AT_decl_file("C:/ti/simplelink_cc13x0_sdk_2_30_00_20/source/ti/ti154sta
    1348                            .dwattr $C$DW$T$91, DW_AT_decl_line(0x1aa)
    1349                            .dwattr $C$DW$T$91, DW_AT_decl_column(0x0f)
    1350                    
    1351                    $C$DW$T$136     .dwtag  DW_TAG_typedef
    1352                            .dwattr $C$DW$T$136, DW_AT_name("ICall_TimerID")
    1353                            .dwattr $C$DW$T$136, DW_AT_type(*$C$DW$T$3)
    1354                            .dwattr $C$DW$T$136, DW_AT_language(DW_LANG_C)
    1355                            .dwattr $C$DW$T$136, DW_AT_decl_file("C:/ti/simplelink_cc13x0_sdk_2_30_00_20/source/ti/ti154st
    1356                            .dwattr $C$DW$T$136, DW_AT_decl_line(0x1b7)
    1357                            .dwattr $C$DW$T$136, DW_AT_decl_column(0x0f)
    1358                    
    1359                    
    1360                    $C$DW$T$34      .dwtag  DW_TAG_subroutine_type
    1361                            .dwattr $C$DW$T$34, DW_AT_language(DW_LANG_C)
    1362                            .dwendtag $C$DW$T$34
    1363                    
    1364                    $C$DW$T$35      .dwtag  DW_TAG_pointer_type
    1365                            .dwattr $C$DW$T$35, DW_AT_type(*$C$DW$T$34)
    1366                            .dwattr $C$DW$T$35, DW_AT_address_class(0x20)
    1367                    
    1368                    $C$DW$T$152     .dwtag  DW_TAG_typedef
    1369                            .dwattr $C$DW$T$152, DW_AT_name("APPASRTINTF_callAssrtHndler")
    1370                            .dwattr $C$DW$T$152, DW_AT_type(*$C$DW$T$35)
    1371                            .dwattr $C$DW$T$152, DW_AT_language(DW_LANG_C)
    1372                            .dwattr $C$DW$T$152, DW_AT_decl_file("C:/ti/simplelink_cc13x0_sdk_2_30_00_20/source/ti/ti154st
    1373                            .dwattr $C$DW$T$152, DW_AT_decl_line(0x43)
    1374                            .dwattr $C$DW$T$152, DW_AT_decl_column(0x10)
    1375                    
TI ARM Assembler PC v16.9.8 Thu Nov 22 09:24:40 2018

Tools Copyright (c) 1996-2017 Texas Instruments Incorporated
C:\Users\Einstein\AppData\Local\Temp\{C719C61D-1508-48D8-97C8-A86DFC77D700} PAGE   26

    1376                    $C$DW$T$53      .dwtag  DW_TAG_typedef
    1377                            .dwattr $C$DW$T$53, DW_AT_name("FPTR_HFSOURCESAFESWITCH_T")
    1378                            .dwattr $C$DW$T$53, DW_AT_type(*$C$DW$T$35)
    1379                            .dwattr $C$DW$T$53, DW_AT_language(DW_LANG_C)
    1380                            .dwattr $C$DW$T$53, DW_AT_decl_file("C:\ti\simplelink_cc13x0_sdk_2_30_00_20\source\ti\devices\
    1381                            .dwattr $C$DW$T$53, DW_AT_decl_line(0x5f)
    1382                            .dwattr $C$DW$T$53, DW_AT_decl_column(0x19)
    1383                    
    1384                    $C$DW$T$36      .dwtag  DW_TAG_typedef
    1385                            .dwattr $C$DW$T$36, DW_AT_name("FPTR_RESETDEV_T")
    1386                            .dwattr $C$DW$T$36, DW_AT_type(*$C$DW$T$35)
    1387                            .dwattr $C$DW$T$36, DW_AT_language(DW_LANG_C)
    1388                            .dwattr $C$DW$T$36, DW_AT_decl_file("C:\ti\simplelink_cc13x0_sdk_2_30_00_20\source\ti\devices\
    1389                            .dwattr $C$DW$T$36, DW_AT_decl_line(0x4d)
    1390                            .dwattr $C$DW$T$36, DW_AT_decl_column(0x19)
    1391                    
    1392                    $C$DW$T$165     .dwtag  DW_TAG_typedef
    1393                            .dwattr $C$DW$T$165, DW_AT_name("FPTR_VOID_VOID_T")
    1394                            .dwattr $C$DW$T$165, DW_AT_type(*$C$DW$T$35)
    1395                            .dwattr $C$DW$T$165, DW_AT_language(DW_LANG_C)
    1396                            .dwattr $C$DW$T$165, DW_AT_decl_file("C:/ti/simplelink_cc13x0_sdk_2_30_00_20/source/ti/devices
    1397                            .dwattr $C$DW$T$165, DW_AT_decl_line(0x33)
    1398                            .dwattr $C$DW$T$165, DW_AT_decl_column(0x11)
    1399                    
    1400                    $C$DW$T$166     .dwtag  DW_TAG_typedef
    1401                            .dwattr $C$DW$T$166, DW_AT_name("__TI_atexit_fn")
    1402                            .dwattr $C$DW$T$166, DW_AT_type(*$C$DW$T$35)
    1403                            .dwattr $C$DW$T$166, DW_AT_language(DW_LANG_C)
    1404                            .dwattr $C$DW$T$166, DW_AT_decl_file("C:/ti/ccsv7/tools/compiler/ti-cgt-arm_16.9.8.LTS/include
    1405                            .dwattr $C$DW$T$166, DW_AT_decl_line(0xb9)
    1406                            .dwattr $C$DW$T$166, DW_AT_decl_column(0x14)
    1407                    
    1408                    
    1409                    $C$DW$T$49      .dwtag  DW_TAG_subroutine_type
    1410                            .dwattr $C$DW$T$49, DW_AT_language(DW_LANG_C)
    1411                    $C$DW$95        .dwtag  DW_TAG_formal_parameter
    1412                            .dwattr $C$DW$95, DW_AT_type(*$C$DW$T$19)
    1413                    
    1414                            .dwendtag $C$DW$T$49
    1415                    
    1416                    $C$DW$T$50      .dwtag  DW_TAG_pointer_type
    1417                            .dwattr $C$DW$T$50, DW_AT_type(*$C$DW$T$49)
    1418                            .dwattr $C$DW$T$50, DW_AT_address_class(0x20)
    1419                    
    1420                    $C$DW$T$51      .dwtag  DW_TAG_typedef
    1421                            .dwattr $C$DW$T$51, DW_AT_name("FPTR_RESERVED4_T")
    1422                            .dwattr $C$DW$T$51, DW_AT_type(*$C$DW$T$50)
    1423                            .dwattr $C$DW$T$51, DW_AT_language(DW_LANG_C)
    1424                            .dwattr $C$DW$T$51, DW_AT_decl_file("C:\ti\simplelink_cc13x0_sdk_2_30_00_20\source\ti\devices\
    1425                            .dwattr $C$DW$T$51, DW_AT_decl_line(0x61)
    1426                            .dwattr $C$DW$T$51, DW_AT_decl_column(0x19)
    1427                    
    1428                    $C$DW$T$52      .dwtag  DW_TAG_typedef
    1429                            .dwattr $C$DW$T$52, DW_AT_name("FPTR_RESERVED5_T")
    1430                            .dwattr $C$DW$T$52, DW_AT_type(*$C$DW$T$50)
TI ARM Assembler PC v16.9.8 Thu Nov 22 09:24:40 2018

Tools Copyright (c) 1996-2017 Texas Instruments Incorporated
C:\Users\Einstein\AppData\Local\Temp\{C719C61D-1508-48D8-97C8-A86DFC77D700} PAGE   27

    1431                            .dwattr $C$DW$T$52, DW_AT_language(DW_LANG_C)
    1432                            .dwattr $C$DW$T$52, DW_AT_decl_file("C:\ti\simplelink_cc13x0_sdk_2_30_00_20\source\ti\devices\
    1433                            .dwattr $C$DW$T$52, DW_AT_decl_line(0x63)
    1434                            .dwattr $C$DW$T$52, DW_AT_decl_column(0x19)
    1435                    
    1436                    
    1437                    $C$DW$T$54      .dwtag  DW_TAG_subroutine_type
    1438                            .dwattr $C$DW$T$54, DW_AT_language(DW_LANG_C)
    1439                    $C$DW$96        .dwtag  DW_TAG_formal_parameter
    1440                            .dwattr $C$DW$96, DW_AT_type(*$C$DW$T$20)
    1441                    
    1442                            .dwendtag $C$DW$T$54
    1443                    
    1444                    $C$DW$T$55      .dwtag  DW_TAG_pointer_type
    1445                            .dwattr $C$DW$T$55, DW_AT_type(*$C$DW$T$54)
    1446                            .dwattr $C$DW$T$55, DW_AT_address_class(0x20)
    1447                    
    1448                    $C$DW$T$58      .dwtag  DW_TAG_typedef
    1449                            .dwattr $C$DW$T$58, DW_AT_name("FPTR_ADCCOMPBIN_T")
    1450                            .dwattr $C$DW$T$58, DW_AT_type(*$C$DW$T$55)
    1451                            .dwattr $C$DW$T$58, DW_AT_language(DW_LANG_C)
    1452                            .dwattr $C$DW$T$58, DW_AT_decl_file("C:\ti\simplelink_cc13x0_sdk_2_30_00_20\source\ti\devices\
    1453                            .dwattr $C$DW$T$58, DW_AT_decl_line(0x69)
    1454                            .dwattr $C$DW$T$58, DW_AT_decl_column(0x19)
    1455                    
    1456                    $C$DW$T$56      .dwtag  DW_TAG_typedef
    1457                            .dwattr $C$DW$T$56, DW_AT_name("FPTR_COMPAIN_T")
    1458                            .dwattr $C$DW$T$56, DW_AT_type(*$C$DW$T$55)
    1459                            .dwattr $C$DW$T$56, DW_AT_language(DW_LANG_C)
    1460                            .dwattr $C$DW$T$56, DW_AT_decl_file("C:\ti\simplelink_cc13x0_sdk_2_30_00_20\source\ti\devices\
    1461                            .dwattr $C$DW$T$56, DW_AT_decl_line(0x65)
    1462                            .dwattr $C$DW$T$56, DW_AT_decl_column(0x19)
    1463                    
    1464                    $C$DW$T$57      .dwtag  DW_TAG_typedef
    1465                            .dwattr $C$DW$T$57, DW_AT_name("FPTR_COMPAREF_T")
    1466                            .dwattr $C$DW$T$57, DW_AT_type(*$C$DW$T$55)
    1467                            .dwattr $C$DW$T$57, DW_AT_language(DW_LANG_C)
    1468                            .dwattr $C$DW$T$57, DW_AT_decl_file("C:\ti\simplelink_cc13x0_sdk_2_30_00_20\source\ti\devices\
    1469                            .dwattr $C$DW$T$57, DW_AT_decl_line(0x67)
    1470                            .dwattr $C$DW$T$57, DW_AT_decl_column(0x19)
    1471                    
    1472                    $C$DW$T$59      .dwtag  DW_TAG_typedef
    1473                            .dwattr $C$DW$T$59, DW_AT_name("FPTR_COMPBREF_T")
    1474                            .dwattr $C$DW$T$59, DW_AT_type(*$C$DW$T$55)
    1475                            .dwattr $C$DW$T$59, DW_AT_language(DW_LANG_C)
    1476                            .dwattr $C$DW$T$59, DW_AT_decl_file("C:\ti\simplelink_cc13x0_sdk_2_30_00_20\source\ti\devices\
    1477                            .dwattr $C$DW$T$59, DW_AT_decl_line(0x6b)
    1478                            .dwattr $C$DW$T$59, DW_AT_decl_column(0x19)
    1479                    
    1480                    $C$DW$T$167     .dwtag  DW_TAG_typedef
    1481                            .dwattr $C$DW$T$167, DW_AT_name("FPTR_VOID_UINT8_T")
    1482                            .dwattr $C$DW$T$167, DW_AT_type(*$C$DW$T$55)
    1483                            .dwattr $C$DW$T$167, DW_AT_language(DW_LANG_C)
    1484                            .dwattr $C$DW$T$167, DW_AT_decl_file("C:/ti/simplelink_cc13x0_sdk_2_30_00_20/source/ti/devices
    1485                            .dwattr $C$DW$T$167, DW_AT_decl_line(0x34)
TI ARM Assembler PC v16.9.8 Thu Nov 22 09:24:40 2018

Tools Copyright (c) 1996-2017 Texas Instruments Incorporated
C:\Users\Einstein\AppData\Local\Temp\{C719C61D-1508-48D8-97C8-A86DFC77D700} PAGE   28

    1486                            .dwattr $C$DW$T$167, DW_AT_decl_column(0x11)
    1487                    
    1488                    
    1489                    $C$DW$T$81      .dwtag  DW_TAG_subroutine_type
    1490                            .dwattr $C$DW$T$81, DW_AT_language(DW_LANG_C)
    1491                    $C$DW$97        .dwtag  DW_TAG_formal_parameter
    1492                            .dwattr $C$DW$97, DW_AT_type(*$C$DW$T$79)
    1493                    
    1494                            .dwendtag $C$DW$T$81
    1495                    
    1496                    $C$DW$T$82      .dwtag  DW_TAG_pointer_type
    1497                            .dwattr $C$DW$T$82, DW_AT_type(*$C$DW$T$81)
    1498                            .dwattr $C$DW$T$82, DW_AT_address_class(0x20)
    1499                    
    1500                    
    1501                    $C$DW$T$114     .dwtag  DW_TAG_subroutine_type
    1502                            .dwattr $C$DW$T$114, DW_AT_language(DW_LANG_C)
    1503                    $C$DW$98        .dwtag  DW_TAG_formal_parameter
    1504                            .dwattr $C$DW$98, DW_AT_type(*$C$DW$T$112)
    1505                    
    1506                    $C$DW$99        .dwtag  DW_TAG_formal_parameter
    1507                            .dwattr $C$DW$99, DW_AT_type(*$C$DW$T$113)
    1508                    
    1509                            .dwendtag $C$DW$T$114
    1510                    
    1511                    $C$DW$T$115     .dwtag  DW_TAG_pointer_type
    1512                            .dwattr $C$DW$T$115, DW_AT_type(*$C$DW$T$114)
    1513                            .dwattr $C$DW$T$115, DW_AT_address_class(0x20)
    1514                    
    1515                    $C$DW$T$116     .dwtag  DW_TAG_typedef
    1516                            .dwattr $C$DW$T$116, DW_AT_name("ICall_PwrNotifyFn")
    1517                            .dwattr $C$DW$T$116, DW_AT_type(*$C$DW$T$115)
    1518                            .dwattr $C$DW$T$116, DW_AT_language(DW_LANG_C)
    1519                            .dwattr $C$DW$T$116, DW_AT_decl_file("C:/ti/simplelink_cc13x0_sdk_2_30_00_20/source/ti/ti154st
    1520                            .dwattr $C$DW$T$116, DW_AT_decl_line(0x333)
    1521                            .dwattr $C$DW$T$116, DW_AT_decl_column(0x10)
    1522                    
    1523                    
    1524                    $C$DW$T$130     .dwtag  DW_TAG_subroutine_type
    1525                            .dwattr $C$DW$T$130, DW_AT_language(DW_LANG_C)
    1526                    $C$DW$100       .dwtag  DW_TAG_formal_parameter
    1527                            .dwattr $C$DW$100, DW_AT_type(*$C$DW$T$126)
    1528                    
    1529                            .dwendtag $C$DW$T$130
    1530                    
    1531                    $C$DW$T$131     .dwtag  DW_TAG_pointer_type
    1532                            .dwattr $C$DW$T$131, DW_AT_type(*$C$DW$T$130)
    1533                            .dwattr $C$DW$T$131, DW_AT_address_class(0x20)
    1534                    
    1535                    $C$DW$T$132     .dwtag  DW_TAG_typedef
    1536                            .dwattr $C$DW$T$132, DW_AT_name("ICall_LeaveCS")
    1537                            .dwattr $C$DW$T$132, DW_AT_type(*$C$DW$T$131)
    1538                            .dwattr $C$DW$T$132, DW_AT_language(DW_LANG_C)
    1539                            .dwattr $C$DW$T$132, DW_AT_decl_file("C:/ti/simplelink_cc13x0_sdk_2_30_00_20/source/ti/ti154st
    1540                            .dwattr $C$DW$T$132, DW_AT_decl_line(0x37e)
TI ARM Assembler PC v16.9.8 Thu Nov 22 09:24:40 2018

Tools Copyright (c) 1996-2017 Texas Instruments Incorporated
C:\Users\Einstein\AppData\Local\Temp\{C719C61D-1508-48D8-97C8-A86DFC77D700} PAGE   29

    1541                            .dwattr $C$DW$T$132, DW_AT_decl_column(0x10)
    1542                    
    1543                    
    1544                    $C$DW$T$137     .dwtag  DW_TAG_subroutine_type
    1545                            .dwattr $C$DW$T$137, DW_AT_language(DW_LANG_C)
    1546                    $C$DW$101       .dwtag  DW_TAG_formal_parameter
    1547                            .dwattr $C$DW$101, DW_AT_type(*$C$DW$T$3)
    1548                    
    1549                            .dwendtag $C$DW$T$137
    1550                    
    1551                    $C$DW$T$138     .dwtag  DW_TAG_pointer_type
    1552                            .dwattr $C$DW$T$138, DW_AT_type(*$C$DW$T$137)
    1553                            .dwattr $C$DW$T$138, DW_AT_address_class(0x20)
    1554                    
    1555                    $C$DW$T$139     .dwtag  DW_TAG_typedef
    1556                            .dwattr $C$DW$T$139, DW_AT_name("ICall_TimerCback")
    1557                            .dwattr $C$DW$T$139, DW_AT_type(*$C$DW$T$138)
    1558                            .dwattr $C$DW$T$139, DW_AT_language(DW_LANG_C)
    1559                            .dwattr $C$DW$T$139, DW_AT_decl_file("C:/ti/simplelink_cc13x0_sdk_2_30_00_20/source/ti/ti154st
    1560                            .dwattr $C$DW$T$139, DW_AT_decl_line(0x1c8)
    1561                            .dwattr $C$DW$T$139, DW_AT_decl_column(0x10)
    1562                    
    1563                    $C$DW$T$146     .dwtag  DW_TAG_const_type
    1564                            .dwattr $C$DW$T$146, DW_AT_type(*$C$DW$T$2)
    1565                    
    1566                    $C$DW$T$147     .dwtag  DW_TAG_pointer_type
    1567                            .dwattr $C$DW$T$147, DW_AT_type(*$C$DW$T$146)
    1568                            .dwattr $C$DW$T$147, DW_AT_address_class(0x20)
    1569                    
    1570                    
    1571                    $C$DW$T$171     .dwtag  DW_TAG_subroutine_type
    1572                            .dwattr $C$DW$T$171, DW_AT_language(DW_LANG_C)
    1573                    $C$DW$102       .dwtag  DW_TAG_formal_parameter
    1574                            .dwattr $C$DW$102, DW_AT_type(*$C$DW$T$169)
    1575                    
    1576                    $C$DW$103       .dwtag  DW_TAG_formal_parameter
    1577                            .dwattr $C$DW$103, DW_AT_type(*$C$DW$T$169)
    1578                    
    1579                            .dwendtag $C$DW$T$171
    1580                    
    1581                    $C$DW$T$172     .dwtag  DW_TAG_pointer_type
    1582                            .dwattr $C$DW$T$172, DW_AT_type(*$C$DW$T$171)
    1583                            .dwattr $C$DW$T$172, DW_AT_address_class(0x20)
    1584                    
    1585                    
    1586                    $C$DW$T$174     .dwtag  DW_TAG_subroutine_type
    1587                            .dwattr $C$DW$T$174, DW_AT_language(DW_LANG_C)
    1588                    $C$DW$104       .dwtag  DW_TAG_formal_parameter
    1589                            .dwattr $C$DW$104, DW_AT_type(*$C$DW$T$168)
    1590                    
    1591                    $C$DW$105       .dwtag  DW_TAG_formal_parameter
    1592                            .dwattr $C$DW$105, DW_AT_type(*$C$DW$T$168)
    1593                    
    1594                            .dwendtag $C$DW$T$174
    1595                    
TI ARM Assembler PC v16.9.8 Thu Nov 22 09:24:40 2018

Tools Copyright (c) 1996-2017 Texas Instruments Incorporated
C:\Users\Einstein\AppData\Local\Temp\{C719C61D-1508-48D8-97C8-A86DFC77D700} PAGE   30

    1596                    $C$DW$T$175     .dwtag  DW_TAG_pointer_type
    1597                            .dwattr $C$DW$T$175, DW_AT_type(*$C$DW$T$174)
    1598                            .dwattr $C$DW$T$175, DW_AT_address_class(0x20)
    1599                    
    1600                    $C$DW$T$176     .dwtag  DW_TAG_typedef
    1601                            .dwattr $C$DW$T$176, DW_AT_name("assertCback_t")
    1602                            .dwattr $C$DW$T$176, DW_AT_type(*$C$DW$T$175)
    1603                            .dwattr $C$DW$T$176, DW_AT_language(DW_LANG_C)
    1604                            .dwattr $C$DW$T$176, DW_AT_decl_file("C:/ti/simplelink_cc13x0_sdk_2_30_00_20/source/ti/ti154st
    1605                            .dwattr $C$DW$T$176, DW_AT_decl_line(0xd3)
    1606                            .dwattr $C$DW$T$176, DW_AT_decl_column(0x10)
    1607                    
    1608                    
    1609                    $C$DW$T$180     .dwtag  DW_TAG_subroutine_type
    1610                            .dwattr $C$DW$T$180, DW_AT_language(DW_LANG_C)
    1611                    $C$DW$106       .dwtag  DW_TAG_formal_parameter
    1612                            .dwattr $C$DW$106, DW_AT_type(*$C$DW$T$179)
    1613                    
    1614                    $C$DW$107       .dwtag  DW_TAG_formal_parameter
    1615                            .dwattr $C$DW$107, DW_AT_type(*$C$DW$T$3)
    1616                    
    1617                            .dwendtag $C$DW$T$180
    1618                    
    1619                    $C$DW$T$181     .dwtag  DW_TAG_pointer_type
    1620                            .dwattr $C$DW$T$181, DW_AT_type(*$C$DW$T$180)
    1621                            .dwattr $C$DW$T$181, DW_AT_address_class(0x20)
    1622                    
    1623                    $C$DW$T$182     .dwtag  DW_TAG_typedef
    1624                            .dwattr $C$DW$T$182, DW_AT_name("ICall_RemoteTaskEntry")
    1625                            .dwattr $C$DW$T$182, DW_AT_type(*$C$DW$T$181)
    1626                            .dwattr $C$DW$T$182, DW_AT_language(DW_LANG_C)
    1627                            .dwattr $C$DW$T$182, DW_AT_decl_file("C:/ti/simplelink_cc13x0_sdk_2_30_00_20/source/ti/ti154st
    1628                            .dwattr $C$DW$T$182, DW_AT_decl_line(0x39b)
    1629                            .dwattr $C$DW$T$182, DW_AT_decl_column(0x10)
    1630                    
    1631                    $C$DW$T$4       .dwtag  DW_TAG_base_type
    1632                            .dwattr $C$DW$T$4, DW_AT_encoding(DW_ATE_boolean)
    1633                            .dwattr $C$DW$T$4, DW_AT_name("bool")
    1634                            .dwattr $C$DW$T$4, DW_AT_byte_size(0x01)
    1635                    
    1636                    $C$DW$T$5       .dwtag  DW_TAG_base_type
    1637                            .dwattr $C$DW$T$5, DW_AT_encoding(DW_ATE_signed_char)
    1638                            .dwattr $C$DW$T$5, DW_AT_name("signed char")
    1639                            .dwattr $C$DW$T$5, DW_AT_byte_size(0x01)
    1640                    
    1641                    $C$DW$T$183     .dwtag  DW_TAG_typedef
    1642                            .dwattr $C$DW$T$183, DW_AT_name("int8")
    1643                            .dwattr $C$DW$T$183, DW_AT_type(*$C$DW$T$5)
    1644                            .dwattr $C$DW$T$183, DW_AT_language(DW_LANG_C)
    1645                            .dwattr $C$DW$T$183, DW_AT_decl_file("C:\ti\simplelink_cc13x0_sdk_2_30_00_20\source\ti\ti154st
    1646                            .dwattr $C$DW$T$183, DW_AT_decl_line(0x38)
    1647                            .dwattr $C$DW$T$183, DW_AT_decl_column(0x19)
    1648                    
    1649                    $C$DW$T$184     .dwtag  DW_TAG_typedef
    1650                            .dwattr $C$DW$T$184, DW_AT_name("int8_t")
TI ARM Assembler PC v16.9.8 Thu Nov 22 09:24:40 2018

Tools Copyright (c) 1996-2017 Texas Instruments Incorporated
C:\Users\Einstein\AppData\Local\Temp\{C719C61D-1508-48D8-97C8-A86DFC77D700} PAGE   31

    1651                            .dwattr $C$DW$T$184, DW_AT_type(*$C$DW$T$5)
    1652                            .dwattr $C$DW$T$184, DW_AT_language(DW_LANG_C)
    1653                            .dwattr $C$DW$T$184, DW_AT_decl_file("C:/ti/ccsv7/tools/compiler/ti-cgt-arm_16.9.8.LTS/include
    1654                            .dwattr $C$DW$T$184, DW_AT_decl_line(0x2a)
    1655                            .dwattr $C$DW$T$184, DW_AT_decl_column(0x1d)
    1656                    
    1657                    $C$DW$T$185     .dwtag  DW_TAG_typedef
    1658                            .dwattr $C$DW$T$185, DW_AT_name("int_least8_t")
    1659                            .dwattr $C$DW$T$185, DW_AT_type(*$C$DW$T$184)
    1660                            .dwattr $C$DW$T$185, DW_AT_language(DW_LANG_C)
    1661                            .dwattr $C$DW$T$185, DW_AT_decl_file("C:/ti/ccsv7/tools/compiler/ti-cgt-arm_16.9.8.LTS/include
    1662                            .dwattr $C$DW$T$185, DW_AT_decl_line(0x37)
    1663                            .dwattr $C$DW$T$185, DW_AT_decl_column(0x17)
    1664                    
    1665                    $C$DW$T$6       .dwtag  DW_TAG_base_type
    1666                            .dwattr $C$DW$T$6, DW_AT_encoding(DW_ATE_unsigned_char)
    1667                            .dwattr $C$DW$T$6, DW_AT_name("unsigned char")
    1668                            .dwattr $C$DW$T$6, DW_AT_byte_size(0x01)
    1669                    
    1670                    $C$DW$T$168     .dwtag  DW_TAG_typedef
    1671                            .dwattr $C$DW$T$168, DW_AT_name("uint8")
    1672                            .dwattr $C$DW$T$168, DW_AT_type(*$C$DW$T$6)
    1673                            .dwattr $C$DW$T$168, DW_AT_language(DW_LANG_C)
    1674                            .dwattr $C$DW$T$168, DW_AT_decl_file("C:\ti\simplelink_cc13x0_sdk_2_30_00_20\source\ti\ti154st
    1675                            .dwattr $C$DW$T$168, DW_AT_decl_line(0x39)
    1676                            .dwattr $C$DW$T$168, DW_AT_decl_column(0x19)
    1677                    
    1678                    $C$DW$T$169     .dwtag  DW_TAG_pointer_type
    1679                            .dwattr $C$DW$T$169, DW_AT_type(*$C$DW$T$168)
    1680                            .dwattr $C$DW$T$169, DW_AT_address_class(0x20)
    1681                    
    1682                    $C$DW$T$189     .dwtag  DW_TAG_const_type
    1683                            .dwattr $C$DW$T$189, DW_AT_type(*$C$DW$T$169)
    1684                    
    1685                    $C$DW$T$20      .dwtag  DW_TAG_typedef
    1686                            .dwattr $C$DW$T$20, DW_AT_name("uint8_t")
    1687                            .dwattr $C$DW$T$20, DW_AT_type(*$C$DW$T$6)
    1688                            .dwattr $C$DW$T$20, DW_AT_language(DW_LANG_C)
    1689                            .dwattr $C$DW$T$20, DW_AT_decl_file("C:/ti/ccsv7/tools/compiler/ti-cgt-arm_16.9.8.LTS/include/
    1690                            .dwattr $C$DW$T$20, DW_AT_decl_line(0x2b)
    1691                            .dwattr $C$DW$T$20, DW_AT_decl_column(0x1c)
    1692                    
    1693                    $C$DW$T$21      .dwtag  DW_TAG_pointer_type
    1694                            .dwattr $C$DW$T$21, DW_AT_type(*$C$DW$T$20)
    1695                            .dwattr $C$DW$T$21, DW_AT_address_class(0x20)
    1696                    
    1697                    $C$DW$T$191     .dwtag  DW_TAG_volatile_type
    1698                            .dwattr $C$DW$T$191, DW_AT_type(*$C$DW$T$20)
    1699                    
    1700                    $C$DW$T$192     .dwtag  DW_TAG_typedef
    1701                            .dwattr $C$DW$T$192, DW_AT_name("tFwpWriteByte")
    1702                            .dwattr $C$DW$T$192, DW_AT_type(*$C$DW$T$191)
    1703                            .dwattr $C$DW$T$192, DW_AT_language(DW_LANG_C)
    1704                            .dwattr $C$DW$T$192, DW_AT_decl_file("C:/ti/simplelink_cc13x0_sdk_2_30_00_20/source/ti/devices
    1705                            .dwattr $C$DW$T$192, DW_AT_decl_line(0xde)
TI ARM Assembler PC v16.9.8 Thu Nov 22 09:24:40 2018

Tools Copyright (c) 1996-2017 Texas Instruments Incorporated
C:\Users\Einstein\AppData\Local\Temp\{C719C61D-1508-48D8-97C8-A86DFC77D700} PAGE   32

    1706                            .dwattr $C$DW$T$192, DW_AT_decl_column(0x1a)
    1707                    
    1708                    $C$DW$T$71      .dwtag  DW_TAG_typedef
    1709                            .dwattr $C$DW$T$71, DW_AT_name("uint_least8_t")
    1710                            .dwattr $C$DW$T$71, DW_AT_type(*$C$DW$T$20)
    1711                            .dwattr $C$DW$T$71, DW_AT_language(DW_LANG_C)
    1712                            .dwattr $C$DW$T$71, DW_AT_decl_file("C:/ti/ccsv7/tools/compiler/ti-cgt-arm_16.9.8.LTS/include/
    1713                            .dwattr $C$DW$T$71, DW_AT_decl_line(0x38)
    1714                            .dwattr $C$DW$T$71, DW_AT_decl_column(0x16)
    1715                    
    1716                    $C$DW$T$72      .dwtag  DW_TAG_typedef
    1717                            .dwattr $C$DW$T$72, DW_AT_name("ICall_EntityID")
    1718                            .dwattr $C$DW$T$72, DW_AT_type(*$C$DW$T$71)
    1719                            .dwattr $C$DW$T$72, DW_AT_language(DW_LANG_C)
    1720                            .dwattr $C$DW$T$72, DW_AT_decl_file("C:/ti/simplelink_cc13x0_sdk_2_30_00_20/source/ti/ti154sta
    1721                            .dwattr $C$DW$T$72, DW_AT_decl_line(0x1b4)
    1722                            .dwattr $C$DW$T$72, DW_AT_decl_column(0x17)
    1723                    
    1724                    $C$DW$T$134     .dwtag  DW_TAG_typedef
    1725                            .dwattr $C$DW$T$134, DW_AT_name("ICall_MSGFormat")
    1726                            .dwattr $C$DW$T$134, DW_AT_type(*$C$DW$T$71)
    1727                            .dwattr $C$DW$T$134, DW_AT_language(DW_LANG_C)
    1728                            .dwattr $C$DW$T$134, DW_AT_decl_file("C:/ti/simplelink_cc13x0_sdk_2_30_00_20/source/ti/ti154st
    1729                            .dwattr $C$DW$T$134, DW_AT_decl_line(0x1a4)
    1730                            .dwattr $C$DW$T$134, DW_AT_decl_column(0x17)
    1731                    
    1732                    $C$DW$T$7       .dwtag  DW_TAG_base_type
    1733                            .dwattr $C$DW$T$7, DW_AT_encoding(DW_ATE_signed_char)
    1734                            .dwattr $C$DW$T$7, DW_AT_name("wchar_t")
    1735                            .dwattr $C$DW$T$7, DW_AT_byte_size(0x02)
    1736                    
    1737                    $C$DW$T$8       .dwtag  DW_TAG_base_type
    1738                            .dwattr $C$DW$T$8, DW_AT_encoding(DW_ATE_signed)
    1739                            .dwattr $C$DW$T$8, DW_AT_name("short")
    1740                            .dwattr $C$DW$T$8, DW_AT_byte_size(0x02)
    1741                    
    1742                    $C$DW$T$193     .dwtag  DW_TAG_typedef
    1743                            .dwattr $C$DW$T$193, DW_AT_name("int16")
    1744                            .dwattr $C$DW$T$193, DW_AT_type(*$C$DW$T$8)
    1745                            .dwattr $C$DW$T$193, DW_AT_language(DW_LANG_C)
    1746                            .dwattr $C$DW$T$193, DW_AT_decl_file("C:\ti\simplelink_cc13x0_sdk_2_30_00_20\source\ti\ti154st
    1747                            .dwattr $C$DW$T$193, DW_AT_decl_line(0x3b)
    1748                            .dwattr $C$DW$T$193, DW_AT_decl_column(0x19)
    1749                    
    1750                    $C$DW$T$194     .dwtag  DW_TAG_typedef
    1751                            .dwattr $C$DW$T$194, DW_AT_name("int16_t")
    1752                            .dwattr $C$DW$T$194, DW_AT_type(*$C$DW$T$8)
    1753                            .dwattr $C$DW$T$194, DW_AT_language(DW_LANG_C)
    1754                            .dwattr $C$DW$T$194, DW_AT_decl_file("C:/ti/ccsv7/tools/compiler/ti-cgt-arm_16.9.8.LTS/include
    1755                            .dwattr $C$DW$T$194, DW_AT_decl_line(0x2c)
    1756                            .dwattr $C$DW$T$194, DW_AT_decl_column(0x1d)
    1757                    
    1758                    $C$DW$T$195     .dwtag  DW_TAG_typedef
    1759                            .dwattr $C$DW$T$195, DW_AT_name("int_least16_t")
    1760                            .dwattr $C$DW$T$195, DW_AT_type(*$C$DW$T$194)
TI ARM Assembler PC v16.9.8 Thu Nov 22 09:24:40 2018

Tools Copyright (c) 1996-2017 Texas Instruments Incorporated
C:\Users\Einstein\AppData\Local\Temp\{C719C61D-1508-48D8-97C8-A86DFC77D700} PAGE   33

    1761                            .dwattr $C$DW$T$195, DW_AT_language(DW_LANG_C)
    1762                            .dwattr $C$DW$T$195, DW_AT_decl_file("C:/ti/ccsv7/tools/compiler/ti-cgt-arm_16.9.8.LTS/include
    1763                            .dwattr $C$DW$T$195, DW_AT_decl_line(0x3a)
    1764                            .dwattr $C$DW$T$195, DW_AT_decl_column(0x17)
    1765                    
    1766                    $C$DW$T$9       .dwtag  DW_TAG_base_type
    1767                            .dwattr $C$DW$T$9, DW_AT_encoding(DW_ATE_unsigned)
    1768                            .dwattr $C$DW$T$9, DW_AT_name("unsigned short")
    1769                            .dwattr $C$DW$T$9, DW_AT_byte_size(0x02)
    1770                    
    1771                    $C$DW$T$196     .dwtag  DW_TAG_typedef
    1772                            .dwattr $C$DW$T$196, DW_AT_name("uint16")
    1773                            .dwattr $C$DW$T$196, DW_AT_type(*$C$DW$T$9)
    1774                            .dwattr $C$DW$T$196, DW_AT_language(DW_LANG_C)
    1775                            .dwattr $C$DW$T$196, DW_AT_decl_file("C:\ti\simplelink_cc13x0_sdk_2_30_00_20\source\ti\ti154st
    1776                            .dwattr $C$DW$T$196, DW_AT_decl_line(0x3c)
    1777                            .dwattr $C$DW$T$196, DW_AT_decl_column(0x19)
    1778                    
    1779                    $C$DW$T$37      .dwtag  DW_TAG_typedef
    1780                            .dwattr $C$DW$T$37, DW_AT_name("uint16_t")
    1781                            .dwattr $C$DW$T$37, DW_AT_type(*$C$DW$T$9)
    1782                            .dwattr $C$DW$T$37, DW_AT_language(DW_LANG_C)
    1783                            .dwattr $C$DW$T$37, DW_AT_decl_file("C:/ti/ccsv7/tools/compiler/ti-cgt-arm_16.9.8.LTS/include/
    1784                            .dwattr $C$DW$T$37, DW_AT_decl_line(0x2d)
    1785                            .dwattr $C$DW$T$37, DW_AT_decl_column(0x1c)
    1786                    
    1787                    $C$DW$T$38      .dwtag  DW_TAG_pointer_type
    1788                            .dwattr $C$DW$T$38, DW_AT_type(*$C$DW$T$37)
    1789                            .dwattr $C$DW$T$38, DW_AT_address_class(0x20)
    1790                    
    1791                    $C$DW$T$73      .dwtag  DW_TAG_typedef
    1792                            .dwattr $C$DW$T$73, DW_AT_name("uint_least16_t")
    1793                            .dwattr $C$DW$T$73, DW_AT_type(*$C$DW$T$37)
    1794                            .dwattr $C$DW$T$73, DW_AT_language(DW_LANG_C)
    1795                            .dwattr $C$DW$T$73, DW_AT_decl_file("C:/ti/ccsv7/tools/compiler/ti-cgt-arm_16.9.8.LTS/include/
    1796                            .dwattr $C$DW$T$73, DW_AT_decl_line(0x3b)
    1797                            .dwattr $C$DW$T$73, DW_AT_decl_column(0x16)
    1798                    
    1799                    $C$DW$T$96      .dwtag  DW_TAG_typedef
    1800                            .dwattr $C$DW$T$96, DW_AT_name("ICall_FuncID")
    1801                            .dwattr $C$DW$T$96, DW_AT_type(*$C$DW$T$73)
    1802                            .dwattr $C$DW$T$96, DW_AT_language(DW_LANG_C)
    1803                            .dwattr $C$DW$T$96, DW_AT_decl_file("C:/ti/simplelink_cc13x0_sdk_2_30_00_20/source/ti/ti154sta
    1804                            .dwattr $C$DW$T$96, DW_AT_decl_line(0x1a7)
    1805                            .dwattr $C$DW$T$96, DW_AT_decl_column(0x18)
    1806                    
    1807                    $C$DW$T$74      .dwtag  DW_TAG_typedef
    1808                            .dwattr $C$DW$T$74, DW_AT_name("ICall_ServiceEnum")
    1809                            .dwattr $C$DW$T$74, DW_AT_type(*$C$DW$T$73)
    1810                            .dwattr $C$DW$T$74, DW_AT_language(DW_LANG_C)
    1811                            .dwattr $C$DW$T$74, DW_AT_decl_file("C:/ti/simplelink_cc13x0_sdk_2_30_00_20/source/ti/ti154sta
    1812                            .dwattr $C$DW$T$74, DW_AT_decl_line(0x1a1)
    1813                            .dwattr $C$DW$T$74, DW_AT_decl_column(0x18)
    1814                    
    1815                    $C$DW$T$197     .dwtag  DW_TAG_typedef
TI ARM Assembler PC v16.9.8 Thu Nov 22 09:24:40 2018

Tools Copyright (c) 1996-2017 Texas Instruments Incorporated
C:\Users\Einstein\AppData\Local\Temp\{C719C61D-1508-48D8-97C8-A86DFC77D700} PAGE   34

    1816                            .dwattr $C$DW$T$197, DW_AT_name("wchar_t")
    1817                            .dwattr $C$DW$T$197, DW_AT_type(*$C$DW$T$9)
    1818                            .dwattr $C$DW$T$197, DW_AT_language(DW_LANG_C)
    1819                            .dwattr $C$DW$T$197, DW_AT_decl_file("C:/ti/ccsv7/tools/compiler/ti-cgt-arm_16.9.8.LTS/include
    1820                            .dwattr $C$DW$T$197, DW_AT_decl_line(0x78)
    1821                            .dwattr $C$DW$T$197, DW_AT_decl_column(0x1a)
    1822                    
    1823                    $C$DW$T$10      .dwtag  DW_TAG_base_type
    1824                            .dwattr $C$DW$T$10, DW_AT_encoding(DW_ATE_signed)
    1825                            .dwattr $C$DW$T$10, DW_AT_name("int")
    1826                            .dwattr $C$DW$T$10, DW_AT_byte_size(0x04)
    1827                    
    1828                    
    1829                    $C$DW$T$198     .dwtag  DW_TAG_subroutine_type
    1830                            .dwattr $C$DW$T$198, DW_AT_type(*$C$DW$T$10)
    1831                            .dwattr $C$DW$T$198, DW_AT_language(DW_LANG_C)
    1832                    $C$DW$108       .dwtag  DW_TAG_formal_parameter
    1833                            .dwattr $C$DW$108, DW_AT_type(*$C$DW$T$147)
    1834                    
    1835                    $C$DW$109       .dwtag  DW_TAG_formal_parameter
    1836                            .dwattr $C$DW$109, DW_AT_type(*$C$DW$T$147)
    1837                    
    1838                            .dwendtag $C$DW$T$198
    1839                    
    1840                    $C$DW$T$199     .dwtag  DW_TAG_pointer_type
    1841                            .dwattr $C$DW$T$199, DW_AT_type(*$C$DW$T$198)
    1842                            .dwattr $C$DW$T$199, DW_AT_address_class(0x20)
    1843                    
    1844                    $C$DW$T$200     .dwtag  DW_TAG_typedef
    1845                            .dwattr $C$DW$T$200, DW_AT_name("__TI_compar_fn")
    1846                            .dwattr $C$DW$T$200, DW_AT_type(*$C$DW$T$199)
    1847                            .dwattr $C$DW$T$200, DW_AT_language(DW_LANG_C)
    1848                            .dwattr $C$DW$T$200, DW_AT_decl_file("C:/ti/ccsv7/tools/compiler/ti-cgt-arm_16.9.8.LTS/include
    1849                            .dwattr $C$DW$T$200, DW_AT_decl_line(0xbc)
    1850                            .dwattr $C$DW$T$200, DW_AT_decl_column(0x13)
    1851                    
    1852                    $C$DW$T$84      .dwtag  DW_TAG_typedef
    1853                            .dwattr $C$DW$T$84, DW_AT_name("int32_t")
    1854                            .dwattr $C$DW$T$84, DW_AT_type(*$C$DW$T$10)
    1855                            .dwattr $C$DW$T$84, DW_AT_language(DW_LANG_C)
    1856                            .dwattr $C$DW$T$84, DW_AT_decl_file("C:/ti/ccsv7/tools/compiler/ti-cgt-arm_16.9.8.LTS/include/
    1857                            .dwattr $C$DW$T$84, DW_AT_decl_line(0x2e)
    1858                            .dwattr $C$DW$T$84, DW_AT_decl_column(0x1d)
    1859                    
    1860                    $C$DW$T$85      .dwtag  DW_TAG_typedef
    1861                            .dwattr $C$DW$T$85, DW_AT_name("int_fast16_t")
    1862                            .dwattr $C$DW$T$85, DW_AT_type(*$C$DW$T$84)
    1863                            .dwattr $C$DW$T$85, DW_AT_language(DW_LANG_C)
    1864                            .dwattr $C$DW$T$85, DW_AT_decl_file("C:/ti/ccsv7/tools/compiler/ti-cgt-arm_16.9.8.LTS/include/
    1865                            .dwattr $C$DW$T$85, DW_AT_decl_line(0x47)
    1866                            .dwattr $C$DW$T$85, DW_AT_decl_column(0x17)
    1867                    
    1868                    $C$DW$T$86      .dwtag  DW_TAG_typedef
    1869                            .dwattr $C$DW$T$86, DW_AT_name("ICall_Errno")
    1870                            .dwattr $C$DW$T$86, DW_AT_type(*$C$DW$T$85)
TI ARM Assembler PC v16.9.8 Thu Nov 22 09:24:40 2018

Tools Copyright (c) 1996-2017 Texas Instruments Incorporated
C:\Users\Einstein\AppData\Local\Temp\{C719C61D-1508-48D8-97C8-A86DFC77D700} PAGE   35

    1871                            .dwattr $C$DW$T$86, DW_AT_language(DW_LANG_C)
    1872                            .dwattr $C$DW$T$86, DW_AT_decl_file("C:/ti/simplelink_cc13x0_sdk_2_30_00_20/source/ti/ti154sta
    1873                            .dwattr $C$DW$T$86, DW_AT_decl_line(0x19e)
    1874                            .dwattr $C$DW$T$86, DW_AT_decl_column(0x16)
    1875                    
    1876                    
    1877                    $C$DW$T$88      .dwtag  DW_TAG_subroutine_type
    1878                            .dwattr $C$DW$T$88, DW_AT_type(*$C$DW$T$86)
    1879                            .dwattr $C$DW$T$88, DW_AT_language(DW_LANG_C)
    1880                    $C$DW$110       .dwtag  DW_TAG_formal_parameter
    1881                            .dwattr $C$DW$110, DW_AT_type(*$C$DW$T$87)
    1882                    
    1883                            .dwendtag $C$DW$T$88
    1884                    
    1885                    $C$DW$T$89      .dwtag  DW_TAG_pointer_type
    1886                            .dwattr $C$DW$T$89, DW_AT_type(*$C$DW$T$88)
    1887                            .dwattr $C$DW$T$89, DW_AT_address_class(0x20)
    1888                    
    1889                    $C$DW$T$125     .dwtag  DW_TAG_typedef
    1890                            .dwattr $C$DW$T$125, DW_AT_name("ICall_Dispatcher")
    1891                            .dwattr $C$DW$T$125, DW_AT_type(*$C$DW$T$89)
    1892                            .dwattr $C$DW$T$125, DW_AT_language(DW_LANG_C)
    1893                            .dwattr $C$DW$T$125, DW_AT_decl_file("C:/ti/simplelink_cc13x0_sdk_2_30_00_20/source/ti/ti154st
    1894                            .dwattr $C$DW$T$125, DW_AT_decl_line(0x36c)
    1895                            .dwattr $C$DW$T$125, DW_AT_decl_column(0x17)
    1896                    
    1897                    $C$DW$T$90      .dwtag  DW_TAG_typedef
    1898                            .dwattr $C$DW$T$90, DW_AT_name("ICall_ServiceFunc")
    1899                            .dwattr $C$DW$T$90, DW_AT_type(*$C$DW$T$89)
    1900                            .dwattr $C$DW$T$90, DW_AT_language(DW_LANG_C)
    1901                            .dwattr $C$DW$T$90, DW_AT_decl_file("C:/ti/simplelink_cc13x0_sdk_2_30_00_20/source/ti/ti154sta
    1902                            .dwattr $C$DW$T$90, DW_AT_decl_line(0x3a3)
    1903                            .dwattr $C$DW$T$90, DW_AT_decl_column(0x17)
    1904                    
    1905                    $C$DW$T$201     .dwtag  DW_TAG_typedef
    1906                            .dwattr $C$DW$T$201, DW_AT_name("int_fast32_t")
    1907                            .dwattr $C$DW$T$201, DW_AT_type(*$C$DW$T$84)
    1908                            .dwattr $C$DW$T$201, DW_AT_language(DW_LANG_C)
    1909                            .dwattr $C$DW$T$201, DW_AT_decl_file("C:/ti/ccsv7/tools/compiler/ti-cgt-arm_16.9.8.LTS/include
    1910                            .dwattr $C$DW$T$201, DW_AT_decl_line(0x4a)
    1911                            .dwattr $C$DW$T$201, DW_AT_decl_column(0x17)
    1912                    
    1913                    $C$DW$T$202     .dwtag  DW_TAG_typedef
    1914                            .dwattr $C$DW$T$202, DW_AT_name("int_fast8_t")
    1915                            .dwattr $C$DW$T$202, DW_AT_type(*$C$DW$T$84)
    1916                            .dwattr $C$DW$T$202, DW_AT_language(DW_LANG_C)
    1917                            .dwattr $C$DW$T$202, DW_AT_decl_file("C:/ti/ccsv7/tools/compiler/ti-cgt-arm_16.9.8.LTS/include
    1918                            .dwattr $C$DW$T$202, DW_AT_decl_line(0x45)
    1919                            .dwattr $C$DW$T$202, DW_AT_decl_column(0x17)
    1920                    
    1921                    $C$DW$T$103     .dwtag  DW_TAG_typedef
    1922                            .dwattr $C$DW$T$103, DW_AT_name("int_least32_t")
    1923                            .dwattr $C$DW$T$103, DW_AT_type(*$C$DW$T$84)
    1924                            .dwattr $C$DW$T$103, DW_AT_language(DW_LANG_C)
    1925                            .dwattr $C$DW$T$103, DW_AT_decl_file("C:/ti/ccsv7/tools/compiler/ti-cgt-arm_16.9.8.LTS/include
TI ARM Assembler PC v16.9.8 Thu Nov 22 09:24:40 2018

Tools Copyright (c) 1996-2017 Texas Instruments Incorporated
C:\Users\Einstein\AppData\Local\Temp\{C719C61D-1508-48D8-97C8-A86DFC77D700} PAGE   36

    1926                            .dwattr $C$DW$T$103, DW_AT_decl_line(0x3c)
    1927                            .dwattr $C$DW$T$103, DW_AT_decl_column(0x17)
    1928                    
    1929                    $C$DW$T$203     .dwtag  DW_TAG_typedef
    1930                            .dwattr $C$DW$T$203, DW_AT_name("intptr_t")
    1931                            .dwattr $C$DW$T$203, DW_AT_type(*$C$DW$T$10)
    1932                            .dwattr $C$DW$T$203, DW_AT_language(DW_LANG_C)
    1933                            .dwattr $C$DW$T$203, DW_AT_decl_file("C:/ti/ccsv7/tools/compiler/ti-cgt-arm_16.9.8.LTS/include
    1934                            .dwattr $C$DW$T$203, DW_AT_decl_line(0x52)
    1935                            .dwattr $C$DW$T$203, DW_AT_decl_column(0x1a)
    1936                    
    1937                    $C$DW$T$11      .dwtag  DW_TAG_base_type
    1938                            .dwattr $C$DW$T$11, DW_AT_encoding(DW_ATE_unsigned)
    1939                            .dwattr $C$DW$T$11, DW_AT_name("unsigned int")
    1940                            .dwattr $C$DW$T$11, DW_AT_byte_size(0x04)
    1941                    
    1942                    $C$DW$T$204     .dwtag  DW_TAG_typedef
    1943                            .dwattr $C$DW$T$204, DW_AT_name("__UINT32")
    1944                            .dwattr $C$DW$T$204, DW_AT_type(*$C$DW$T$11)
    1945                            .dwattr $C$DW$T$204, DW_AT_language(DW_LANG_C)
    1946                            .dwattr $C$DW$T$204, DW_AT_decl_file("C:/ti/simplelink_cc13x0_sdk_2_30_00_20/source/ti/devices
    1947                            .dwattr $C$DW$T$204, DW_AT_decl_line(0x45)
    1948                            .dwattr $C$DW$T$204, DW_AT_decl_column(0x17)
    1949                    
    1950                    $C$DW$T$79      .dwtag  DW_TAG_typedef
    1951                            .dwattr $C$DW$T$79, DW_AT_name("size_t")
    1952                            .dwattr $C$DW$T$79, DW_AT_type(*$C$DW$T$11)
    1953                            .dwattr $C$DW$T$79, DW_AT_language(DW_LANG_C)
    1954                            .dwattr $C$DW$T$79, DW_AT_decl_file("C:/ti/ccsv7/tools/compiler/ti-cgt-arm_16.9.8.LTS/include/
    1955                            .dwattr $C$DW$T$79, DW_AT_decl_line(0x72)
    1956                            .dwattr $C$DW$T$79, DW_AT_decl_column(0x19)
    1957                    
    1958                    $C$DW$T$19      .dwtag  DW_TAG_typedef
    1959                            .dwattr $C$DW$T$19, DW_AT_name("uint32_t")
    1960                            .dwattr $C$DW$T$19, DW_AT_type(*$C$DW$T$11)
    1961                            .dwattr $C$DW$T$19, DW_AT_language(DW_LANG_C)
    1962                            .dwattr $C$DW$T$19, DW_AT_decl_file("C:/ti/ccsv7/tools/compiler/ti-cgt-arm_16.9.8.LTS/include/
    1963                            .dwattr $C$DW$T$19, DW_AT_decl_line(0x2f)
    1964                            .dwattr $C$DW$T$19, DW_AT_decl_column(0x1c)
    1965                    
    1966                    
    1967                    $C$DW$T$22      .dwtag  DW_TAG_subroutine_type
    1968                            .dwattr $C$DW$T$22, DW_AT_type(*$C$DW$T$19)
    1969                            .dwattr $C$DW$T$22, DW_AT_language(DW_LANG_C)
    1970                    $C$DW$111       .dwtag  DW_TAG_formal_parameter
    1971                            .dwattr $C$DW$111, DW_AT_type(*$C$DW$T$21)
    1972                    
    1973                    $C$DW$112       .dwtag  DW_TAG_formal_parameter
    1974                            .dwattr $C$DW$112, DW_AT_type(*$C$DW$T$19)
    1975                    
    1976                    $C$DW$113       .dwtag  DW_TAG_formal_parameter
    1977                            .dwattr $C$DW$113, DW_AT_type(*$C$DW$T$19)
    1978                    
    1979                            .dwendtag $C$DW$T$22
    1980                    
TI ARM Assembler PC v16.9.8 Thu Nov 22 09:24:40 2018

Tools Copyright (c) 1996-2017 Texas Instruments Incorporated
C:\Users\Einstein\AppData\Local\Temp\{C719C61D-1508-48D8-97C8-A86DFC77D700} PAGE   37

    1981                    $C$DW$T$23      .dwtag  DW_TAG_pointer_type
    1982                            .dwattr $C$DW$T$23, DW_AT_type(*$C$DW$T$22)
    1983                            .dwattr $C$DW$T$23, DW_AT_address_class(0x20)
    1984                    
    1985                    $C$DW$T$24      .dwtag  DW_TAG_typedef
    1986                            .dwattr $C$DW$T$24, DW_AT_name("FPTR_CRC32_T")
    1987                            .dwattr $C$DW$T$24, DW_AT_type(*$C$DW$T$23)
    1988                            .dwattr $C$DW$T$24, DW_AT_language(DW_LANG_C)
    1989                            .dwattr $C$DW$T$24, DW_AT_decl_file("C:\ti\simplelink_cc13x0_sdk_2_30_00_20\source\ti\devices\
    1990                            .dwattr $C$DW$T$24, DW_AT_decl_line(0x3e)
    1991                            .dwattr $C$DW$T$24, DW_AT_decl_column(0x19)
    1992                    
    1993                    $C$DW$T$33      .dwtag  DW_TAG_typedef
    1994                            .dwattr $C$DW$T$33, DW_AT_name("FPTR_RESERVED3_T")
    1995                            .dwattr $C$DW$T$33, DW_AT_type(*$C$DW$T$23)
    1996                            .dwattr $C$DW$T$33, DW_AT_language(DW_LANG_C)
    1997                            .dwattr $C$DW$T$33, DW_AT_decl_file("C:\ti\simplelink_cc13x0_sdk_2_30_00_20\source\ti\devices\
    1998                            .dwattr $C$DW$T$33, DW_AT_decl_line(0x4a)
    1999                            .dwattr $C$DW$T$33, DW_AT_decl_column(0x19)
    2000                    
    2001                    
    2002                    $C$DW$T$25      .dwtag  DW_TAG_subroutine_type
    2003                            .dwattr $C$DW$T$25, DW_AT_type(*$C$DW$T$19)
    2004                            .dwattr $C$DW$T$25, DW_AT_language(DW_LANG_C)
    2005                            .dwendtag $C$DW$T$25
    2006                    
    2007                    $C$DW$T$26      .dwtag  DW_TAG_pointer_type
    2008                            .dwattr $C$DW$T$26, DW_AT_type(*$C$DW$T$25)
    2009                            .dwattr $C$DW$T$26, DW_AT_address_class(0x20)
    2010                    
    2011                    $C$DW$T$28      .dwtag  DW_TAG_typedef
    2012                            .dwattr $C$DW$T$28, DW_AT_name("FPTR_GETCHIPID_T")
    2013                            .dwattr $C$DW$T$28, DW_AT_type(*$C$DW$T$26)
    2014                            .dwattr $C$DW$T$28, DW_AT_language(DW_LANG_C)
    2015                            .dwattr $C$DW$T$28, DW_AT_decl_file("C:\ti\simplelink_cc13x0_sdk_2_30_00_20\source\ti\devices\
    2016                            .dwattr $C$DW$T$28, DW_AT_decl_line(0x44)
    2017                            .dwattr $C$DW$T$28, DW_AT_decl_column(0x19)
    2018                    
    2019                    $C$DW$T$27      .dwtag  DW_TAG_typedef
    2020                            .dwattr $C$DW$T$27, DW_AT_name("FPTR_GETFLSIZE_T")
    2021                            .dwattr $C$DW$T$27, DW_AT_type(*$C$DW$T$26)
    2022                            .dwattr $C$DW$T$27, DW_AT_language(DW_LANG_C)
    2023                            .dwattr $C$DW$T$27, DW_AT_decl_file("C:\ti\simplelink_cc13x0_sdk_2_30_00_20\source\ti\devices\
    2024                            .dwattr $C$DW$T$27, DW_AT_decl_line(0x42)
    2025                            .dwattr $C$DW$T$27, DW_AT_decl_column(0x19)
    2026                    
    2027                    $C$DW$T$32      .dwtag  DW_TAG_typedef
    2028                            .dwattr $C$DW$T$32, DW_AT_name("FPTR_RESERVED2_T")
    2029                            .dwattr $C$DW$T$32, DW_AT_type(*$C$DW$T$26)
    2030                            .dwattr $C$DW$T$32, DW_AT_language(DW_LANG_C)
    2031                            .dwattr $C$DW$T$32, DW_AT_decl_file("C:\ti\simplelink_cc13x0_sdk_2_30_00_20\source\ti\devices\
    2032                            .dwattr $C$DW$T$32, DW_AT_decl_line(0x48)
    2033                            .dwattr $C$DW$T$32, DW_AT_decl_column(0x19)
    2034                    
    2035                    
TI ARM Assembler PC v16.9.8 Thu Nov 22 09:24:40 2018

Tools Copyright (c) 1996-2017 Texas Instruments Incorporated
C:\Users\Einstein\AppData\Local\Temp\{C719C61D-1508-48D8-97C8-A86DFC77D700} PAGE   38

    2036                    $C$DW$T$29      .dwtag  DW_TAG_subroutine_type
    2037                            .dwattr $C$DW$T$29, DW_AT_type(*$C$DW$T$19)
    2038                            .dwattr $C$DW$T$29, DW_AT_language(DW_LANG_C)
    2039                    $C$DW$114       .dwtag  DW_TAG_formal_parameter
    2040                            .dwattr $C$DW$114, DW_AT_type(*$C$DW$T$19)
    2041                    
    2042                            .dwendtag $C$DW$T$29
    2043                    
    2044                    $C$DW$T$30      .dwtag  DW_TAG_pointer_type
    2045                            .dwattr $C$DW$T$30, DW_AT_type(*$C$DW$T$29)
    2046                            .dwattr $C$DW$T$30, DW_AT_address_class(0x20)
    2047                    
    2048                    $C$DW$T$31      .dwtag  DW_TAG_typedef
    2049                            .dwattr $C$DW$T$31, DW_AT_name("FPTR_RESERVED1_T")
    2050                            .dwattr $C$DW$T$31, DW_AT_type(*$C$DW$T$30)
    2051                            .dwattr $C$DW$T$31, DW_AT_language(DW_LANG_C)
    2052                            .dwattr $C$DW$T$31, DW_AT_decl_file("C:\ti\simplelink_cc13x0_sdk_2_30_00_20\source\ti\devices\
    2053                            .dwattr $C$DW$T$31, DW_AT_decl_line(0x46)
    2054                            .dwattr $C$DW$T$31, DW_AT_decl_column(0x19)
    2055                    
    2056                    
    2057                    $C$DW$T$39      .dwtag  DW_TAG_subroutine_type
    2058                            .dwattr $C$DW$T$39, DW_AT_type(*$C$DW$T$19)
    2059                            .dwattr $C$DW$T$39, DW_AT_language(DW_LANG_C)
    2060                    $C$DW$115       .dwtag  DW_TAG_formal_parameter
    2061                            .dwattr $C$DW$115, DW_AT_type(*$C$DW$T$38)
    2062                    
    2063                    $C$DW$116       .dwtag  DW_TAG_formal_parameter
    2064                            .dwattr $C$DW$116, DW_AT_type(*$C$DW$T$37)
    2065                    
    2066                    $C$DW$117       .dwtag  DW_TAG_formal_parameter
    2067                            .dwattr $C$DW$117, DW_AT_type(*$C$DW$T$37)
    2068                    
    2069                            .dwendtag $C$DW$T$39
    2070                    
    2071                    $C$DW$T$40      .dwtag  DW_TAG_pointer_type
    2072                            .dwattr $C$DW$T$40, DW_AT_type(*$C$DW$T$39)
    2073                            .dwattr $C$DW$T$40, DW_AT_address_class(0x20)
    2074                    
    2075                    $C$DW$T$41      .dwtag  DW_TAG_typedef
    2076                            .dwattr $C$DW$T$41, DW_AT_name("FPTR_FLETCHER32_T")
    2077                            .dwattr $C$DW$T$41, DW_AT_type(*$C$DW$T$40)
    2078                            .dwattr $C$DW$T$41, DW_AT_language(DW_LANG_C)
    2079                            .dwattr $C$DW$T$41, DW_AT_decl_file("C:\ti\simplelink_cc13x0_sdk_2_30_00_20\source\ti\devices\
    2080                            .dwattr $C$DW$T$41, DW_AT_decl_line(0x4f)
    2081                            .dwattr $C$DW$T$41, DW_AT_decl_column(0x19)
    2082                    
    2083                    $C$DW$T$42      .dwtag  DW_TAG_pointer_type
    2084                            .dwattr $C$DW$T$42, DW_AT_type(*$C$DW$T$19)
    2085                            .dwattr $C$DW$T$42, DW_AT_address_class(0x20)
    2086                    
    2087                    
    2088                    $C$DW$T$43      .dwtag  DW_TAG_subroutine_type
    2089                            .dwattr $C$DW$T$43, DW_AT_type(*$C$DW$T$19)
    2090                            .dwattr $C$DW$T$43, DW_AT_language(DW_LANG_C)
TI ARM Assembler PC v16.9.8 Thu Nov 22 09:24:40 2018

Tools Copyright (c) 1996-2017 Texas Instruments Incorporated
C:\Users\Einstein\AppData\Local\Temp\{C719C61D-1508-48D8-97C8-A86DFC77D700} PAGE   39

    2091                    $C$DW$118       .dwtag  DW_TAG_formal_parameter
    2092                            .dwattr $C$DW$118, DW_AT_type(*$C$DW$T$42)
    2093                    
    2094                    $C$DW$119       .dwtag  DW_TAG_formal_parameter
    2095                            .dwattr $C$DW$119, DW_AT_type(*$C$DW$T$19)
    2096                    
    2097                            .dwendtag $C$DW$T$43
    2098                    
    2099                    $C$DW$T$44      .dwtag  DW_TAG_pointer_type
    2100                            .dwattr $C$DW$T$44, DW_AT_type(*$C$DW$T$43)
    2101                            .dwattr $C$DW$T$44, DW_AT_address_class(0x20)
    2102                    
    2103                    $C$DW$T$46      .dwtag  DW_TAG_typedef
    2104                            .dwattr $C$DW$T$46, DW_AT_name("FPTR_MAXVAL_T")
    2105                            .dwattr $C$DW$T$46, DW_AT_type(*$C$DW$T$44)
    2106                            .dwattr $C$DW$T$46, DW_AT_language(DW_LANG_C)
    2107                            .dwattr $C$DW$T$46, DW_AT_decl_file("C:\ti\simplelink_cc13x0_sdk_2_30_00_20\source\ti\devices\
    2108                            .dwattr $C$DW$T$46, DW_AT_decl_line(0x56)
    2109                            .dwattr $C$DW$T$46, DW_AT_decl_column(0x19)
    2110                    
    2111                    $C$DW$T$47      .dwtag  DW_TAG_typedef
    2112                            .dwattr $C$DW$T$47, DW_AT_name("FPTR_MEANVAL_T")
    2113                            .dwattr $C$DW$T$47, DW_AT_type(*$C$DW$T$44)
    2114                            .dwattr $C$DW$T$47, DW_AT_language(DW_LANG_C)
    2115                            .dwattr $C$DW$T$47, DW_AT_decl_file("C:\ti\simplelink_cc13x0_sdk_2_30_00_20\source\ti\devices\
    2116                            .dwattr $C$DW$T$47, DW_AT_decl_line(0x59)
    2117                            .dwattr $C$DW$T$47, DW_AT_decl_column(0x19)
    2118                    
    2119                    $C$DW$T$45      .dwtag  DW_TAG_typedef
    2120                            .dwattr $C$DW$T$45, DW_AT_name("FPTR_MINVAL_T")
    2121                            .dwattr $C$DW$T$45, DW_AT_type(*$C$DW$T$44)
    2122                            .dwattr $C$DW$T$45, DW_AT_language(DW_LANG_C)
    2123                            .dwattr $C$DW$T$45, DW_AT_decl_file("C:\ti\simplelink_cc13x0_sdk_2_30_00_20\source\ti\devices\
    2124                            .dwattr $C$DW$T$45, DW_AT_decl_line(0x53)
    2125                            .dwattr $C$DW$T$45, DW_AT_decl_column(0x19)
    2126                    
    2127                    $C$DW$T$48      .dwtag  DW_TAG_typedef
    2128                            .dwattr $C$DW$T$48, DW_AT_name("FPTR_STDDVAL_T")
    2129                            .dwattr $C$DW$T$48, DW_AT_type(*$C$DW$T$44)
    2130                            .dwattr $C$DW$T$48, DW_AT_language(DW_LANG_C)
    2131                            .dwattr $C$DW$T$48, DW_AT_decl_file("C:\ti\simplelink_cc13x0_sdk_2_30_00_20\source\ti\devices\
    2132                            .dwattr $C$DW$T$48, DW_AT_decl_line(0x5c)
    2133                            .dwattr $C$DW$T$48, DW_AT_decl_column(0x19)
    2134                    
    2135                    $C$DW$T$215     .dwtag  DW_TAG_typedef
    2136                            .dwattr $C$DW$T$215, DW_AT_name("uint_fast16_t")
    2137                            .dwattr $C$DW$T$215, DW_AT_type(*$C$DW$T$19)
    2138                            .dwattr $C$DW$T$215, DW_AT_language(DW_LANG_C)
    2139                            .dwattr $C$DW$T$215, DW_AT_decl_file("C:/ti/ccsv7/tools/compiler/ti-cgt-arm_16.9.8.LTS/include
    2140                            .dwattr $C$DW$T$215, DW_AT_decl_line(0x48)
    2141                            .dwattr $C$DW$T$215, DW_AT_decl_column(0x16)
    2142                    
    2143                    $C$DW$T$106     .dwtag  DW_TAG_typedef
    2144                            .dwattr $C$DW$T$106, DW_AT_name("uint_fast32_t")
    2145                            .dwattr $C$DW$T$106, DW_AT_type(*$C$DW$T$19)
TI ARM Assembler PC v16.9.8 Thu Nov 22 09:24:40 2018

Tools Copyright (c) 1996-2017 Texas Instruments Incorporated
C:\Users\Einstein\AppData\Local\Temp\{C719C61D-1508-48D8-97C8-A86DFC77D700} PAGE   40

    2146                            .dwattr $C$DW$T$106, DW_AT_language(DW_LANG_C)
    2147                            .dwattr $C$DW$T$106, DW_AT_decl_file("C:/ti/ccsv7/tools/compiler/ti-cgt-arm_16.9.8.LTS/include
    2148                            .dwattr $C$DW$T$106, DW_AT_decl_line(0x4b)
    2149                            .dwattr $C$DW$T$106, DW_AT_decl_column(0x16)
    2150                    
    2151                    $C$DW$T$107     .dwtag  DW_TAG_typedef
    2152                            .dwattr $C$DW$T$107, DW_AT_name("ICall_PwrBitmap_t")
    2153                            .dwattr $C$DW$T$107, DW_AT_type(*$C$DW$T$106)
    2154                            .dwattr $C$DW$T$107, DW_AT_language(DW_LANG_C)
    2155                            .dwattr $C$DW$T$107, DW_AT_decl_file("C:/ti/simplelink_cc13x0_sdk_2_30_00_20/source/ti/ti154st
    2156                            .dwattr $C$DW$T$107, DW_AT_decl_line(0x287)
    2157                            .dwattr $C$DW$T$107, DW_AT_decl_column(0x17)
    2158                    
    2159                    $C$DW$T$109     .dwtag  DW_TAG_typedef
    2160                            .dwattr $C$DW$T$109, DW_AT_name("uint_fast8_t")
    2161                            .dwattr $C$DW$T$109, DW_AT_type(*$C$DW$T$19)
    2162                            .dwattr $C$DW$T$109, DW_AT_language(DW_LANG_C)
    2163                            .dwattr $C$DW$T$109, DW_AT_decl_file("C:/ti/ccsv7/tools/compiler/ti-cgt-arm_16.9.8.LTS/include
    2164                            .dwattr $C$DW$T$109, DW_AT_decl_line(0x46)
    2165                            .dwattr $C$DW$T$109, DW_AT_decl_column(0x16)
    2166                    
    2167                    $C$DW$T$112     .dwtag  DW_TAG_typedef
    2168                            .dwattr $C$DW$T$112, DW_AT_name("ICall_PwrTransition")
    2169                            .dwattr $C$DW$T$112, DW_AT_type(*$C$DW$T$109)
    2170                            .dwattr $C$DW$T$112, DW_AT_language(DW_LANG_C)
    2171                            .dwattr $C$DW$T$112, DW_AT_decl_file("C:/ti/simplelink_cc13x0_sdk_2_30_00_20/source/ti/ti154st
    2172                            .dwattr $C$DW$T$112, DW_AT_decl_line(0x326)
    2173                            .dwattr $C$DW$T$112, DW_AT_decl_column(0x16)
    2174                    
    2175                    $C$DW$T$64      .dwtag  DW_TAG_typedef
    2176                            .dwattr $C$DW$T$64, DW_AT_name("uint_least32_t")
    2177                            .dwattr $C$DW$T$64, DW_AT_type(*$C$DW$T$19)
    2178                            .dwattr $C$DW$T$64, DW_AT_language(DW_LANG_C)
    2179                            .dwattr $C$DW$T$64, DW_AT_decl_file("C:/ti/ccsv7/tools/compiler/ti-cgt-arm_16.9.8.LTS/include/
    2180                            .dwattr $C$DW$T$64, DW_AT_decl_line(0x3d)
    2181                            .dwattr $C$DW$T$64, DW_AT_decl_column(0x16)
    2182                    
    2183                    $C$DW$T$126     .dwtag  DW_TAG_typedef
    2184                            .dwattr $C$DW$T$126, DW_AT_name("ICall_CSState")
    2185                            .dwattr $C$DW$T$126, DW_AT_type(*$C$DW$T$64)
    2186                            .dwattr $C$DW$T$126, DW_AT_language(DW_LANG_C)
    2187                            .dwattr $C$DW$T$126, DW_AT_decl_file("C:/ti/simplelink_cc13x0_sdk_2_30_00_20/source/ti/ti154st
    2188                            .dwattr $C$DW$T$126, DW_AT_decl_line(0x371)
    2189                            .dwattr $C$DW$T$126, DW_AT_decl_column(0x18)
    2190                    
    2191                    
    2192                    $C$DW$T$127     .dwtag  DW_TAG_subroutine_type
    2193                            .dwattr $C$DW$T$127, DW_AT_type(*$C$DW$T$126)
    2194                            .dwattr $C$DW$T$127, DW_AT_language(DW_LANG_C)
    2195                            .dwendtag $C$DW$T$127
    2196                    
    2197                    $C$DW$T$128     .dwtag  DW_TAG_pointer_type
    2198                            .dwattr $C$DW$T$128, DW_AT_type(*$C$DW$T$127)
    2199                            .dwattr $C$DW$T$128, DW_AT_address_class(0x20)
    2200                    
TI ARM Assembler PC v16.9.8 Thu Nov 22 09:24:40 2018

Tools Copyright (c) 1996-2017 Texas Instruments Incorporated
C:\Users\Einstein\AppData\Local\Temp\{C719C61D-1508-48D8-97C8-A86DFC77D700} PAGE   41

    2201                    $C$DW$T$129     .dwtag  DW_TAG_typedef
    2202                            .dwattr $C$DW$T$129, DW_AT_name("ICall_EnterCS")
    2203                            .dwattr $C$DW$T$129, DW_AT_type(*$C$DW$T$128)
    2204                            .dwattr $C$DW$T$129, DW_AT_language(DW_LANG_C)
    2205                            .dwattr $C$DW$T$129, DW_AT_decl_file("C:/ti/simplelink_cc13x0_sdk_2_30_00_20/source/ti/ti154st
    2206                            .dwattr $C$DW$T$129, DW_AT_decl_line(0x377)
    2207                            .dwattr $C$DW$T$129, DW_AT_decl_column(0x19)
    2208                    
    2209                    $C$DW$T$216     .dwtag  DW_TAG_typedef
    2210                            .dwattr $C$DW$T$216, DW_AT_name("halIntState_t")
    2211                            .dwattr $C$DW$T$216, DW_AT_type(*$C$DW$T$126)
    2212                            .dwattr $C$DW$T$216, DW_AT_language(DW_LANG_C)
    2213                            .dwattr $C$DW$T$216, DW_AT_decl_file("C:\ti\simplelink_cc13x0_sdk_2_30_00_20\source\ti\ti154st
    2214                            .dwattr $C$DW$T$216, DW_AT_decl_line(0x6f)
    2215                            .dwattr $C$DW$T$216, DW_AT_decl_column(0x17)
    2216                    
    2217                    $C$DW$T$65      .dwtag  DW_TAG_pointer_type
    2218                            .dwattr $C$DW$T$65, DW_AT_type(*$C$DW$T$64)
    2219                            .dwattr $C$DW$T$65, DW_AT_address_class(0x20)
    2220                    
    2221                    $C$DW$T$66      .dwtag  DW_TAG_typedef
    2222                            .dwattr $C$DW$T$66, DW_AT_name("icall_lite_id_t")
    2223                            .dwattr $C$DW$T$66, DW_AT_type(*$C$DW$T$64)
    2224                            .dwattr $C$DW$T$66, DW_AT_language(DW_LANG_C)
    2225                            .dwattr $C$DW$T$66, DW_AT_decl_file("C:/ti/simplelink_cc13x0_sdk_2_30_00_20/source/ti/ti154sta
    2226                            .dwattr $C$DW$T$66, DW_AT_decl_line(0x3ec)
    2227                            .dwattr $C$DW$T$66, DW_AT_decl_column(0x18)
    2228                    
    2229                    $C$DW$T$217     .dwtag  DW_TAG_typedef
    2230                            .dwattr $C$DW$T$217, DW_AT_name("uintptr_t")
    2231                            .dwattr $C$DW$T$217, DW_AT_type(*$C$DW$T$11)
    2232                            .dwattr $C$DW$T$217, DW_AT_language(DW_LANG_C)
    2233                            .dwattr $C$DW$T$217, DW_AT_decl_file("C:/ti/ccsv7/tools/compiler/ti-cgt-arm_16.9.8.LTS/include
    2234                            .dwattr $C$DW$T$217, DW_AT_decl_line(0x53)
    2235                            .dwattr $C$DW$T$217, DW_AT_decl_column(0x1a)
    2236                    
    2237                    $C$DW$T$12      .dwtag  DW_TAG_base_type
    2238                            .dwattr $C$DW$T$12, DW_AT_encoding(DW_ATE_signed)
    2239                            .dwattr $C$DW$T$12, DW_AT_name("long")
    2240                            .dwattr $C$DW$T$12, DW_AT_byte_size(0x04)
    2241                    
    2242                    $C$DW$T$218     .dwtag  DW_TAG_typedef
    2243                            .dwattr $C$DW$T$218, DW_AT_name("int32")
    2244                            .dwattr $C$DW$T$218, DW_AT_type(*$C$DW$T$12)
    2245                            .dwattr $C$DW$T$218, DW_AT_language(DW_LANG_C)
    2246                            .dwattr $C$DW$T$218, DW_AT_decl_file("C:\ti\simplelink_cc13x0_sdk_2_30_00_20\source\ti\ti154st
    2247                            .dwattr $C$DW$T$218, DW_AT_decl_line(0x3e)
    2248                            .dwattr $C$DW$T$218, DW_AT_decl_column(0x19)
    2249                    
    2250                    $C$DW$T$13      .dwtag  DW_TAG_base_type
    2251                            .dwattr $C$DW$T$13, DW_AT_encoding(DW_ATE_unsigned)
    2252                            .dwattr $C$DW$T$13, DW_AT_name("unsigned long")
    2253                            .dwattr $C$DW$T$13, DW_AT_byte_size(0x04)
    2254                    
    2255                    $C$DW$T$219     .dwtag  DW_TAG_typedef
TI ARM Assembler PC v16.9.8 Thu Nov 22 09:24:40 2018

Tools Copyright (c) 1996-2017 Texas Instruments Incorporated
C:\Users\Einstein\AppData\Local\Temp\{C719C61D-1508-48D8-97C8-A86DFC77D700} PAGE   42

    2256                            .dwattr $C$DW$T$219, DW_AT_name("uint32")
    2257                            .dwattr $C$DW$T$219, DW_AT_type(*$C$DW$T$13)
    2258                            .dwattr $C$DW$T$219, DW_AT_language(DW_LANG_C)
    2259                            .dwattr $C$DW$T$219, DW_AT_decl_file("C:\ti\simplelink_cc13x0_sdk_2_30_00_20\source\ti\ti154st
    2260                            .dwattr $C$DW$T$219, DW_AT_decl_line(0x3f)
    2261                            .dwattr $C$DW$T$219, DW_AT_decl_column(0x19)
    2262                    
    2263                    $C$DW$T$220     .dwtag  DW_TAG_typedef
    2264                            .dwattr $C$DW$T$220, DW_AT_name("halDataAlign_t")
    2265                            .dwattr $C$DW$T$220, DW_AT_type(*$C$DW$T$219)
    2266                            .dwattr $C$DW$T$220, DW_AT_language(DW_LANG_C)
    2267                            .dwattr $C$DW$T$220, DW_AT_decl_file("C:\ti\simplelink_cc13x0_sdk_2_30_00_20\source\ti\ti154st
    2268                            .dwattr $C$DW$T$220, DW_AT_decl_line(0x43)
    2269                            .dwattr $C$DW$T$220, DW_AT_decl_column(0x19)
    2270                    
    2271                    $C$DW$T$14      .dwtag  DW_TAG_base_type
    2272                            .dwattr $C$DW$T$14, DW_AT_encoding(DW_ATE_signed)
    2273                            .dwattr $C$DW$T$14, DW_AT_name("long long")
    2274                            .dwattr $C$DW$T$14, DW_AT_byte_size(0x08)
    2275                    
    2276                    $C$DW$T$221     .dwtag  DW_TAG_typedef
    2277                            .dwattr $C$DW$T$221, DW_AT_name("int64_t")
    2278                            .dwattr $C$DW$T$221, DW_AT_type(*$C$DW$T$14)
    2279                            .dwattr $C$DW$T$221, DW_AT_language(DW_LANG_C)
    2280                            .dwattr $C$DW$T$221, DW_AT_decl_file("C:/ti/ccsv7/tools/compiler/ti-cgt-arm_16.9.8.LTS/include
    2281                            .dwattr $C$DW$T$221, DW_AT_decl_line(0x32)
    2282                            .dwattr $C$DW$T$221, DW_AT_decl_column(0x21)
    2283                    
    2284                    $C$DW$T$222     .dwtag  DW_TAG_typedef
    2285                            .dwattr $C$DW$T$222, DW_AT_name("int_fast64_t")
    2286                            .dwattr $C$DW$T$222, DW_AT_type(*$C$DW$T$221)
    2287                            .dwattr $C$DW$T$222, DW_AT_language(DW_LANG_C)
    2288                            .dwattr $C$DW$T$222, DW_AT_decl_file("C:/ti/ccsv7/tools/compiler/ti-cgt-arm_16.9.8.LTS/include
    2289                            .dwattr $C$DW$T$222, DW_AT_decl_line(0x4e)
    2290                            .dwattr $C$DW$T$222, DW_AT_decl_column(0x17)
    2291                    
    2292                    $C$DW$T$223     .dwtag  DW_TAG_typedef
    2293                            .dwattr $C$DW$T$223, DW_AT_name("int_least64_t")
    2294                            .dwattr $C$DW$T$223, DW_AT_type(*$C$DW$T$221)
    2295                            .dwattr $C$DW$T$223, DW_AT_language(DW_LANG_C)
    2296                            .dwattr $C$DW$T$223, DW_AT_decl_file("C:/ti/ccsv7/tools/compiler/ti-cgt-arm_16.9.8.LTS/include
    2297                            .dwattr $C$DW$T$223, DW_AT_decl_line(0x40)
    2298                            .dwattr $C$DW$T$223, DW_AT_decl_column(0x17)
    2299                    
    2300                    $C$DW$T$224     .dwtag  DW_TAG_typedef
    2301                            .dwattr $C$DW$T$224, DW_AT_name("intmax_t")
    2302                            .dwattr $C$DW$T$224, DW_AT_type(*$C$DW$T$14)
    2303                            .dwattr $C$DW$T$224, DW_AT_language(DW_LANG_C)
    2304                            .dwattr $C$DW$T$224, DW_AT_decl_file("C:/ti/ccsv7/tools/compiler/ti-cgt-arm_16.9.8.LTS/include
    2305                            .dwattr $C$DW$T$224, DW_AT_decl_line(0x56)
    2306                            .dwattr $C$DW$T$224, DW_AT_decl_column(0x20)
    2307                    
    2308                    $C$DW$T$15      .dwtag  DW_TAG_base_type
    2309                            .dwattr $C$DW$T$15, DW_AT_encoding(DW_ATE_unsigned)
    2310                            .dwattr $C$DW$T$15, DW_AT_name("unsigned long long")
TI ARM Assembler PC v16.9.8 Thu Nov 22 09:24:40 2018

Tools Copyright (c) 1996-2017 Texas Instruments Incorporated
C:\Users\Einstein\AppData\Local\Temp\{C719C61D-1508-48D8-97C8-A86DFC77D700} PAGE   43

    2311                            .dwattr $C$DW$T$15, DW_AT_byte_size(0x08)
    2312                    
    2313                    $C$DW$T$225     .dwtag  DW_TAG_typedef
    2314                            .dwattr $C$DW$T$225, DW_AT_name("uint64_t")
    2315                            .dwattr $C$DW$T$225, DW_AT_type(*$C$DW$T$15)
    2316                            .dwattr $C$DW$T$225, DW_AT_language(DW_LANG_C)
    2317                            .dwattr $C$DW$T$225, DW_AT_decl_file("C:/ti/ccsv7/tools/compiler/ti-cgt-arm_16.9.8.LTS/include
    2318                            .dwattr $C$DW$T$225, DW_AT_decl_line(0x33)
    2319                            .dwattr $C$DW$T$225, DW_AT_decl_column(0x20)
    2320                    
    2321                    $C$DW$T$226     .dwtag  DW_TAG_typedef
    2322                            .dwattr $C$DW$T$226, DW_AT_name("uint_fast64_t")
    2323                            .dwattr $C$DW$T$226, DW_AT_type(*$C$DW$T$225)
    2324                            .dwattr $C$DW$T$226, DW_AT_language(DW_LANG_C)
    2325                            .dwattr $C$DW$T$226, DW_AT_decl_file("C:/ti/ccsv7/tools/compiler/ti-cgt-arm_16.9.8.LTS/include
    2326                            .dwattr $C$DW$T$226, DW_AT_decl_line(0x4f)
    2327                            .dwattr $C$DW$T$226, DW_AT_decl_column(0x16)
    2328                    
    2329                    $C$DW$T$227     .dwtag  DW_TAG_typedef
    2330                            .dwattr $C$DW$T$227, DW_AT_name("uint_least64_t")
    2331                            .dwattr $C$DW$T$227, DW_AT_type(*$C$DW$T$225)
    2332                            .dwattr $C$DW$T$227, DW_AT_language(DW_LANG_C)
    2333                            .dwattr $C$DW$T$227, DW_AT_decl_file("C:/ti/ccsv7/tools/compiler/ti-cgt-arm_16.9.8.LTS/include
    2334                            .dwattr $C$DW$T$227, DW_AT_decl_line(0x41)
    2335                            .dwattr $C$DW$T$227, DW_AT_decl_column(0x16)
    2336                    
    2337                    $C$DW$T$228     .dwtag  DW_TAG_typedef
    2338                            .dwattr $C$DW$T$228, DW_AT_name("uintmax_t")
    2339                            .dwattr $C$DW$T$228, DW_AT_type(*$C$DW$T$15)
    2340                            .dwattr $C$DW$T$228, DW_AT_language(DW_LANG_C)
    2341                            .dwattr $C$DW$T$228, DW_AT_decl_file("C:/ti/ccsv7/tools/compiler/ti-cgt-arm_16.9.8.LTS/include
    2342                            .dwattr $C$DW$T$228, DW_AT_decl_line(0x57)
    2343                            .dwattr $C$DW$T$228, DW_AT_decl_column(0x20)
    2344                    
    2345                    $C$DW$T$16      .dwtag  DW_TAG_base_type
    2346                            .dwattr $C$DW$T$16, DW_AT_encoding(DW_ATE_float)
    2347                            .dwattr $C$DW$T$16, DW_AT_name("float")
    2348                            .dwattr $C$DW$T$16, DW_AT_byte_size(0x04)
    2349                    
    2350                    $C$DW$T$17      .dwtag  DW_TAG_base_type
    2351                            .dwattr $C$DW$T$17, DW_AT_encoding(DW_ATE_float)
    2352                            .dwattr $C$DW$T$17, DW_AT_name("double")
    2353                            .dwattr $C$DW$T$17, DW_AT_byte_size(0x08)
    2354                    
    2355                    $C$DW$T$18      .dwtag  DW_TAG_base_type
    2356                            .dwattr $C$DW$T$18, DW_AT_encoding(DW_ATE_float)
    2357                            .dwattr $C$DW$T$18, DW_AT_name("long double")
    2358                            .dwattr $C$DW$T$18, DW_AT_byte_size(0x08)
    2359                    
    2360                    $C$DW$T$100     .dwtag  DW_TAG_base_type
    2361                            .dwattr $C$DW$T$100, DW_AT_encoding(DW_ATE_unsigned_char)
    2362                            .dwattr $C$DW$T$100, DW_AT_name("unsigned char")
    2363                            .dwattr $C$DW$T$100, DW_AT_byte_size(0x01)
    2364                    
    2365                    
TI ARM Assembler PC v16.9.8 Thu Nov 22 09:24:40 2018

Tools Copyright (c) 1996-2017 Texas Instruments Incorporated
C:\Users\Einstein\AppData\Local\Temp\{C719C61D-1508-48D8-97C8-A86DFC77D700} PAGE   44

    2366                    $C$DW$T$148     .dwtag  DW_TAG_subroutine_type
    2367                            .dwattr $C$DW$T$148, DW_AT_type(*$C$DW$T$100)
    2368                            .dwattr $C$DW$T$148, DW_AT_language(DW_LANG_C)
    2369                    $C$DW$120       .dwtag  DW_TAG_formal_parameter
    2370                            .dwattr $C$DW$120, DW_AT_type(*$C$DW$T$74)
    2371                    
    2372                    $C$DW$121       .dwtag  DW_TAG_formal_parameter
    2373                            .dwattr $C$DW$121, DW_AT_type(*$C$DW$T$72)
    2374                    
    2375                    $C$DW$122       .dwtag  DW_TAG_formal_parameter
    2376                            .dwattr $C$DW$122, DW_AT_type(*$C$DW$T$147)
    2377                    
    2378                            .dwendtag $C$DW$T$148
    2379                    
    2380                    $C$DW$T$149     .dwtag  DW_TAG_pointer_type
    2381                            .dwattr $C$DW$T$149, DW_AT_type(*$C$DW$T$148)
    2382                            .dwattr $C$DW$T$149, DW_AT_address_class(0x20)
    2383                    
    2384                    $C$DW$T$150     .dwtag  DW_TAG_typedef
    2385                            .dwattr $C$DW$T$150, DW_AT_name("ICall_MsgMatchFn")
    2386                            .dwattr $C$DW$T$150, DW_AT_type(*$C$DW$T$149)
    2387                            .dwattr $C$DW$T$150, DW_AT_language(DW_LANG_C)
    2388                            .dwattr $C$DW$T$150, DW_AT_decl_file("C:/ti/simplelink_cc13x0_sdk_2_30_00_20/source/ti/ti154st
    2389                            .dwattr $C$DW$T$150, DW_AT_decl_line(0x1c1)
    2390                            .dwattr $C$DW$T$150, DW_AT_decl_column(0x10)
    2391                    
    2392                    
    2393                    $C$DW$T$80      .dwtag  DW_TAG_structure_type
    2394                            .dwattr $C$DW$T$80, DW_AT_name("_icall_alloc_args_t")
    2395                            .dwattr $C$DW$T$80, DW_AT_byte_size(0x0c)
    2396                    $C$DW$123       .dwtag  DW_TAG_member
    2397                            .dwattr $C$DW$123, DW_AT_type(*$C$DW$T$78)
    2398                            .dwattr $C$DW$123, DW_AT_name("hdr")
    2399                            .dwattr $C$DW$123, DW_AT_TI_symbol_name("hdr")
    2400                            .dwattr $C$DW$123, DW_AT_data_member_location[DW_OP_plus_uconst 0x0]
    2401                            .dwattr $C$DW$123, DW_AT_accessibility(DW_ACCESS_public)
    2402                            .dwattr $C$DW$123, DW_AT_decl_file("C:/ti/simplelink_cc13x0_sdk_2_30_00_20/source/ti/ti154stac
    2403                            .dwattr $C$DW$123, DW_AT_decl_line(0x1e3)
    2404                            .dwattr $C$DW$123, DW_AT_decl_column(0x15)
    2405                    
    2406                    $C$DW$124       .dwtag  DW_TAG_member
    2407                            .dwattr $C$DW$124, DW_AT_type(*$C$DW$T$79)
    2408                            .dwattr $C$DW$124, DW_AT_name("size")
    2409                            .dwattr $C$DW$124, DW_AT_TI_symbol_name("size")
    2410                            .dwattr $C$DW$124, DW_AT_data_member_location[DW_OP_plus_uconst 0x4]
    2411                            .dwattr $C$DW$124, DW_AT_accessibility(DW_ACCESS_public)
    2412                            .dwattr $C$DW$124, DW_AT_decl_file("C:/ti/simplelink_cc13x0_sdk_2_30_00_20/source/ti/ti154stac
    2413                            .dwattr $C$DW$124, DW_AT_decl_line(0x1e5)
    2414                            .dwattr $C$DW$124, DW_AT_decl_column(0x0a)
    2415                    
    2416                    $C$DW$125       .dwtag  DW_TAG_member
    2417                            .dwattr $C$DW$125, DW_AT_type(*$C$DW$T$3)
    2418                            .dwattr $C$DW$125, DW_AT_name("ptr")
    2419                            .dwattr $C$DW$125, DW_AT_TI_symbol_name("ptr")
    2420                            .dwattr $C$DW$125, DW_AT_data_member_location[DW_OP_plus_uconst 0x8]
TI ARM Assembler PC v16.9.8 Thu Nov 22 09:24:40 2018

Tools Copyright (c) 1996-2017 Texas Instruments Incorporated
C:\Users\Einstein\AppData\Local\Temp\{C719C61D-1508-48D8-97C8-A86DFC77D700} PAGE   45

    2421                            .dwattr $C$DW$125, DW_AT_accessibility(DW_ACCESS_public)
    2422                            .dwattr $C$DW$125, DW_AT_decl_file("C:/ti/simplelink_cc13x0_sdk_2_30_00_20/source/ti/ti154stac
    2423                            .dwattr $C$DW$125, DW_AT_decl_line(0x1e7)
    2424                            .dwattr $C$DW$125, DW_AT_decl_column(0x0a)
    2425                    
    2426                            .dwattr $C$DW$T$80, DW_AT_decl_file("C:/ti/simplelink_cc13x0_sdk_2_30_00_20/source/ti/ti154sta
    2427                            .dwattr $C$DW$T$80, DW_AT_decl_line(0x1e0)
    2428                            .dwattr $C$DW$T$80, DW_AT_decl_column(0x10)
    2429                            .dwendtag $C$DW$T$80
    2430                    
    2431                    $C$DW$T$229     .dwtag  DW_TAG_typedef
    2432                            .dwattr $C$DW$T$229, DW_AT_name("ICall_AllocArgs")
    2433                            .dwattr $C$DW$T$229, DW_AT_type(*$C$DW$T$80)
    2434                            .dwattr $C$DW$T$229, DW_AT_language(DW_LANG_C)
    2435                            .dwattr $C$DW$T$229, DW_AT_decl_file("C:/ti/simplelink_cc13x0_sdk_2_30_00_20/source/ti/ti154st
    2436                            .dwattr $C$DW$T$229, DW_AT_decl_line(0x1e8)
    2437                            .dwattr $C$DW$T$229, DW_AT_decl_column(0x03)
    2438                    
    2439                    
    2440                    $C$DW$T$83      .dwtag  DW_TAG_structure_type
    2441                            .dwattr $C$DW$T$83, DW_AT_name("_icall_create_task_args_t")
    2442                            .dwattr $C$DW$T$83, DW_AT_byte_size(0x10)
    2443                    $C$DW$126       .dwtag  DW_TAG_member
    2444                            .dwattr $C$DW$126, DW_AT_type(*$C$DW$T$78)
    2445                            .dwattr $C$DW$126, DW_AT_name("hdr")
    2446                            .dwattr $C$DW$126, DW_AT_TI_symbol_name("hdr")
    2447                            .dwattr $C$DW$126, DW_AT_data_member_location[DW_OP_plus_uconst 0x0]
    2448                            .dwattr $C$DW$126, DW_AT_accessibility(DW_ACCESS_public)
    2449                            .dwattr $C$DW$126, DW_AT_decl_file("C:/ti/simplelink_cc13x0_sdk_2_30_00_20/source/ti/ti154stac
    2450                            .dwattr $C$DW$126, DW_AT_decl_line(0x2bc)
    2451                            .dwattr $C$DW$126, DW_AT_decl_column(0x15)
    2452                    
    2453                    $C$DW$127       .dwtag  DW_TAG_member
    2454                            .dwattr $C$DW$127, DW_AT_type(*$C$DW$T$82)
    2455                            .dwattr $C$DW$127, DW_AT_name("entryfn")
    2456                            .dwattr $C$DW$127, DW_AT_TI_symbol_name("entryfn")
    2457                            .dwattr $C$DW$127, DW_AT_data_member_location[DW_OP_plus_uconst 0x4]
    2458                            .dwattr $C$DW$127, DW_AT_accessibility(DW_ACCESS_public)
    2459                            .dwattr $C$DW$127, DW_AT_decl_file("C:/ti/simplelink_cc13x0_sdk_2_30_00_20/source/ti/ti154stac
    2460                            .dwattr $C$DW$127, DW_AT_decl_line(0x2be)
    2461                            .dwattr $C$DW$127, DW_AT_decl_column(0x0a)
    2462                    
    2463                    $C$DW$128       .dwtag  DW_TAG_member
    2464                            .dwattr $C$DW$128, DW_AT_type(*$C$DW$T$71)
    2465                            .dwattr $C$DW$128, DW_AT_name("priority")
    2466                            .dwattr $C$DW$128, DW_AT_TI_symbol_name("priority")
    2467                            .dwattr $C$DW$128, DW_AT_data_member_location[DW_OP_plus_uconst 0x8]
    2468                            .dwattr $C$DW$128, DW_AT_accessibility(DW_ACCESS_public)
    2469                            .dwattr $C$DW$128, DW_AT_decl_file("C:/ti/simplelink_cc13x0_sdk_2_30_00_20/source/ti/ti154stac
    2470                            .dwattr $C$DW$128, DW_AT_decl_line(0x2c0)
    2471                            .dwattr $C$DW$128, DW_AT_decl_column(0x11)
    2472                    
    2473                    $C$DW$129       .dwtag  DW_TAG_member
    2474                            .dwattr $C$DW$129, DW_AT_type(*$C$DW$T$73)
    2475                            .dwattr $C$DW$129, DW_AT_name("stacksize")
TI ARM Assembler PC v16.9.8 Thu Nov 22 09:24:40 2018

Tools Copyright (c) 1996-2017 Texas Instruments Incorporated
C:\Users\Einstein\AppData\Local\Temp\{C719C61D-1508-48D8-97C8-A86DFC77D700} PAGE   46

    2476                            .dwattr $C$DW$129, DW_AT_TI_symbol_name("stacksize")
    2477                            .dwattr $C$DW$129, DW_AT_data_member_location[DW_OP_plus_uconst 0xa]
    2478                            .dwattr $C$DW$129, DW_AT_accessibility(DW_ACCESS_public)
    2479                            .dwattr $C$DW$129, DW_AT_decl_file("C:/ti/simplelink_cc13x0_sdk_2_30_00_20/source/ti/ti154stac
    2480                            .dwattr $C$DW$129, DW_AT_decl_line(0x2c2)
    2481                            .dwattr $C$DW$129, DW_AT_decl_column(0x12)
    2482                    
    2483                    $C$DW$130       .dwtag  DW_TAG_member
    2484                            .dwattr $C$DW$130, DW_AT_type(*$C$DW$T$79)
    2485                            .dwattr $C$DW$130, DW_AT_name("arg")
    2486                            .dwattr $C$DW$130, DW_AT_TI_symbol_name("arg")
    2487                            .dwattr $C$DW$130, DW_AT_data_member_location[DW_OP_plus_uconst 0xc]
    2488                            .dwattr $C$DW$130, DW_AT_accessibility(DW_ACCESS_public)
    2489                            .dwattr $C$DW$130, DW_AT_decl_file("C:/ti/simplelink_cc13x0_sdk_2_30_00_20/source/ti/ti154stac
    2490                            .dwattr $C$DW$130, DW_AT_decl_line(0x2c4)
    2491                            .dwattr $C$DW$130, DW_AT_decl_column(0x0a)
    2492                    
    2493                            .dwattr $C$DW$T$83, DW_AT_decl_file("C:/ti/simplelink_cc13x0_sdk_2_30_00_20/source/ti/ti154sta
    2494                            .dwattr $C$DW$T$83, DW_AT_decl_line(0x2b9)
    2495                            .dwattr $C$DW$T$83, DW_AT_decl_column(0x10)
    2496                            .dwendtag $C$DW$T$83
    2497                    
    2498                    $C$DW$T$230     .dwtag  DW_TAG_typedef
    2499                            .dwattr $C$DW$T$230, DW_AT_name("ICall_CreateTaskArgs")
    2500                            .dwattr $C$DW$T$230, DW_AT_type(*$C$DW$T$83)
    2501                            .dwattr $C$DW$T$230, DW_AT_language(DW_LANG_C)
    2502                            .dwattr $C$DW$T$230, DW_AT_decl_file("C:/ti/simplelink_cc13x0_sdk_2_30_00_20/source/ti/ti154st
    2503                            .dwattr $C$DW$T$230, DW_AT_decl_line(0x2c5)
    2504                            .dwattr $C$DW$T$230, DW_AT_decl_column(0x03)
    2505                    
    2506                    
    2507                    $C$DW$T$92      .dwtag  DW_TAG_structure_type
    2508                            .dwattr $C$DW$T$92, DW_AT_name("_icall_enroll_service_args_t")
    2509                            .dwattr $C$DW$T$92, DW_AT_byte_size(0x14)
    2510                    $C$DW$131       .dwtag  DW_TAG_member
    2511                            .dwattr $C$DW$131, DW_AT_type(*$C$DW$T$78)
    2512                            .dwattr $C$DW$131, DW_AT_name("hdr")
    2513                            .dwattr $C$DW$131, DW_AT_TI_symbol_name("hdr")
    2514                            .dwattr $C$DW$131, DW_AT_data_member_location[DW_OP_plus_uconst 0x0]
    2515                            .dwattr $C$DW$131, DW_AT_accessibility(DW_ACCESS_public)
    2516                            .dwattr $C$DW$131, DW_AT_decl_file("C:/ti/simplelink_cc13x0_sdk_2_30_00_20/source/ti/ti154stac
    2517                            .dwattr $C$DW$131, DW_AT_decl_line(0x3a9)
    2518                            .dwattr $C$DW$131, DW_AT_decl_column(0x15)
    2519                    
    2520                    $C$DW$132       .dwtag  DW_TAG_member
    2521                            .dwattr $C$DW$132, DW_AT_type(*$C$DW$T$74)
    2522                            .dwattr $C$DW$132, DW_AT_name("service")
    2523                            .dwattr $C$DW$132, DW_AT_TI_symbol_name("service")
    2524                            .dwattr $C$DW$132, DW_AT_data_member_location[DW_OP_plus_uconst 0x4]
    2525                            .dwattr $C$DW$132, DW_AT_accessibility(DW_ACCESS_public)
    2526                            .dwattr $C$DW$132, DW_AT_decl_file("C:/ti/simplelink_cc13x0_sdk_2_30_00_20/source/ti/ti154stac
    2527                            .dwattr $C$DW$132, DW_AT_decl_line(0x3ab)
    2528                            .dwattr $C$DW$132, DW_AT_decl_column(0x15)
    2529                    
    2530                    $C$DW$133       .dwtag  DW_TAG_member
TI ARM Assembler PC v16.9.8 Thu Nov 22 09:24:40 2018

Tools Copyright (c) 1996-2017 Texas Instruments Incorporated
C:\Users\Einstein\AppData\Local\Temp\{C719C61D-1508-48D8-97C8-A86DFC77D700} PAGE   47

    2531                            .dwattr $C$DW$133, DW_AT_type(*$C$DW$T$90)
    2532                            .dwattr $C$DW$133, DW_AT_name("fn")
    2533                            .dwattr $C$DW$133, DW_AT_TI_symbol_name("fn")
    2534                            .dwattr $C$DW$133, DW_AT_data_member_location[DW_OP_plus_uconst 0x8]
    2535                            .dwattr $C$DW$133, DW_AT_accessibility(DW_ACCESS_public)
    2536                            .dwattr $C$DW$133, DW_AT_decl_file("C:/ti/simplelink_cc13x0_sdk_2_30_00_20/source/ti/ti154stac
    2537                            .dwattr $C$DW$133, DW_AT_decl_line(0x3ad)
    2538                            .dwattr $C$DW$133, DW_AT_decl_column(0x15)
    2539                    
    2540                    $C$DW$134       .dwtag  DW_TAG_member
    2541                            .dwattr $C$DW$134, DW_AT_type(*$C$DW$T$72)
    2542                            .dwattr $C$DW$134, DW_AT_name("entity")
    2543                            .dwattr $C$DW$134, DW_AT_TI_symbol_name("entity")
    2544                            .dwattr $C$DW$134, DW_AT_data_member_location[DW_OP_plus_uconst 0xc]
    2545                            .dwattr $C$DW$134, DW_AT_accessibility(DW_ACCESS_public)
    2546                            .dwattr $C$DW$134, DW_AT_decl_file("C:/ti/simplelink_cc13x0_sdk_2_30_00_20/source/ti/ti154stac
    2547                            .dwattr $C$DW$134, DW_AT_decl_line(0x3af)
    2548                            .dwattr $C$DW$134, DW_AT_decl_column(0x12)
    2549                    
    2550                    $C$DW$135       .dwtag  DW_TAG_member
    2551                            .dwattr $C$DW$135, DW_AT_type(*$C$DW$T$91)
    2552                            .dwattr $C$DW$135, DW_AT_name("msgSyncHdl")
    2553                            .dwattr $C$DW$135, DW_AT_TI_symbol_name("msgSyncHdl")
    2554                            .dwattr $C$DW$135, DW_AT_data_member_location[DW_OP_plus_uconst 0x10]
    2555                            .dwattr $C$DW$135, DW_AT_accessibility(DW_ACCESS_public)
    2556                            .dwattr $C$DW$135, DW_AT_decl_file("C:/ti/simplelink_cc13x0_sdk_2_30_00_20/source/ti/ti154stac
    2557                            .dwattr $C$DW$135, DW_AT_decl_line(0x3b2)
    2558                            .dwattr $C$DW$135, DW_AT_decl_column(0x14)
    2559                    
    2560                            .dwattr $C$DW$T$92, DW_AT_decl_file("C:/ti/simplelink_cc13x0_sdk_2_30_00_20/source/ti/ti154sta
    2561                            .dwattr $C$DW$T$92, DW_AT_decl_line(0x3a6)
    2562                            .dwattr $C$DW$T$92, DW_AT_decl_column(0x10)
    2563                            .dwendtag $C$DW$T$92
    2564                    
    2565                    $C$DW$T$231     .dwtag  DW_TAG_typedef
    2566                            .dwattr $C$DW$T$231, DW_AT_name("ICall_EnrollServiceArgs")
    2567                            .dwattr $C$DW$T$231, DW_AT_type(*$C$DW$T$92)
    2568                            .dwattr $C$DW$T$231, DW_AT_language(DW_LANG_C)
    2569                            .dwattr $C$DW$T$231, DW_AT_decl_file("C:/ti/simplelink_cc13x0_sdk_2_30_00_20/source/ti/ti154st
    2570                            .dwattr $C$DW$T$231, DW_AT_decl_line(0x3b3)
    2571                            .dwattr $C$DW$T$231, DW_AT_decl_column(0x03)
    2572                    
    2573                    
    2574                    $C$DW$T$93      .dwtag  DW_TAG_structure_type
    2575                            .dwattr $C$DW$T$93, DW_AT_name("_icall_entity2service_args_t")
    2576                            .dwattr $C$DW$T$93, DW_AT_byte_size(0x08)
    2577                    $C$DW$136       .dwtag  DW_TAG_member
    2578                            .dwattr $C$DW$136, DW_AT_type(*$C$DW$T$78)
    2579                            .dwattr $C$DW$136, DW_AT_name("hdr")
    2580                            .dwattr $C$DW$136, DW_AT_TI_symbol_name("hdr")
    2581                            .dwattr $C$DW$136, DW_AT_data_member_location[DW_OP_plus_uconst 0x0]
    2582                            .dwattr $C$DW$136, DW_AT_accessibility(DW_ACCESS_public)
    2583                            .dwattr $C$DW$136, DW_AT_decl_file("C:/ti/simplelink_cc13x0_sdk_2_30_00_20/source/ti/ti154stac
    2584                            .dwattr $C$DW$136, DW_AT_decl_line(0x23e)
    2585                            .dwattr $C$DW$136, DW_AT_decl_column(0x15)
TI ARM Assembler PC v16.9.8 Thu Nov 22 09:24:40 2018

Tools Copyright (c) 1996-2017 Texas Instruments Incorporated
C:\Users\Einstein\AppData\Local\Temp\{C719C61D-1508-48D8-97C8-A86DFC77D700} PAGE   48

    2586                    
    2587                    $C$DW$137       .dwtag  DW_TAG_member
    2588                            .dwattr $C$DW$137, DW_AT_type(*$C$DW$T$72)
    2589                            .dwattr $C$DW$137, DW_AT_name("entityId")
    2590                            .dwattr $C$DW$137, DW_AT_TI_symbol_name("entityId")
    2591                            .dwattr $C$DW$137, DW_AT_data_member_location[DW_OP_plus_uconst 0x4]
    2592                            .dwattr $C$DW$137, DW_AT_accessibility(DW_ACCESS_public)
    2593                            .dwattr $C$DW$137, DW_AT_decl_file("C:/ti/simplelink_cc13x0_sdk_2_30_00_20/source/ti/ti154stac
    2594                            .dwattr $C$DW$137, DW_AT_decl_line(0x240)
    2595                            .dwattr $C$DW$137, DW_AT_decl_column(0x12)
    2596                    
    2597                    $C$DW$138       .dwtag  DW_TAG_member
    2598                            .dwattr $C$DW$138, DW_AT_type(*$C$DW$T$74)
    2599                            .dwattr $C$DW$138, DW_AT_name("servId")
    2600                            .dwattr $C$DW$138, DW_AT_TI_symbol_name("servId")
    2601                            .dwattr $C$DW$138, DW_AT_data_member_location[DW_OP_plus_uconst 0x6]
    2602                            .dwattr $C$DW$138, DW_AT_accessibility(DW_ACCESS_public)
    2603                            .dwattr $C$DW$138, DW_AT_decl_file("C:/ti/simplelink_cc13x0_sdk_2_30_00_20/source/ti/ti154stac
    2604                            .dwattr $C$DW$138, DW_AT_decl_line(0x242)
    2605                            .dwattr $C$DW$138, DW_AT_decl_column(0x15)
    2606                    
    2607                            .dwattr $C$DW$T$93, DW_AT_decl_file("C:/ti/simplelink_cc13x0_sdk_2_30_00_20/source/ti/ti154sta
    2608                            .dwattr $C$DW$T$93, DW_AT_decl_line(0x23b)
    2609                            .dwattr $C$DW$T$93, DW_AT_decl_column(0x10)
    2610                            .dwendtag $C$DW$T$93
    2611                    
    2612                    $C$DW$T$232     .dwtag  DW_TAG_typedef
    2613                            .dwattr $C$DW$T$232, DW_AT_name("ICall_EntityId2ServiceIdArgs")
    2614                            .dwattr $C$DW$T$232, DW_AT_type(*$C$DW$T$93)
    2615                            .dwattr $C$DW$T$232, DW_AT_language(DW_LANG_C)
    2616                            .dwattr $C$DW$T$232, DW_AT_decl_file("C:/ti/simplelink_cc13x0_sdk_2_30_00_20/source/ti/ti154st
    2617                            .dwattr $C$DW$T$232, DW_AT_decl_line(0x243)
    2618                            .dwattr $C$DW$T$232, DW_AT_decl_column(0x03)
    2619                    
    2620                    
    2621                    $C$DW$T$94      .dwtag  DW_TAG_structure_type
    2622                            .dwattr $C$DW$T$94, DW_AT_name("_icall_fetch_msg_args_t")
    2623                            .dwattr $C$DW$T$94, DW_AT_byte_size(0x0c)
    2624                    $C$DW$139       .dwtag  DW_TAG_member
    2625                            .dwattr $C$DW$139, DW_AT_type(*$C$DW$T$78)
    2626                            .dwattr $C$DW$139, DW_AT_name("hdr")
    2627                            .dwattr $C$DW$139, DW_AT_TI_symbol_name("hdr")
    2628                            .dwattr $C$DW$139, DW_AT_data_member_location[DW_OP_plus_uconst 0x0]
    2629                            .dwattr $C$DW$139, DW_AT_accessibility(DW_ACCESS_public)
    2630                            .dwattr $C$DW$139, DW_AT_decl_file("C:/ti/simplelink_cc13x0_sdk_2_30_00_20/source/ti/ti154stac
    2631                            .dwattr $C$DW$139, DW_AT_decl_line(0x20c)
    2632                            .dwattr $C$DW$139, DW_AT_decl_column(0x15)
    2633                    
    2634                    $C$DW$140       .dwtag  DW_TAG_member
    2635                            .dwattr $C$DW$140, DW_AT_type(*$C$DW$T$76)
    2636                            .dwattr $C$DW$140, DW_AT_name("src")
    2637                            .dwattr $C$DW$140, DW_AT_TI_symbol_name("src")
    2638                            .dwattr $C$DW$140, DW_AT_data_member_location[DW_OP_plus_uconst 0x4]
    2639                            .dwattr $C$DW$140, DW_AT_accessibility(DW_ACCESS_public)
    2640                            .dwattr $C$DW$140, DW_AT_decl_file("C:/ti/simplelink_cc13x0_sdk_2_30_00_20/source/ti/ti154stac
TI ARM Assembler PC v16.9.8 Thu Nov 22 09:24:40 2018

Tools Copyright (c) 1996-2017 Texas Instruments Incorporated
C:\Users\Einstein\AppData\Local\Temp\{C719C61D-1508-48D8-97C8-A86DFC77D700} PAGE   49

    2641                            .dwattr $C$DW$140, DW_AT_decl_line(0x214)
    2642                            .dwattr $C$DW$140, DW_AT_decl_column(0x05)
    2643                    
    2644                    $C$DW$141       .dwtag  DW_TAG_member
    2645                            .dwattr $C$DW$141, DW_AT_type(*$C$DW$T$72)
    2646                            .dwattr $C$DW$141, DW_AT_name("dest")
    2647                            .dwattr $C$DW$141, DW_AT_TI_symbol_name("dest")
    2648                            .dwattr $C$DW$141, DW_AT_data_member_location[DW_OP_plus_uconst 0x6]
    2649                            .dwattr $C$DW$141, DW_AT_accessibility(DW_ACCESS_public)
    2650                            .dwattr $C$DW$141, DW_AT_decl_file("C:/ti/simplelink_cc13x0_sdk_2_30_00_20/source/ti/ti154stac
    2651                            .dwattr $C$DW$141, DW_AT_decl_line(0x216)
    2652                            .dwattr $C$DW$141, DW_AT_decl_column(0x12)
    2653                    
    2654                    $C$DW$142       .dwtag  DW_TAG_member
    2655                            .dwattr $C$DW$142, DW_AT_type(*$C$DW$T$3)
    2656                            .dwattr $C$DW$142, DW_AT_name("msg")
    2657                            .dwattr $C$DW$142, DW_AT_TI_symbol_name("msg")
    2658                            .dwattr $C$DW$142, DW_AT_data_member_location[DW_OP_plus_uconst 0x8]
    2659                            .dwattr $C$DW$142, DW_AT_accessibility(DW_ACCESS_public)
    2660                            .dwattr $C$DW$142, DW_AT_decl_file("C:/ti/simplelink_cc13x0_sdk_2_30_00_20/source/ti/ti154stac
    2661                            .dwattr $C$DW$142, DW_AT_decl_line(0x218)
    2662                            .dwattr $C$DW$142, DW_AT_decl_column(0x09)
    2663                    
    2664                            .dwattr $C$DW$T$94, DW_AT_decl_file("C:/ti/simplelink_cc13x0_sdk_2_30_00_20/source/ti/ti154sta
    2665                            .dwattr $C$DW$T$94, DW_AT_decl_line(0x209)
    2666                            .dwattr $C$DW$T$94, DW_AT_decl_column(0x10)
    2667                            .dwendtag $C$DW$T$94
    2668                    
    2669                    $C$DW$T$233     .dwtag  DW_TAG_typedef
    2670                            .dwattr $C$DW$T$233, DW_AT_name("ICall_FetchMsgArgs")
    2671                            .dwattr $C$DW$T$233, DW_AT_type(*$C$DW$T$94)
    2672                            .dwattr $C$DW$T$233, DW_AT_language(DW_LANG_C)
    2673                            .dwattr $C$DW$T$233, DW_AT_decl_file("C:/ti/simplelink_cc13x0_sdk_2_30_00_20/source/ti/ti154st
    2674                            .dwattr $C$DW$T$233, DW_AT_decl_line(0x219)
    2675                            .dwattr $C$DW$T$233, DW_AT_decl_column(0x03)
    2676                    
    2677                    
    2678                    $C$DW$T$95      .dwtag  DW_TAG_structure_type
    2679                            .dwattr $C$DW$T$95, DW_AT_name("_icall_free_args_t")
    2680                            .dwattr $C$DW$T$95, DW_AT_byte_size(0x08)
    2681                    $C$DW$143       .dwtag  DW_TAG_member
    2682                            .dwattr $C$DW$143, DW_AT_type(*$C$DW$T$78)
    2683                            .dwattr $C$DW$143, DW_AT_name("hdr")
    2684                            .dwattr $C$DW$143, DW_AT_TI_symbol_name("hdr")
    2685                            .dwattr $C$DW$143, DW_AT_data_member_location[DW_OP_plus_uconst 0x0]
    2686                            .dwattr $C$DW$143, DW_AT_accessibility(DW_ACCESS_public)
    2687                            .dwattr $C$DW$143, DW_AT_decl_file("C:/ti/simplelink_cc13x0_sdk_2_30_00_20/source/ti/ti154stac
    2688                            .dwattr $C$DW$143, DW_AT_decl_line(0x1ee)
    2689                            .dwattr $C$DW$143, DW_AT_decl_column(0x15)
    2690                    
    2691                    $C$DW$144       .dwtag  DW_TAG_member
    2692                            .dwattr $C$DW$144, DW_AT_type(*$C$DW$T$3)
    2693                            .dwattr $C$DW$144, DW_AT_name("ptr")
    2694                            .dwattr $C$DW$144, DW_AT_TI_symbol_name("ptr")
    2695                            .dwattr $C$DW$144, DW_AT_data_member_location[DW_OP_plus_uconst 0x4]
TI ARM Assembler PC v16.9.8 Thu Nov 22 09:24:40 2018

Tools Copyright (c) 1996-2017 Texas Instruments Incorporated
C:\Users\Einstein\AppData\Local\Temp\{C719C61D-1508-48D8-97C8-A86DFC77D700} PAGE   50

    2696                            .dwattr $C$DW$144, DW_AT_accessibility(DW_ACCESS_public)
    2697                            .dwattr $C$DW$144, DW_AT_decl_file("C:/ti/simplelink_cc13x0_sdk_2_30_00_20/source/ti/ti154stac
    2698                            .dwattr $C$DW$144, DW_AT_decl_line(0x1f0)
    2699                            .dwattr $C$DW$144, DW_AT_decl_column(0x0a)
    2700                    
    2701                            .dwattr $C$DW$T$95, DW_AT_decl_file("C:/ti/simplelink_cc13x0_sdk_2_30_00_20/source/ti/ti154sta
    2702                            .dwattr $C$DW$T$95, DW_AT_decl_line(0x1eb)
    2703                            .dwattr $C$DW$T$95, DW_AT_decl_column(0x10)
    2704                            .dwendtag $C$DW$T$95
    2705                    
    2706                    $C$DW$T$234     .dwtag  DW_TAG_typedef
    2707                            .dwattr $C$DW$T$234, DW_AT_name("ICall_FreeArgs")
    2708                            .dwattr $C$DW$T$234, DW_AT_type(*$C$DW$T$95)
    2709                            .dwattr $C$DW$T$234, DW_AT_language(DW_LANG_C)
    2710                            .dwattr $C$DW$T$234, DW_AT_decl_file("C:/ti/simplelink_cc13x0_sdk_2_30_00_20/source/ti/ti154st
    2711                            .dwattr $C$DW$T$234, DW_AT_decl_line(0x1f1)
    2712                            .dwattr $C$DW$T$234, DW_AT_decl_column(0x03)
    2713                    
    2714                    
    2715                    $C$DW$T$97      .dwtag  DW_TAG_structure_type
    2716                            .dwattr $C$DW$T$97, DW_AT_name("_icall_func_args_hdr_t")
    2717                            .dwattr $C$DW$T$97, DW_AT_byte_size(0x04)
    2718                    $C$DW$145       .dwtag  DW_TAG_member
    2719                            .dwattr $C$DW$145, DW_AT_type(*$C$DW$T$74)
    2720                            .dwattr $C$DW$145, DW_AT_name("service")
    2721                            .dwattr $C$DW$145, DW_AT_TI_symbol_name("service")
    2722                            .dwattr $C$DW$145, DW_AT_data_member_location[DW_OP_plus_uconst 0x0]
    2723                            .dwattr $C$DW$145, DW_AT_accessibility(DW_ACCESS_public)
    2724                            .dwattr $C$DW$145, DW_AT_decl_file("C:/ti/simplelink_cc13x0_sdk_2_30_00_20/source/ti/ti154stac
    2725                            .dwattr $C$DW$145, DW_AT_decl_line(0x1ce)
    2726                            .dwattr $C$DW$145, DW_AT_decl_column(0x15)
    2727                    
    2728                    $C$DW$146       .dwtag  DW_TAG_member
    2729                            .dwattr $C$DW$146, DW_AT_type(*$C$DW$T$96)
    2730                            .dwattr $C$DW$146, DW_AT_name("func")
    2731                            .dwattr $C$DW$146, DW_AT_TI_symbol_name("func")
    2732                            .dwattr $C$DW$146, DW_AT_data_member_location[DW_OP_plus_uconst 0x2]
    2733                            .dwattr $C$DW$146, DW_AT_accessibility(DW_ACCESS_public)
    2734                            .dwattr $C$DW$146, DW_AT_decl_file("C:/ti/simplelink_cc13x0_sdk_2_30_00_20/source/ti/ti154stac
    2735                            .dwattr $C$DW$146, DW_AT_decl_line(0x1d0)
    2736                            .dwattr $C$DW$146, DW_AT_decl_column(0x10)
    2737                    
    2738                            .dwattr $C$DW$T$97, DW_AT_decl_file("C:/ti/simplelink_cc13x0_sdk_2_30_00_20/source/ti/ti154sta
    2739                            .dwattr $C$DW$T$97, DW_AT_decl_line(0x1cb)
    2740                            .dwattr $C$DW$T$97, DW_AT_decl_column(0x10)
    2741                            .dwendtag $C$DW$T$97
    2742                    
    2743                    $C$DW$T$78      .dwtag  DW_TAG_typedef
    2744                            .dwattr $C$DW$T$78, DW_AT_name("ICall_FuncArgsHdr")
    2745                            .dwattr $C$DW$T$78, DW_AT_type(*$C$DW$T$97)
    2746                            .dwattr $C$DW$T$78, DW_AT_language(DW_LANG_C)
    2747                            .dwattr $C$DW$T$78, DW_AT_decl_file("C:/ti/simplelink_cc13x0_sdk_2_30_00_20/source/ti/ti154sta
    2748                            .dwattr $C$DW$T$78, DW_AT_decl_line(0x1d1)
    2749                            .dwattr $C$DW$T$78, DW_AT_decl_column(0x03)
    2750                    
TI ARM Assembler PC v16.9.8 Thu Nov 22 09:24:40 2018

Tools Copyright (c) 1996-2017 Texas Instruments Incorporated
C:\Users\Einstein\AppData\Local\Temp\{C719C61D-1508-48D8-97C8-A86DFC77D700} PAGE   51

    2751                    $C$DW$T$87      .dwtag  DW_TAG_pointer_type
    2752                            .dwattr $C$DW$T$87, DW_AT_type(*$C$DW$T$78)
    2753                            .dwattr $C$DW$T$87, DW_AT_address_class(0x20)
    2754                    
    2755                    
    2756                    $C$DW$T$98      .dwtag  DW_TAG_structure_type
    2757                            .dwattr $C$DW$T$98, DW_AT_name("_icall_get_entity_id_args_t")
    2758                            .dwattr $C$DW$T$98, DW_AT_byte_size(0x06)
    2759                    $C$DW$147       .dwtag  DW_TAG_member
    2760                            .dwattr $C$DW$147, DW_AT_type(*$C$DW$T$78)
    2761                            .dwattr $C$DW$147, DW_AT_name("hdr")
    2762                            .dwattr $C$DW$147, DW_AT_TI_symbol_name("hdr")
    2763                            .dwattr $C$DW$147, DW_AT_data_member_location[DW_OP_plus_uconst 0x0]
    2764                            .dwattr $C$DW$147, DW_AT_accessibility(DW_ACCESS_public)
    2765                            .dwattr $C$DW$147, DW_AT_decl_file("C:/ti/simplelink_cc13x0_sdk_2_30_00_20/source/ti/ti154stac
    2766                            .dwattr $C$DW$147, DW_AT_decl_line(0x362)
    2767                            .dwattr $C$DW$147, DW_AT_decl_column(0x15)
    2768                    
    2769                    $C$DW$148       .dwtag  DW_TAG_member
    2770                            .dwattr $C$DW$148, DW_AT_type(*$C$DW$T$72)
    2771                            .dwattr $C$DW$148, DW_AT_name("entity")
    2772                            .dwattr $C$DW$148, DW_AT_TI_symbol_name("entity")
    2773                            .dwattr $C$DW$148, DW_AT_data_member_location[DW_OP_plus_uconst 0x4]
    2774                            .dwattr $C$DW$148, DW_AT_accessibility(DW_ACCESS_public)
    2775                            .dwattr $C$DW$148, DW_AT_decl_file("C:/ti/simplelink_cc13x0_sdk_2_30_00_20/source/ti/ti154stac
    2776                            .dwattr $C$DW$148, DW_AT_decl_line(0x364)
    2777                            .dwattr $C$DW$148, DW_AT_decl_column(0x12)
    2778                    
    2779                            .dwattr $C$DW$T$98, DW_AT_decl_file("C:/ti/simplelink_cc13x0_sdk_2_30_00_20/source/ti/ti154sta
    2780                            .dwattr $C$DW$T$98, DW_AT_decl_line(0x35f)
    2781                            .dwattr $C$DW$T$98, DW_AT_decl_column(0x10)
    2782                            .dwendtag $C$DW$T$98
    2783                    
    2784                    $C$DW$T$235     .dwtag  DW_TAG_typedef
    2785                            .dwattr $C$DW$T$235, DW_AT_name("ICall_GetEntityIdArgs")
    2786                            .dwattr $C$DW$T$235, DW_AT_type(*$C$DW$T$98)
    2787                            .dwattr $C$DW$T$235, DW_AT_language(DW_LANG_C)
    2788                            .dwattr $C$DW$T$235, DW_AT_decl_file("C:/ti/simplelink_cc13x0_sdk_2_30_00_20/source/ti/ti154st
    2789                            .dwattr $C$DW$T$235, DW_AT_decl_line(0x365)
    2790                            .dwattr $C$DW$T$235, DW_AT_decl_column(0x03)
    2791                    
    2792                    
    2793                    $C$DW$T$99      .dwtag  DW_TAG_structure_type
    2794                            .dwattr $C$DW$T$99, DW_AT_name("_icall_get_local_msg_entity_id_args_t")
    2795                            .dwattr $C$DW$T$99, DW_AT_byte_size(0x08)
    2796                    $C$DW$149       .dwtag  DW_TAG_member
    2797                            .dwattr $C$DW$149, DW_AT_type(*$C$DW$T$78)
    2798                            .dwattr $C$DW$149, DW_AT_name("hdr")
    2799                            .dwattr $C$DW$149, DW_AT_TI_symbol_name("hdr")
    2800                            .dwattr $C$DW$149, DW_AT_data_member_location[DW_OP_plus_uconst 0x0]
    2801                            .dwattr $C$DW$149, DW_AT_accessibility(DW_ACCESS_public)
    2802                            .dwattr $C$DW$149, DW_AT_decl_file("C:/ti/simplelink_cc13x0_sdk_2_30_00_20/source/ti/ti154stac
    2803                            .dwattr $C$DW$149, DW_AT_decl_line(0x3d1)
    2804                            .dwattr $C$DW$149, DW_AT_decl_column(0x15)
    2805                    
TI ARM Assembler PC v16.9.8 Thu Nov 22 09:24:40 2018

Tools Copyright (c) 1996-2017 Texas Instruments Incorporated
C:\Users\Einstein\AppData\Local\Temp\{C719C61D-1508-48D8-97C8-A86DFC77D700} PAGE   52

    2806                    $C$DW$150       .dwtag  DW_TAG_member
    2807                            .dwattr $C$DW$150, DW_AT_type(*$C$DW$T$74)
    2808                            .dwattr $C$DW$150, DW_AT_name("service")
    2809                            .dwattr $C$DW$150, DW_AT_TI_symbol_name("service")
    2810                            .dwattr $C$DW$150, DW_AT_data_member_location[DW_OP_plus_uconst 0x4]
    2811                            .dwattr $C$DW$150, DW_AT_accessibility(DW_ACCESS_public)
    2812                            .dwattr $C$DW$150, DW_AT_decl_file("C:/ti/simplelink_cc13x0_sdk_2_30_00_20/source/ti/ti154stac
    2813                            .dwattr $C$DW$150, DW_AT_decl_line(0x3d3)
    2814                            .dwattr $C$DW$150, DW_AT_decl_column(0x15)
    2815                    
    2816                    $C$DW$151       .dwtag  DW_TAG_member
    2817                            .dwattr $C$DW$151, DW_AT_type(*$C$DW$T$72)
    2818                            .dwattr $C$DW$151, DW_AT_name("entity")
    2819                            .dwattr $C$DW$151, DW_AT_TI_symbol_name("entity")
    2820                            .dwattr $C$DW$151, DW_AT_data_member_location[DW_OP_plus_uconst 0x6]
    2821                            .dwattr $C$DW$151, DW_AT_accessibility(DW_ACCESS_public)
    2822                            .dwattr $C$DW$151, DW_AT_decl_file("C:/ti/simplelink_cc13x0_sdk_2_30_00_20/source/ti/ti154stac
    2823                            .dwattr $C$DW$151, DW_AT_decl_line(0x3d5)
    2824                            .dwattr $C$DW$151, DW_AT_decl_column(0x12)
    2825                    
    2826                    $C$DW$152       .dwtag  DW_TAG_member
    2827                            .dwattr $C$DW$152, DW_AT_type(*$C$DW$T$71)
    2828                            .dwattr $C$DW$152, DW_AT_name("localId")
    2829                            .dwattr $C$DW$152, DW_AT_TI_symbol_name("localId")
    2830                            .dwattr $C$DW$152, DW_AT_data_member_location[DW_OP_plus_uconst 0x7]
    2831                            .dwattr $C$DW$152, DW_AT_accessibility(DW_ACCESS_public)
    2832                            .dwattr $C$DW$152, DW_AT_decl_file("C:/ti/simplelink_cc13x0_sdk_2_30_00_20/source/ti/ti154stac
    2833                            .dwattr $C$DW$152, DW_AT_decl_line(0x3d7)
    2834                            .dwattr $C$DW$152, DW_AT_decl_column(0x11)
    2835                    
    2836                            .dwattr $C$DW$T$99, DW_AT_decl_file("C:/ti/simplelink_cc13x0_sdk_2_30_00_20/source/ti/ti154sta
    2837                            .dwattr $C$DW$T$99, DW_AT_decl_line(0x3ce)
    2838                            .dwattr $C$DW$T$99, DW_AT_decl_column(0x10)
    2839                            .dwendtag $C$DW$T$99
    2840                    
    2841                    $C$DW$T$236     .dwtag  DW_TAG_typedef
    2842                            .dwattr $C$DW$T$236, DW_AT_name("ICall_GetLocalMsgEntityIdArgs")
    2843                            .dwattr $C$DW$T$236, DW_AT_type(*$C$DW$T$99)
    2844                            .dwattr $C$DW$T$236, DW_AT_language(DW_LANG_C)
    2845                            .dwattr $C$DW$T$236, DW_AT_decl_file("C:/ti/simplelink_cc13x0_sdk_2_30_00_20/source/ti/ti154st
    2846                            .dwattr $C$DW$T$236, DW_AT_decl_line(0x3d8)
    2847                            .dwattr $C$DW$T$236, DW_AT_decl_column(0x03)
    2848                    
    2849                    
    2850                    $C$DW$T$101     .dwtag  DW_TAG_structure_type
    2851                            .dwattr $C$DW$T$101, DW_AT_name("_icall_getbool_args_t")
    2852                            .dwattr $C$DW$T$101, DW_AT_byte_size(0x06)
    2853                    $C$DW$153       .dwtag  DW_TAG_member
    2854                            .dwattr $C$DW$153, DW_AT_type(*$C$DW$T$78)
    2855                            .dwattr $C$DW$153, DW_AT_name("hdr")
    2856                            .dwattr $C$DW$153, DW_AT_TI_symbol_name("hdr")
    2857                            .dwattr $C$DW$153, DW_AT_data_member_location[DW_OP_plus_uconst 0x0]
    2858                            .dwattr $C$DW$153, DW_AT_accessibility(DW_ACCESS_public)
    2859                            .dwattr $C$DW$153, DW_AT_decl_file("C:/ti/simplelink_cc13x0_sdk_2_30_00_20/source/ti/ti154stac
    2860                            .dwattr $C$DW$153, DW_AT_decl_line(0x274)
TI ARM Assembler PC v16.9.8 Thu Nov 22 09:24:40 2018

Tools Copyright (c) 1996-2017 Texas Instruments Incorporated
C:\Users\Einstein\AppData\Local\Temp\{C719C61D-1508-48D8-97C8-A86DFC77D700} PAGE   53

    2861                            .dwattr $C$DW$153, DW_AT_decl_column(0x15)
    2862                    
    2863                    $C$DW$154       .dwtag  DW_TAG_member
    2864                            .dwattr $C$DW$154, DW_AT_type(*$C$DW$T$100)
    2865                            .dwattr $C$DW$154, DW_AT_name("value")
    2866                            .dwattr $C$DW$154, DW_AT_TI_symbol_name("value")
    2867                            .dwattr $C$DW$154, DW_AT_data_member_location[DW_OP_plus_uconst 0x4]
    2868                            .dwattr $C$DW$154, DW_AT_accessibility(DW_ACCESS_public)
    2869                            .dwattr $C$DW$154, DW_AT_decl_file("C:/ti/simplelink_cc13x0_sdk_2_30_00_20/source/ti/ti154stac
    2870                            .dwattr $C$DW$154, DW_AT_decl_line(0x276)
    2871                            .dwattr $C$DW$154, DW_AT_decl_column(0x08)
    2872                    
    2873                            .dwattr $C$DW$T$101, DW_AT_decl_file("C:/ti/simplelink_cc13x0_sdk_2_30_00_20/source/ti/ti154st
    2874                            .dwattr $C$DW$T$101, DW_AT_decl_line(0x271)
    2875                            .dwattr $C$DW$T$101, DW_AT_decl_column(0x10)
    2876                            .dwendtag $C$DW$T$101
    2877                    
    2878                    $C$DW$T$237     .dwtag  DW_TAG_typedef
    2879                            .dwattr $C$DW$T$237, DW_AT_name("ICall_GetBoolArgs")
    2880                            .dwattr $C$DW$T$237, DW_AT_type(*$C$DW$T$101)
    2881                            .dwattr $C$DW$T$237, DW_AT_language(DW_LANG_C)
    2882                            .dwattr $C$DW$T$237, DW_AT_decl_file("C:/ti/simplelink_cc13x0_sdk_2_30_00_20/source/ti/ti154st
    2883                            .dwattr $C$DW$T$237, DW_AT_decl_line(0x277)
    2884                            .dwattr $C$DW$T$237, DW_AT_decl_column(0x03)
    2885                    
    2886                    
    2887                    $C$DW$T$102     .dwtag  DW_TAG_structure_type
    2888                            .dwattr $C$DW$T$102, DW_AT_name("_icall_getuint32_args_t")
    2889                            .dwattr $C$DW$T$102, DW_AT_byte_size(0x08)
    2890                    $C$DW$155       .dwtag  DW_TAG_member
    2891                            .dwattr $C$DW$155, DW_AT_type(*$C$DW$T$78)
    2892                            .dwattr $C$DW$155, DW_AT_name("hdr")
    2893                            .dwattr $C$DW$155, DW_AT_TI_symbol_name("hdr")
    2894                            .dwattr $C$DW$155, DW_AT_data_member_location[DW_OP_plus_uconst 0x0]
    2895                            .dwattr $C$DW$155, DW_AT_accessibility(DW_ACCESS_public)
    2896                            .dwattr $C$DW$155, DW_AT_decl_file("C:/ti/simplelink_cc13x0_sdk_2_30_00_20/source/ti/ti154stac
    2897                            .dwattr $C$DW$155, DW_AT_decl_line(0x269)
    2898                            .dwattr $C$DW$155, DW_AT_decl_column(0x15)
    2899                    
    2900                    $C$DW$156       .dwtag  DW_TAG_member
    2901                            .dwattr $C$DW$156, DW_AT_type(*$C$DW$T$64)
    2902                            .dwattr $C$DW$156, DW_AT_name("value")
    2903                            .dwattr $C$DW$156, DW_AT_TI_symbol_name("value")
    2904                            .dwattr $C$DW$156, DW_AT_data_member_location[DW_OP_plus_uconst 0x4]
    2905                            .dwattr $C$DW$156, DW_AT_accessibility(DW_ACCESS_public)
    2906                            .dwattr $C$DW$156, DW_AT_decl_file("C:/ti/simplelink_cc13x0_sdk_2_30_00_20/source/ti/ti154stac
    2907                            .dwattr $C$DW$156, DW_AT_decl_line(0x26b)
    2908                            .dwattr $C$DW$156, DW_AT_decl_column(0x12)
    2909                    
    2910                            .dwattr $C$DW$T$102, DW_AT_decl_file("C:/ti/simplelink_cc13x0_sdk_2_30_00_20/source/ti/ti154st
    2911                            .dwattr $C$DW$T$102, DW_AT_decl_line(0x266)
    2912                            .dwattr $C$DW$T$102, DW_AT_decl_column(0x10)
    2913                            .dwendtag $C$DW$T$102
    2914                    
    2915                    $C$DW$T$238     .dwtag  DW_TAG_typedef
TI ARM Assembler PC v16.9.8 Thu Nov 22 09:24:40 2018

Tools Copyright (c) 1996-2017 Texas Instruments Incorporated
C:\Users\Einstein\AppData\Local\Temp\{C719C61D-1508-48D8-97C8-A86DFC77D700} PAGE   54

    2916                            .dwattr $C$DW$T$238, DW_AT_name("ICall_GetUint32Args")
    2917                            .dwattr $C$DW$T$238, DW_AT_type(*$C$DW$T$102)
    2918                            .dwattr $C$DW$T$238, DW_AT_language(DW_LANG_C)
    2919                            .dwattr $C$DW$T$238, DW_AT_decl_file("C:/ti/simplelink_cc13x0_sdk_2_30_00_20/source/ti/ti154st
    2920                            .dwattr $C$DW$T$238, DW_AT_decl_line(0x26c)
    2921                            .dwattr $C$DW$T$238, DW_AT_decl_column(0x03)
    2922                    
    2923                    
    2924                    $C$DW$T$104     .dwtag  DW_TAG_structure_type
    2925                            .dwattr $C$DW$T$104, DW_AT_name("_icall_intnum_args_t")
    2926                            .dwattr $C$DW$T$104, DW_AT_byte_size(0x08)
    2927                    $C$DW$157       .dwtag  DW_TAG_member
    2928                            .dwattr $C$DW$157, DW_AT_type(*$C$DW$T$78)
    2929                            .dwattr $C$DW$157, DW_AT_name("hdr")
    2930                            .dwattr $C$DW$157, DW_AT_TI_symbol_name("hdr")
    2931                            .dwattr $C$DW$157, DW_AT_data_member_location[DW_OP_plus_uconst 0x0]
    2932                            .dwattr $C$DW$157, DW_AT_accessibility(DW_ACCESS_public)
    2933                            .dwattr $C$DW$157, DW_AT_decl_file("C:/ti/simplelink_cc13x0_sdk_2_30_00_20/source/ti/ti154stac
    2934                            .dwattr $C$DW$157, DW_AT_decl_line(0x249)
    2935                            .dwattr $C$DW$157, DW_AT_decl_column(0x15)
    2936                    
    2937                    $C$DW$158       .dwtag  DW_TAG_member
    2938                            .dwattr $C$DW$158, DW_AT_type(*$C$DW$T$103)
    2939                            .dwattr $C$DW$158, DW_AT_name("intnum")
    2940                            .dwattr $C$DW$158, DW_AT_TI_symbol_name("intnum")
    2941                            .dwattr $C$DW$158, DW_AT_data_member_location[DW_OP_plus_uconst 0x4]
    2942                            .dwattr $C$DW$158, DW_AT_accessibility(DW_ACCESS_public)
    2943                            .dwattr $C$DW$158, DW_AT_decl_file("C:/ti/simplelink_cc13x0_sdk_2_30_00_20/source/ti/ti154stac
    2944                            .dwattr $C$DW$158, DW_AT_decl_line(0x24b)
    2945                            .dwattr $C$DW$158, DW_AT_decl_column(0x11)
    2946                    
    2947                            .dwattr $C$DW$T$104, DW_AT_decl_file("C:/ti/simplelink_cc13x0_sdk_2_30_00_20/source/ti/ti154st
    2948                            .dwattr $C$DW$T$104, DW_AT_decl_line(0x246)
    2949                            .dwattr $C$DW$T$104, DW_AT_decl_column(0x10)
    2950                            .dwendtag $C$DW$T$104
    2951                    
    2952                    $C$DW$T$239     .dwtag  DW_TAG_typedef
    2953                            .dwattr $C$DW$T$239, DW_AT_name("ICall_IntNumArgs")
    2954                            .dwattr $C$DW$T$239, DW_AT_type(*$C$DW$T$104)
    2955                            .dwattr $C$DW$T$239, DW_AT_language(DW_LANG_C)
    2956                            .dwattr $C$DW$T$239, DW_AT_decl_file("C:/ti/simplelink_cc13x0_sdk_2_30_00_20/source/ti/ti154st
    2957                            .dwattr $C$DW$T$239, DW_AT_decl_line(0x24c)
    2958                            .dwattr $C$DW$T$239, DW_AT_decl_column(0x03)
    2959                    
    2960                    
    2961                    $C$DW$T$105     .dwtag  DW_TAG_structure_type
    2962                            .dwattr $C$DW$T$105, DW_AT_name("_icall_msg_hdr_t")
    2963                            .dwattr $C$DW$T$105, DW_AT_byte_size(0x0c)
    2964                    $C$DW$159       .dwtag  DW_TAG_member
    2965                            .dwattr $C$DW$159, DW_AT_type(*$C$DW$T$3)
    2966                            .dwattr $C$DW$159, DW_AT_name("next")
    2967                            .dwattr $C$DW$159, DW_AT_TI_symbol_name("next")
    2968                            .dwattr $C$DW$159, DW_AT_data_member_location[DW_OP_plus_uconst 0x0]
    2969                            .dwattr $C$DW$159, DW_AT_accessibility(DW_ACCESS_public)
    2970                            .dwattr $C$DW$159, DW_AT_decl_file("C:/ti/simplelink_cc13x0_sdk_2_30_00_20/source/ti/ti154stac
TI ARM Assembler PC v16.9.8 Thu Nov 22 09:24:40 2018

Tools Copyright (c) 1996-2017 Texas Instruments Incorporated
C:\Users\Einstein\AppData\Local\Temp\{C719C61D-1508-48D8-97C8-A86DFC77D700} PAGE   55

    2971                            .dwattr $C$DW$159, DW_AT_decl_line(0x317)
    2972                            .dwattr $C$DW$159, DW_AT_decl_column(0x0c)
    2973                    
    2974                    $C$DW$160       .dwtag  DW_TAG_member
    2975                            .dwattr $C$DW$160, DW_AT_type(*$C$DW$T$20)
    2976                            .dwattr $C$DW$160, DW_AT_name("srcentity")
    2977                            .dwattr $C$DW$160, DW_AT_TI_symbol_name("srcentity")
    2978                            .dwattr $C$DW$160, DW_AT_data_member_location[DW_OP_plus_uconst 0x4]
    2979                            .dwattr $C$DW$160, DW_AT_accessibility(DW_ACCESS_public)
    2980                            .dwattr $C$DW$160, DW_AT_decl_file("C:/ti/simplelink_cc13x0_sdk_2_30_00_20/source/ti/ti154stac
    2981                            .dwattr $C$DW$160, DW_AT_decl_line(0x318)
    2982                            .dwattr $C$DW$160, DW_AT_decl_column(0x0c)
    2983                    
    2984                    $C$DW$161       .dwtag  DW_TAG_member
    2985                            .dwattr $C$DW$161, DW_AT_type(*$C$DW$T$20)
    2986                            .dwattr $C$DW$161, DW_AT_name("dstentity")
    2987                            .dwattr $C$DW$161, DW_AT_TI_symbol_name("dstentity")
    2988                            .dwattr $C$DW$161, DW_AT_data_member_location[DW_OP_plus_uconst 0x5]
    2989                            .dwattr $C$DW$161, DW_AT_accessibility(DW_ACCESS_public)
    2990                            .dwattr $C$DW$161, DW_AT_decl_file("C:/ti/simplelink_cc13x0_sdk_2_30_00_20/source/ti/ti154stac
    2991                            .dwattr $C$DW$161, DW_AT_decl_line(0x319)
    2992                            .dwattr $C$DW$161, DW_AT_decl_column(0x0c)
    2993                    
    2994                    $C$DW$162       .dwtag  DW_TAG_member
    2995                            .dwattr $C$DW$162, DW_AT_type(*$C$DW$T$20)
    2996                            .dwattr $C$DW$162, DW_AT_name("format")
    2997                            .dwattr $C$DW$162, DW_AT_TI_symbol_name("format")
    2998                            .dwattr $C$DW$162, DW_AT_data_member_location[DW_OP_plus_uconst 0x6]
    2999                            .dwattr $C$DW$162, DW_AT_accessibility(DW_ACCESS_public)
    3000                            .dwattr $C$DW$162, DW_AT_decl_file("C:/ti/simplelink_cc13x0_sdk_2_30_00_20/source/ti/ti154stac
    3001                            .dwattr $C$DW$162, DW_AT_decl_line(0x31a)
    3002                            .dwattr $C$DW$162, DW_AT_decl_column(0x0c)
    3003                    
    3004                    $C$DW$163       .dwtag  DW_TAG_member
    3005                            .dwattr $C$DW$163, DW_AT_type(*$C$DW$T$37)
    3006                            .dwattr $C$DW$163, DW_AT_name("len")
    3007                            .dwattr $C$DW$163, DW_AT_TI_symbol_name("len")
    3008                            .dwattr $C$DW$163, DW_AT_data_member_location[DW_OP_plus_uconst 0x8]
    3009                            .dwattr $C$DW$163, DW_AT_accessibility(DW_ACCESS_public)
    3010                            .dwattr $C$DW$163, DW_AT_decl_file("C:/ti/simplelink_cc13x0_sdk_2_30_00_20/source/ti/ti154stac
    3011                            .dwattr $C$DW$163, DW_AT_decl_line(0x31b)
    3012                            .dwattr $C$DW$163, DW_AT_decl_column(0x0c)
    3013                    
    3014                    $C$DW$164       .dwtag  DW_TAG_member
    3015                            .dwattr $C$DW$164, DW_AT_type(*$C$DW$T$20)
    3016                            .dwattr $C$DW$164, DW_AT_name("dest_id")
    3017                            .dwattr $C$DW$164, DW_AT_TI_symbol_name("dest_id")
    3018                            .dwattr $C$DW$164, DW_AT_data_member_location[DW_OP_plus_uconst 0xa]
    3019                            .dwattr $C$DW$164, DW_AT_accessibility(DW_ACCESS_public)
    3020                            .dwattr $C$DW$164, DW_AT_decl_file("C:/ti/simplelink_cc13x0_sdk_2_30_00_20/source/ti/ti154stac
    3021                            .dwattr $C$DW$164, DW_AT_decl_line(0x31c)
    3022                            .dwattr $C$DW$164, DW_AT_decl_column(0x0c)
    3023                    
    3024                            .dwattr $C$DW$T$105, DW_AT_decl_file("C:/ti/simplelink_cc13x0_sdk_2_30_00_20/source/ti/ti154st
    3025                            .dwattr $C$DW$T$105, DW_AT_decl_line(0x315)
TI ARM Assembler PC v16.9.8 Thu Nov 22 09:24:40 2018

Tools Copyright (c) 1996-2017 Texas Instruments Incorporated
C:\Users\Einstein\AppData\Local\Temp\{C719C61D-1508-48D8-97C8-A86DFC77D700} PAGE   56

    3026                            .dwattr $C$DW$T$105, DW_AT_decl_column(0x10)
    3027                            .dwendtag $C$DW$T$105
    3028                    
    3029                    $C$DW$T$68      .dwtag  DW_TAG_typedef
    3030                            .dwattr $C$DW$T$68, DW_AT_name("ICall_MsgHdr")
    3031                            .dwattr $C$DW$T$68, DW_AT_type(*$C$DW$T$105)
    3032                            .dwattr $C$DW$T$68, DW_AT_language(DW_LANG_C)
    3033                            .dwattr $C$DW$T$68, DW_AT_decl_file("C:/ti/simplelink_cc13x0_sdk_2_30_00_20/source/ti/ti154sta
    3034                            .dwattr $C$DW$T$68, DW_AT_decl_line(0x31d)
    3035                            .dwattr $C$DW$T$68, DW_AT_decl_column(0x03)
    3036                    
    3037                    
    3038                    $C$DW$T$108     .dwtag  DW_TAG_structure_type
    3039                            .dwattr $C$DW$T$108, DW_AT_name("_icall_pwr_bitmap_args_t")
    3040                            .dwattr $C$DW$T$108, DW_AT_byte_size(0x08)
    3041                    $C$DW$165       .dwtag  DW_TAG_member
    3042                            .dwattr $C$DW$165, DW_AT_type(*$C$DW$T$78)
    3043                            .dwattr $C$DW$165, DW_AT_name("hdr")
    3044                            .dwattr $C$DW$165, DW_AT_TI_symbol_name("hdr")
    3045                            .dwattr $C$DW$165, DW_AT_data_member_location[DW_OP_plus_uconst 0x0]
    3046                            .dwattr $C$DW$165, DW_AT_accessibility(DW_ACCESS_public)
    3047                            .dwattr $C$DW$165, DW_AT_decl_file("C:/ti/simplelink_cc13x0_sdk_2_30_00_20/source/ti/ti154stac
    3048                            .dwattr $C$DW$165, DW_AT_decl_line(0x290)
    3049                            .dwattr $C$DW$165, DW_AT_decl_column(0x15)
    3050                    
    3051                    $C$DW$166       .dwtag  DW_TAG_member
    3052                            .dwattr $C$DW$166, DW_AT_type(*$C$DW$T$107)
    3053                            .dwattr $C$DW$166, DW_AT_name("bitmap")
    3054                            .dwattr $C$DW$166, DW_AT_TI_symbol_name("bitmap")
    3055                            .dwattr $C$DW$166, DW_AT_data_member_location[DW_OP_plus_uconst 0x4]
    3056                            .dwattr $C$DW$166, DW_AT_accessibility(DW_ACCESS_public)
    3057                            .dwattr $C$DW$166, DW_AT_decl_file("C:/ti/simplelink_cc13x0_sdk_2_30_00_20/source/ti/ti154stac
    3058                            .dwattr $C$DW$166, DW_AT_decl_line(0x292)
    3059                            .dwattr $C$DW$166, DW_AT_decl_column(0x15)
    3060                    
    3061                            .dwattr $C$DW$T$108, DW_AT_decl_file("C:/ti/simplelink_cc13x0_sdk_2_30_00_20/source/ti/ti154st
    3062                            .dwattr $C$DW$T$108, DW_AT_decl_line(0x28d)
    3063                            .dwattr $C$DW$T$108, DW_AT_decl_column(0x10)
    3064                            .dwendtag $C$DW$T$108
    3065                    
    3066                    $C$DW$T$240     .dwtag  DW_TAG_typedef
    3067                            .dwattr $C$DW$T$240, DW_AT_name("ICall_PwrBitmapArgs")
    3068                            .dwattr $C$DW$T$240, DW_AT_type(*$C$DW$T$108)
    3069                            .dwattr $C$DW$T$240, DW_AT_language(DW_LANG_C)
    3070                            .dwattr $C$DW$T$240, DW_AT_decl_file("C:/ti/simplelink_cc13x0_sdk_2_30_00_20/source/ti/ti154st
    3071                            .dwattr $C$DW$T$240, DW_AT_decl_line(0x293)
    3072                            .dwattr $C$DW$T$240, DW_AT_decl_column(0x03)
    3073                    
    3074                    
    3075                    $C$DW$T$110     .dwtag  DW_TAG_structure_type
    3076                            .dwattr $C$DW$T$110, DW_AT_name("_icall_pwr_get_transition_state_args_t")
    3077                            .dwattr $C$DW$T$110, DW_AT_byte_size(0x08)
    3078                    $C$DW$167       .dwtag  DW_TAG_member
    3079                            .dwattr $C$DW$167, DW_AT_type(*$C$DW$T$78)
    3080                            .dwattr $C$DW$167, DW_AT_name("hdr")
TI ARM Assembler PC v16.9.8 Thu Nov 22 09:24:40 2018

Tools Copyright (c) 1996-2017 Texas Instruments Incorporated
C:\Users\Einstein\AppData\Local\Temp\{C719C61D-1508-48D8-97C8-A86DFC77D700} PAGE   57

    3081                            .dwattr $C$DW$167, DW_AT_TI_symbol_name("hdr")
    3082                            .dwattr $C$DW$167, DW_AT_data_member_location[DW_OP_plus_uconst 0x0]
    3083                            .dwattr $C$DW$167, DW_AT_accessibility(DW_ACCESS_public)
    3084                            .dwattr $C$DW$167, DW_AT_decl_file("C:/ti/simplelink_cc13x0_sdk_2_30_00_20/source/ti/ti154stac
    3085                            .dwattr $C$DW$167, DW_AT_decl_line(0x29b)
