TI ARM Assembler PC v16.9.8 Thu Nov 22 09:24:49 2018

Tools Copyright (c) 1996-2017 Texas Instruments Incorporated
C:\Users\Einstein\AppData\Local\Temp\{748D889B-CC6C-4ECD-A5B9-3576FF08DC06} PAGE    1

       1                    ;******************************************************************************
       2                    ;* TI ARM C/C++ Codegen                                        PC v16.9.8.LTS *
       3                    ;* Date/Time created: Thu Nov 22 09:24:49 2018                                *
       4                    ;******************************************************************************
       5                            .compiler_opts --abi=eabi --arm_vmrs_si_workaround=off --code_state=16 --diag_wrap=off --embed
       6 00000000                   .thumb
       7                    
       8                    $C$DW$CU        .dwtag  DW_TAG_compile_unit
       9                            .dwattr $C$DW$CU, DW_AT_name("../Application/util_timer.c")
      10                            .dwattr $C$DW$CU, DW_AT_producer("TI TI ARM C/C++ Codegen PC v16.9.8.LTS Copyright (c) 1996-20
      11                            .dwattr $C$DW$CU, DW_AT_TI_version(0x01)
      12                            .dwattr $C$DW$CU, DW_AT_comp_dir("C:\Users\Einstein\MyWorkspaceCC1350\sensor_cc1350lp\sensor_c
      13                    
      14                    $C$DW$1 .dwtag  DW_TAG_subprogram
      15                            .dwattr $C$DW$1, DW_AT_name("ti_sysbios_knl_Clock_construct")
      16                            .dwattr $C$DW$1, DW_AT_TI_symbol_name("ti_sysbios_knl_Clock_construct")
      17                            .dwattr $C$DW$1, DW_AT_declaration
      18                            .dwattr $C$DW$1, DW_AT_external
      19                            .dwattr $C$DW$1, DW_AT_decl_file("C:/ti/simplelink_cc13x0_sdk_2_30_00_20/kernel/tirtos/package
      20                            .dwattr $C$DW$1, DW_AT_decl_line(0x1b8)
      21                            .dwattr $C$DW$1, DW_AT_decl_column(0x0f)
      22                    $C$DW$2 .dwtag  DW_TAG_formal_parameter
      23                            .dwattr $C$DW$2, DW_AT_type(*$C$DW$T$597)
      24                    
      25                    $C$DW$3 .dwtag  DW_TAG_formal_parameter
      26                            .dwattr $C$DW$3, DW_AT_type(*$C$DW$T$232)
      27                    
      28                    $C$DW$4 .dwtag  DW_TAG_formal_parameter
      29                            .dwattr $C$DW$4, DW_AT_type(*$C$DW$T$175)
      30                    
      31                    $C$DW$5 .dwtag  DW_TAG_formal_parameter
      32                            .dwattr $C$DW$5, DW_AT_type(*$C$DW$T$600)
      33                    
      34                            .dwendtag $C$DW$1
      35                    
      36                    
      37                    $C$DW$6 .dwtag  DW_TAG_subprogram
      38                            .dwattr $C$DW$6, DW_AT_name("ti_sysbios_knl_Clock_Params__init__S")
      39                            .dwattr $C$DW$6, DW_AT_TI_symbol_name("ti_sysbios_knl_Clock_Params__init__S")
      40                            .dwattr $C$DW$6, DW_AT_declaration
      41                            .dwattr $C$DW$6, DW_AT_external
      42                            .dwattr $C$DW$6, DW_AT_decl_file("C:/ti/simplelink_cc13x0_sdk_2_30_00_20/kernel/tirtos/package
      43                            .dwattr $C$DW$6, DW_AT_decl_line(0x1e0)
      44                            .dwattr $C$DW$6, DW_AT_decl_column(0x13)
      45                    $C$DW$7 .dwtag  DW_TAG_formal_parameter
      46                            .dwattr $C$DW$7, DW_AT_type(*$C$DW$T$154)
      47                    
      48                    $C$DW$8 .dwtag  DW_TAG_formal_parameter
      49                            .dwattr $C$DW$8, DW_AT_type(*$C$DW$T$219)
      50                    
      51                    $C$DW$9 .dwtag  DW_TAG_formal_parameter
      52                            .dwattr $C$DW$9, DW_AT_type(*$C$DW$T$170)
      53                    
      54                    $C$DW$10        .dwtag  DW_TAG_formal_parameter
      55                            .dwattr $C$DW$10, DW_AT_type(*$C$DW$T$170)
TI ARM Assembler PC v16.9.8 Thu Nov 22 09:24:49 2018

Tools Copyright (c) 1996-2017 Texas Instruments Incorporated
C:\Users\Einstein\AppData\Local\Temp\{748D889B-CC6C-4ECD-A5B9-3576FF08DC06} PAGE    2

      56                    
      57                            .dwendtag $C$DW$6
      58                    
      59                    
      60                    $C$DW$11        .dwtag  DW_TAG_subprogram
      61                            .dwattr $C$DW$11, DW_AT_name("ti_sysbios_knl_Clock_start__E")
      62                            .dwattr $C$DW$11, DW_AT_TI_symbol_name("ti_sysbios_knl_Clock_start__E")
      63                            .dwattr $C$DW$11, DW_AT_declaration
      64                            .dwattr $C$DW$11, DW_AT_external
      65                            .dwattr $C$DW$11, DW_AT_decl_file("C:/ti/simplelink_cc13x0_sdk_2_30_00_20/kernel/tirtos/packag
      66                            .dwattr $C$DW$11, DW_AT_decl_line(0x244)
      67                            .dwattr $C$DW$11, DW_AT_decl_column(0x13)
      68                    $C$DW$12        .dwtag  DW_TAG_formal_parameter
      69                            .dwattr $C$DW$12, DW_AT_type(*$C$DW$T$344)
      70                    
      71                            .dwendtag $C$DW$11
      72                    
      73                    
      74                    $C$DW$13        .dwtag  DW_TAG_subprogram
      75                            .dwattr $C$DW$13, DW_AT_name("ti_sysbios_knl_Clock_stop__E")
      76                            .dwattr $C$DW$13, DW_AT_TI_symbol_name("ti_sysbios_knl_Clock_stop__E")
      77                            .dwattr $C$DW$13, DW_AT_declaration
      78                            .dwattr $C$DW$13, DW_AT_external
      79                            .dwattr $C$DW$13, DW_AT_decl_file("C:/ti/simplelink_cc13x0_sdk_2_30_00_20/kernel/tirtos/packag
      80                            .dwattr $C$DW$13, DW_AT_decl_line(0x24e)
      81                            .dwattr $C$DW$13, DW_AT_decl_column(0x13)
      82                    $C$DW$14        .dwtag  DW_TAG_formal_parameter
      83                            .dwattr $C$DW$14, DW_AT_type(*$C$DW$T$344)
      84                    
      85                            .dwendtag $C$DW$13
      86                    
      87                    
      88                    $C$DW$15        .dwtag  DW_TAG_subprogram
      89                            .dwattr $C$DW$15, DW_AT_name("ti_sysbios_knl_Clock_setTimeout__E")
      90                            .dwattr $C$DW$15, DW_AT_TI_symbol_name("ti_sysbios_knl_Clock_setTimeout__E")
      91                            .dwattr $C$DW$15, DW_AT_declaration
      92                            .dwattr $C$DW$15, DW_AT_external
      93                            .dwattr $C$DW$15, DW_AT_decl_file("C:/ti/simplelink_cc13x0_sdk_2_30_00_20/kernel/tirtos/packag
      94                            .dwattr $C$DW$15, DW_AT_decl_line(0x258)
      95                            .dwattr $C$DW$15, DW_AT_decl_column(0x13)
      96                    $C$DW$16        .dwtag  DW_TAG_formal_parameter
      97                            .dwattr $C$DW$16, DW_AT_type(*$C$DW$T$344)
      98                    
      99                    $C$DW$17        .dwtag  DW_TAG_formal_parameter
     100                            .dwattr $C$DW$17, DW_AT_type(*$C$DW$T$195)
     101                    
     102                            .dwendtag $C$DW$15
     103                    
     104                    
     105                    $C$DW$18        .dwtag  DW_TAG_subprogram
     106                            .dwattr $C$DW$18, DW_AT_name("ti_sysbios_knl_Clock_getTimeout__E")
     107                            .dwattr $C$DW$18, DW_AT_TI_symbol_name("ti_sysbios_knl_Clock_getTimeout__E")
     108                            .dwattr $C$DW$18, DW_AT_type(*$C$DW$T$195)
     109                            .dwattr $C$DW$18, DW_AT_declaration
     110                            .dwattr $C$DW$18, DW_AT_external
TI ARM Assembler PC v16.9.8 Thu Nov 22 09:24:49 2018

Tools Copyright (c) 1996-2017 Texas Instruments Incorporated
C:\Users\Einstein\AppData\Local\Temp\{748D889B-CC6C-4ECD-A5B9-3576FF08DC06} PAGE    3

     111                            .dwattr $C$DW$18, DW_AT_decl_file("C:/ti/simplelink_cc13x0_sdk_2_30_00_20/kernel/tirtos/packag
     112                            .dwattr $C$DW$18, DW_AT_decl_line(0x267)
     113                            .dwattr $C$DW$18, DW_AT_decl_column(0x15)
     114                    $C$DW$19        .dwtag  DW_TAG_formal_parameter
     115                            .dwattr $C$DW$19, DW_AT_type(*$C$DW$T$344)
     116                    
     117                            .dwendtag $C$DW$18
     118                    
     119                    
     120                    $C$DW$20        .dwtag  DW_TAG_subprogram
     121                            .dwattr $C$DW$20, DW_AT_name("ti_sysbios_knl_Clock_isActive__E")
     122                            .dwattr $C$DW$20, DW_AT_TI_symbol_name("ti_sysbios_knl_Clock_isActive__E")
     123                            .dwattr $C$DW$20, DW_AT_type(*$C$DW$T$165)
     124                            .dwattr $C$DW$20, DW_AT_declaration
     125                            .dwattr $C$DW$20, DW_AT_external
     126                            .dwattr $C$DW$20, DW_AT_decl_file("C:/ti/simplelink_cc13x0_sdk_2_30_00_20/kernel/tirtos/packag
     127                            .dwattr $C$DW$20, DW_AT_decl_line(0x26c)
     128                            .dwattr $C$DW$20, DW_AT_decl_column(0x13)
     129                    $C$DW$21        .dwtag  DW_TAG_formal_parameter
     130                            .dwattr $C$DW$21, DW_AT_type(*$C$DW$T$344)
     131                    
     132                            .dwendtag $C$DW$20
     133                    
     134                    $C$DW$22        .dwtag  DW_TAG_variable
     135                            .dwattr $C$DW$22, DW_AT_name("ti_sysbios_knl_Clock_tickPeriod__C")
     136                            .dwattr $C$DW$22, DW_AT_TI_symbol_name("ti_sysbios_knl_Clock_tickPeriod__C")
     137                            .dwattr $C$DW$22, DW_AT_type(*$C$DW$T$933)
     138                            .dwattr $C$DW$22, DW_AT_declaration
     139                            .dwattr $C$DW$22, DW_AT_external
     140                            .dwattr $C$DW$22, DW_AT_decl_file("C:/ti/simplelink_cc13x0_sdk_2_30_00_20/kernel/tirtos/packag
     141                            .dwattr $C$DW$22, DW_AT_decl_line(0x164)
     142                            .dwattr $C$DW$22, DW_AT_decl_column(0x3c)
     143                    
     144                    ;       C:\ti\ccsv7\tools\compiler\ti-cgt-arm_16.9.8.LTS\bin\armopt.exe C:/Users/Einstein/MyWorkspaceC
     145 00000000                   .sect   ".text:Timer_stop"
     146                            .clink
     147                            .thumbfunc Timer_stop
     148 00000000                   .thumb
     149                            .global Timer_stop
     150                    
     151                    $C$DW$23        .dwtag  DW_TAG_subprogram
     152                            .dwattr $C$DW$23, DW_AT_name("Timer_stop")
     153                            .dwattr $C$DW$23, DW_AT_low_pc(Timer_stop)
     154                            .dwattr $C$DW$23, DW_AT_high_pc(0x00)
     155                            .dwattr $C$DW$23, DW_AT_TI_symbol_name("Timer_stop")
     156                            .dwattr $C$DW$23, DW_AT_external
     157                            .dwattr $C$DW$23, DW_AT_TI_begin_file("../Application/util_timer.c")
     158                            .dwattr $C$DW$23, DW_AT_TI_begin_line(0x91)
     159                            .dwattr $C$DW$23, DW_AT_TI_begin_column(0x06)
     160                            .dwattr $C$DW$23, DW_AT_decl_file("../Application/util_timer.c")
     161                            .dwattr $C$DW$23, DW_AT_decl_line(0x91)
     162                            .dwattr $C$DW$23, DW_AT_decl_column(0x06)
     163                            .dwattr $C$DW$23, DW_AT_TI_max_frame_size(0x00)
     164                            .dwpsn  file "../Application/util_timer.c",line 146,column 1,is_stmt,address Timer_stop,isa 1
     165                    
TI ARM Assembler PC v16.9.8 Thu Nov 22 09:24:49 2018

Tools Copyright (c) 1996-2017 Texas Instruments Incorporated
C:\Users\Einstein\AppData\Local\Temp\{748D889B-CC6C-4ECD-A5B9-3576FF08DC06} PAGE    4

     166                            .dwfde $C$DW$CIE, Timer_stop
     167                    $C$DW$24        .dwtag  DW_TAG_formal_parameter
     168                            .dwattr $C$DW$24, DW_AT_name("pClock")
     169                            .dwattr $C$DW$24, DW_AT_TI_symbol_name("pClock")
     170                            .dwattr $C$DW$24, DW_AT_type(*$C$DW$T$597)
     171                            .dwattr $C$DW$24, DW_AT_location[DW_OP_reg0]
     172                    
     173                    
     174                    ;*****************************************************************************
     175                    ;* FUNCTION NAME: Timer_stop                                                 *
     176                    ;*                                                                           *
     177                    ;*   Regs Modified     : A1,A2,A3,A4,V9,LR,SR                                *
     178                    ;*   Regs Used         : A1,A2,A3,A4,V9,SP,LR,SR                             *
     179                    ;*   Local Frame Size  : 0 Args + 0 Auto + 0 Save = 0 byte                   *
     180                    ;*****************************************************************************
     181 00000000           Timer_stop:
     182                    ;* --------------------------------------------------------------------------*
     183                            .dwcfi  cfa_offset, 0
     184                            .dwpsn  file "../Application/util_timer.c",line 150,column 5,is_stmt,isa 1
     185                    $C$DW$25        .dwtag  DW_TAG_TI_branch
     186                            .dwattr $C$DW$25, DW_AT_low_pc(0x00)
     187                            .dwattr $C$DW$25, DW_AT_name("ti_sysbios_knl_Clock_stop__E")
     188                            .dwattr $C$DW$25, DW_AT_TI_call
     189                            .dwattr $C$DW$25, DW_AT_TI_return
     190                    
     191 00000000 BFFEF7FF!         CRET      ti_sysbios_knl_Clock_stop__E ; [DPU_3_PIPE] |150|  ; [KEEP 32-BIT INS]
     192                            ; CALL OCCURS {ti_sysbios_knl_Clock_stop__E }  ; [] |150| 
     193                            .dwattr $C$DW$23, DW_AT_TI_end_file("../Application/util_timer.c")
     194                            .dwattr $C$DW$23, DW_AT_TI_end_line(0x97)
     195                            .dwattr $C$DW$23, DW_AT_TI_end_column(0x01)
     196                            .dwendentry
     197                            .dwendtag $C$DW$23
     198                    
     199 00000000                   .sect   ".text:Timer_start"
     200                            .clink
     201                            .thumbfunc Timer_start
     202 00000000                   .thumb
     203                            .global Timer_start
     204                    
     205                    $C$DW$26        .dwtag  DW_TAG_subprogram
     206                            .dwattr $C$DW$26, DW_AT_name("Timer_start")
     207                            .dwattr $C$DW$26, DW_AT_low_pc(Timer_start)
     208                            .dwattr $C$DW$26, DW_AT_high_pc(0x00)
     209                            .dwattr $C$DW$26, DW_AT_TI_symbol_name("Timer_start")
     210                            .dwattr $C$DW$26, DW_AT_external
     211                            .dwattr $C$DW$26, DW_AT_TI_begin_file("../Application/util_timer.c")
     212                            .dwattr $C$DW$26, DW_AT_TI_begin_line(0x77)
     213                            .dwattr $C$DW$26, DW_AT_TI_begin_column(0x06)
     214                            .dwattr $C$DW$26, DW_AT_decl_file("../Application/util_timer.c")
     215                            .dwattr $C$DW$26, DW_AT_decl_line(0x77)
     216                            .dwattr $C$DW$26, DW_AT_decl_column(0x06)
     217                            .dwattr $C$DW$26, DW_AT_TI_max_frame_size(0x00)
     218                            .dwpsn  file "../Application/util_timer.c",line 120,column 1,is_stmt,address Timer_start,isa 1
     219                    
     220                            .dwfde $C$DW$CIE, Timer_start
TI ARM Assembler PC v16.9.8 Thu Nov 22 09:24:49 2018

Tools Copyright (c) 1996-2017 Texas Instruments Incorporated
C:\Users\Einstein\AppData\Local\Temp\{748D889B-CC6C-4ECD-A5B9-3576FF08DC06} PAGE    5

     221                    $C$DW$27        .dwtag  DW_TAG_formal_parameter
     222                            .dwattr $C$DW$27, DW_AT_name("pClock")
     223                            .dwattr $C$DW$27, DW_AT_TI_symbol_name("pClock")
     224                            .dwattr $C$DW$27, DW_AT_type(*$C$DW$T$597)
     225                            .dwattr $C$DW$27, DW_AT_location[DW_OP_reg0]
     226                    
     227                    
     228                    ;*****************************************************************************
     229                    ;* FUNCTION NAME: Timer_start                                                *
     230                    ;*                                                                           *
     231                    ;*   Regs Modified     : A1,A2,A3,A4,V9,LR,SR                                *
     232                    ;*   Regs Used         : A1,A2,A3,A4,V9,SP,LR,SR                             *
     233                    ;*   Local Frame Size  : 0 Args + 0 Auto + 0 Save = 0 byte                   *
     234                    ;*****************************************************************************
     235 00000000           Timer_start:
     236                    ;* --------------------------------------------------------------------------*
     237                            .dwcfi  cfa_offset, 0
     238                            .dwpsn  file "../Application/util_timer.c",line 124,column 5,is_stmt,isa 1
     239                    $C$DW$28        .dwtag  DW_TAG_TI_branch
     240                            .dwattr $C$DW$28, DW_AT_low_pc(0x00)
     241                            .dwattr $C$DW$28, DW_AT_name("ti_sysbios_knl_Clock_start__E")
     242                            .dwattr $C$DW$28, DW_AT_TI_call
     243                            .dwattr $C$DW$28, DW_AT_TI_return
     244                    
     245 00000000 BFFEF7FF!         CRET      ti_sysbios_knl_Clock_start__E ; [DPU_3_PIPE] |124|  ; [KEEP 32-BIT INS]
     246                            ; CALL OCCURS {ti_sysbios_knl_Clock_start__E }  ; [] |124| 
     247                            .dwattr $C$DW$26, DW_AT_TI_end_file("../Application/util_timer.c")
     248                            .dwattr $C$DW$26, DW_AT_TI_end_line(0x7d)
     249                            .dwattr $C$DW$26, DW_AT_TI_end_column(0x01)
     250                            .dwendentry
     251                            .dwendtag $C$DW$26
     252                    
     253 00000000                   .sect   ".text:Timer_setTimeout"
     254                            .clink
     255                            .thumbfunc Timer_setTimeout
     256 00000000                   .thumb
     257                            .global Timer_setTimeout
     258                    
     259                    $C$DW$29        .dwtag  DW_TAG_subprogram
     260                            .dwattr $C$DW$29, DW_AT_name("Timer_setTimeout")
     261                            .dwattr $C$DW$29, DW_AT_low_pc(Timer_setTimeout)
     262                            .dwattr $C$DW$29, DW_AT_high_pc(0x00)
     263                            .dwattr $C$DW$29, DW_AT_TI_symbol_name("Timer_setTimeout")
     264                            .dwattr $C$DW$29, DW_AT_external
     265                            .dwattr $C$DW$29, DW_AT_TI_begin_file("../Application/util_timer.c")
     266                            .dwattr $C$DW$29, DW_AT_TI_begin_line(0x9e)
     267                            .dwattr $C$DW$29, DW_AT_TI_begin_column(0x06)
     268                            .dwattr $C$DW$29, DW_AT_decl_file("../Application/util_timer.c")
     269                            .dwattr $C$DW$29, DW_AT_decl_line(0x9e)
     270                            .dwattr $C$DW$29, DW_AT_decl_column(0x06)
     271                            .dwattr $C$DW$29, DW_AT_TI_max_frame_size(0x00)
     272                            .dwpsn  file "../Application/util_timer.c",line 159,column 1,is_stmt,address Timer_setTimeout,
     273                    
     274                            .dwfde $C$DW$CIE, Timer_setTimeout
     275                    $C$DW$30        .dwtag  DW_TAG_formal_parameter
TI ARM Assembler PC v16.9.8 Thu Nov 22 09:24:49 2018

Tools Copyright (c) 1996-2017 Texas Instruments Incorporated
C:\Users\Einstein\AppData\Local\Temp\{748D889B-CC6C-4ECD-A5B9-3576FF08DC06} PAGE    6

     276                            .dwattr $C$DW$30, DW_AT_name("handle")
     277                            .dwattr $C$DW$30, DW_AT_TI_symbol_name("handle")
     278                            .dwattr $C$DW$30, DW_AT_type(*$C$DW$T$344)
     279                            .dwattr $C$DW$30, DW_AT_location[DW_OP_reg0]
     280                    
     281                    $C$DW$31        .dwtag  DW_TAG_formal_parameter
     282                            .dwattr $C$DW$31, DW_AT_name("timeout")
     283                            .dwattr $C$DW$31, DW_AT_TI_symbol_name("timeout")
     284                            .dwattr $C$DW$31, DW_AT_type(*$C$DW$T$145)
     285                            .dwattr $C$DW$31, DW_AT_location[DW_OP_reg1]
     286                    
     287                    
     288                    ;*****************************************************************************
     289                    ;* FUNCTION NAME: Timer_setTimeout                                           *
     290                    ;*                                                                           *
     291                    ;*   Regs Modified     : A1,A2,A3,A4,V9,LR,SR                                *
     292                    ;*   Regs Used         : A1,A2,A3,A4,V9,SP,LR,SR                             *
     293                    ;*   Local Frame Size  : 0 Args + 0 Auto + 0 Save = 0 byte                   *
     294                    ;*****************************************************************************
     295                    Timer_setTimeout:
     296                    ;* --------------------------------------------------------------------------*
     297                    ;* A2    assigned to timeout
     298                    $C$DW$32        .dwtag  DW_TAG_variable
     299                            .dwattr $C$DW$32, DW_AT_name("timeout")
     300                            .dwattr $C$DW$32, DW_AT_TI_symbol_name("timeout")
     301                            .dwattr $C$DW$32, DW_AT_type(*$C$DW$T$927)
     302                            .dwattr $C$DW$32, DW_AT_location[DW_OP_reg1]
     303                    
     304                            .dwcfi  cfa_offset, 0
     305                            .dwpsn  file "../Application/util_timer.c",line 160,column 5,is_stmt,isa 1
     306 00000000 2264              MOVS      A3, #100              ; [DPU_3_PIPE] |160|  ; [ORIG 16-BIT INS]
     307 00000002 4351              MULS      A2, A3, A2            ; [DPU_3_PIPE] |160|  ; [ORIG 16-BIT INS]
     308                    $C$DW$33        .dwtag  DW_TAG_TI_branch
     309                            .dwattr $C$DW$33, DW_AT_low_pc(0x00)
     310                            .dwattr $C$DW$33, DW_AT_name("ti_sysbios_knl_Clock_setTimeout__E")
     311                            .dwattr $C$DW$33, DW_AT_TI_call
     312                            .dwattr $C$DW$33, DW_AT_TI_return
     313                    
     314 00000004 BFFEF7FF!         CRET      ti_sysbios_knl_Clock_setTimeout__E ; [DPU_3_PIPE] |160|  ; [KEEP 32-BIT INS]
     315                            ; CALL OCCURS {ti_sysbios_knl_Clock_setTimeout__E }  ; [] |160| 
     316                            .dwattr $C$DW$29, DW_AT_TI_end_file("../Application/util_timer.c")
     317                            .dwattr $C$DW$29, DW_AT_TI_end_line(0xa1)
     318                            .dwattr $C$DW$29, DW_AT_TI_end_column(0x01)
     319                            .dwendentry
     320                            .dwendtag $C$DW$29
     321                    
     322 00000000                   .sect   ".text:Timer_isActive"
     323                            .clink
     324                            .thumbfunc Timer_isActive
     325 00000000                   .thumb
     326                            .global Timer_isActive
     327                    
     328                    $C$DW$34        .dwtag  DW_TAG_subprogram
     329                            .dwattr $C$DW$34, DW_AT_name("Timer_isActive")
     330                            .dwattr $C$DW$34, DW_AT_low_pc(Timer_isActive)
TI ARM Assembler PC v16.9.8 Thu Nov 22 09:24:49 2018

Tools Copyright (c) 1996-2017 Texas Instruments Incorporated
C:\Users\Einstein\AppData\Local\Temp\{748D889B-CC6C-4ECD-A5B9-3576FF08DC06} PAGE    7

     331                            .dwattr $C$DW$34, DW_AT_high_pc(0x00)
     332                            .dwattr $C$DW$34, DW_AT_TI_symbol_name("Timer_isActive")
     333                            .dwattr $C$DW$34, DW_AT_external
     334                            .dwattr $C$DW$34, DW_AT_type(*$C$DW$T$1120)
     335                            .dwattr $C$DW$34, DW_AT_TI_begin_file("../Application/util_timer.c")
     336                            .dwattr $C$DW$34, DW_AT_TI_begin_line(0x84)
     337                            .dwattr $C$DW$34, DW_AT_TI_begin_column(0x06)
     338                            .dwattr $C$DW$34, DW_AT_decl_file("../Application/util_timer.c")
     339                            .dwattr $C$DW$34, DW_AT_decl_line(0x84)
     340                            .dwattr $C$DW$34, DW_AT_decl_column(0x06)
     341                            .dwattr $C$DW$34, DW_AT_TI_max_frame_size(0x08)
     342                            .dwpsn  file "../Application/util_timer.c",line 133,column 1,is_stmt,address Timer_isActive,is
     343                    
     344                            .dwfde $C$DW$CIE, Timer_isActive
     345                    $C$DW$35        .dwtag  DW_TAG_formal_parameter
     346                            .dwattr $C$DW$35, DW_AT_name("pClock")
     347                            .dwattr $C$DW$35, DW_AT_TI_symbol_name("pClock")
     348                            .dwattr $C$DW$35, DW_AT_type(*$C$DW$T$597)
     349                            .dwattr $C$DW$35, DW_AT_location[DW_OP_reg0]
     350                    
     351                    
     352                    ;*****************************************************************************
     353                    ;* FUNCTION NAME: Timer_isActive                                             *
     354                    ;*                                                                           *
     355                    ;*   Regs Modified     : A1,A2,A3,A4,V1,V9,SP,LR,SR                          *
     356                    ;*   Regs Used         : A1,A2,A3,A4,V1,V9,SP,LR,SR                          *
     357                    ;*   Local Frame Size  : 0 Args + 0 Auto + 8 Save = 8 byte                   *
     358                    ;*****************************************************************************
     359 00000000           Timer_isActive:
     360                    ;* --------------------------------------------------------------------------*
     361                            .dwcfi  cfa_offset, 0
     362 00000000 B510              PUSH      {V1, LR}              ; [DPU_3_PIPE]  ; [ORIG 16-BIT INS]
     363                            .dwcfi  cfa_offset, 8
     364                            .dwcfi  save_reg_to_mem, 14, -4
     365                            .dwcfi  save_reg_to_mem, 4, -8
     366                            .dwpsn  file "../Application/util_timer.c",line 137,column 5,is_stmt,isa 1
     367                    $C$DW$36        .dwtag  DW_TAG_TI_branch
     368                            .dwattr $C$DW$36, DW_AT_low_pc(0x00)
     369                            .dwattr $C$DW$36, DW_AT_name("ti_sysbios_knl_Clock_isActive__E")
     370                            .dwattr $C$DW$36, DW_AT_TI_call
     371                    
     372 00000002 FFFEF7FF!         BL        ti_sysbios_knl_Clock_isActive__E ; [DPU_3_PIPE] |137|  ; [KEEP 32-BIT INS]
     373                            ; CALL OCCURS {ti_sysbios_knl_Clock_isActive__E }  ; [] |137| 
     374 00000006 2400              MOVS      V1, #0                ; [DPU_3_PIPE] |137|  ; [ORIG 16-BIT INS]
     375 00000008 B100              CBZ       A1, ||$C$L1||         ; []  ; [ORIG 16-BIT INS]
     376 0000000a 2401              MOVS      V1, #1                ; [DPU_3_PIPE] |137|  ; [ORIG 16-BIT INS]
     377                    ;* --------------------------------------------------------------------------*
     378 0000000c           ||$C$L1||:    
     379 0000000c 4620              MOV       A1, V1                ; [DPU_3_PIPE] |137|  ; [ORIG 16-BIT INS]
     380                    $C$DW$37        .dwtag  DW_TAG_TI_branch
     381                            .dwattr $C$DW$37, DW_AT_low_pc(0x00)
     382                            .dwattr $C$DW$37, DW_AT_TI_return
     383                    
     384 0000000e BD10              POP       {V1, PC}              ; [DPU_3_PIPE]  ; [ORIG 16-BIT INS]
     385                            .dwcfi  cfa_offset, 0
TI ARM Assembler PC v16.9.8 Thu Nov 22 09:24:49 2018

Tools Copyright (c) 1996-2017 Texas Instruments Incorporated
C:\Users\Einstein\AppData\Local\Temp\{748D889B-CC6C-4ECD-A5B9-3576FF08DC06} PAGE    8

     386                            .dwcfi  restore_reg, 4
     387                            ; BRANCH OCCURS                  ; [] 
     388                            .dwattr $C$DW$34, DW_AT_TI_end_file("../Application/util_timer.c")
     389                            .dwattr $C$DW$34, DW_AT_TI_end_line(0x8a)
     390                            .dwattr $C$DW$34, DW_AT_TI_end_column(0x01)
     391                            .dwendentry
     392                            .dwendtag $C$DW$34
     393                    
     394 00000000                   .sect   ".text:Timer_getTimeout"
     395                            .clink
     396                            .thumbfunc Timer_getTimeout
     397 00000000                   .thumb
     398                            .global Timer_getTimeout
     399                    
     400                    $C$DW$38        .dwtag  DW_TAG_subprogram
     401                            .dwattr $C$DW$38, DW_AT_name("Timer_getTimeout")
     402                            .dwattr $C$DW$38, DW_AT_low_pc(Timer_getTimeout)
     403                            .dwattr $C$DW$38, DW_AT_high_pc(0x00)
     404                            .dwattr $C$DW$38, DW_AT_TI_symbol_name("Timer_getTimeout")
     405                            .dwattr $C$DW$38, DW_AT_external
     406                            .dwattr $C$DW$38, DW_AT_type(*$C$DW$T$145)
     407                            .dwattr $C$DW$38, DW_AT_TI_begin_file("../Application/util_timer.c")
     408                            .dwattr $C$DW$38, DW_AT_TI_begin_line(0xaa)
     409                            .dwattr $C$DW$38, DW_AT_TI_begin_column(0x0a)
     410                            .dwattr $C$DW$38, DW_AT_decl_file("../Application/util_timer.c")
     411                            .dwattr $C$DW$38, DW_AT_decl_line(0xaa)
     412                            .dwattr $C$DW$38, DW_AT_decl_column(0x0a)
     413                            .dwattr $C$DW$38, DW_AT_TI_max_frame_size(0x08)
     414                            .dwpsn  file "../Application/util_timer.c",line 171,column 1,is_stmt,address Timer_getTimeout,
     415                    
     416                            .dwfde $C$DW$CIE, Timer_getTimeout
     417                    $C$DW$39        .dwtag  DW_TAG_formal_parameter
     418                            .dwattr $C$DW$39, DW_AT_name("handle")
     419                            .dwattr $C$DW$39, DW_AT_TI_symbol_name("handle")
     420                            .dwattr $C$DW$39, DW_AT_type(*$C$DW$T$344)
     421                            .dwattr $C$DW$39, DW_AT_location[DW_OP_reg0]
     422                    
     423                    
     424                    ;*****************************************************************************
     425                    ;* FUNCTION NAME: Timer_getTimeout                                           *
     426                    ;*                                                                           *
     427                    ;*   Regs Modified     : A1,A2,A3,A4,V9,SP,LR,SR                             *
     428                    ;*   Regs Used         : A1,A2,A3,A4,V9,SP,LR,SR                             *
     429                    ;*   Local Frame Size  : 0 Args + 0 Auto + 4 Save = 4 byte                   *
     430                    ;*****************************************************************************
     431                    Timer_getTimeout:
     432                    ;* --------------------------------------------------------------------------*
     433                    ;* A1    assigned to timeout
     434                    $C$DW$40        .dwtag  DW_TAG_variable
     435                            .dwattr $C$DW$40, DW_AT_name("timeout")
     436                            .dwattr $C$DW$40, DW_AT_TI_symbol_name("timeout")
     437                            .dwattr $C$DW$40, DW_AT_type(*$C$DW$T$145)
     438                            .dwattr $C$DW$40, DW_AT_location[DW_OP_reg0]
     439                    
     440                            .dwcfi  cfa_offset, 0
TI ARM Assembler PC v16.9.8 Thu Nov 22 09:24:49 2018

Tools Copyright (c) 1996-2017 Texas Instruments Incorporated
C:\Users\Einstein\AppData\Local\Temp\{748D889B-CC6C-4ECD-A5B9-3576FF08DC06} PAGE    9

     441 00000000 B508              PUSH      {A4, LR}              ; [DPU_3_PIPE]  ; [ORIG 16-BIT INS]
     442                            .dwcfi  cfa_offset, 8
     443                            .dwcfi  save_reg_to_mem, 14, -4
     444                            .dwcfi  save_reg_to_mem, 3, -8
     445                            .dwpsn  file "../Application/util_timer.c",line 174,column 5,is_stmt,isa 1
     446                    $C$DW$41        .dwtag  DW_TAG_TI_branch
     447                            .dwattr $C$DW$41, DW_AT_low_pc(0x00)
     448                            .dwattr $C$DW$41, DW_AT_name("ti_sysbios_knl_Clock_getTimeout__E")
     449                            .dwattr $C$DW$41, DW_AT_TI_call
     450                    
     451 00000002 FFFEF7FF!         BL        ti_sysbios_knl_Clock_getTimeout__E ; [DPU_3_PIPE] |174|  ; [KEEP 32-BIT INS]
     452                            ; CALL OCCURS {ti_sysbios_knl_Clock_getTimeout__E }  ; [] |174| 
     453                            .dwpsn  file "../Application/util_timer.c",line 176,column 5,is_stmt,isa 1
     454 00000006 2164              MOVS      A2, #100              ; [DPU_3_PIPE] |176|  ; [ORIG 16-BIT INS]
     455 00000008 F0F1FBB0          UDIV      A1, A1, A2            ; [DPU_3_PIPE] |176|  ; [KEEP 32-BIT INS]
     456                    $C$DW$42        .dwtag  DW_TAG_TI_branch
     457                            .dwattr $C$DW$42, DW_AT_low_pc(0x00)
     458                            .dwattr $C$DW$42, DW_AT_TI_return
     459                    
     460 0000000c BD08              POP       {A4, PC}              ; [DPU_3_PIPE]  ; [ORIG 16-BIT INS]
     461                            .dwcfi  cfa_offset, 0
     462                            .dwcfi  restore_reg, 3
     463                            ; BRANCH OCCURS                  ; [] 
     464                            .dwattr $C$DW$38, DW_AT_TI_end_file("../Application/util_timer.c")
     465                            .dwattr $C$DW$38, DW_AT_TI_end_line(0xb1)
     466                            .dwattr $C$DW$38, DW_AT_TI_end_column(0x01)
     467                            .dwendentry
     468                            .dwendtag $C$DW$38
     469                    
     470 00000000                   .sect   ".text:Timer_construct"
     471                            .clink
     472                            .thumbfunc Timer_construct
     473 00000000                   .thumb
     474                            .global Timer_construct
     475                    
     476                    $C$DW$43        .dwtag  DW_TAG_subprogram
     477                            .dwattr $C$DW$43, DW_AT_name("Timer_construct")
     478                            .dwattr $C$DW$43, DW_AT_low_pc(Timer_construct)
     479                            .dwattr $C$DW$43, DW_AT_high_pc(0x00)
     480                            .dwattr $C$DW$43, DW_AT_TI_symbol_name("Timer_construct")
     481                            .dwattr $C$DW$43, DW_AT_external
     482                            .dwattr $C$DW$43, DW_AT_type(*$C$DW$T$344)
     483                            .dwattr $C$DW$43, DW_AT_TI_begin_file("../Application/util_timer.c")
     484                            .dwattr $C$DW$43, DW_AT_TI_begin_line(0x53)
     485                            .dwattr $C$DW$43, DW_AT_TI_begin_column(0x0e)
     486                            .dwattr $C$DW$43, DW_AT_decl_file("../Application/util_timer.c")
     487                            .dwattr $C$DW$43, DW_AT_decl_line(0x53)
     488                            .dwattr $C$DW$43, DW_AT_decl_column(0x0e)
     489                            .dwattr $C$DW$43, DW_AT_TI_max_frame_size(0x40)
     490                            .dwpsn  file "../Application/util_timer.c",line 87,column 1,is_stmt,address Timer_construct,is
     491                    
     492                            .dwfde $C$DW$CIE, Timer_construct
     493                    $C$DW$44        .dwtag  DW_TAG_formal_parameter
     494                            .dwattr $C$DW$44, DW_AT_name("pClock")
     495                            .dwattr $C$DW$44, DW_AT_TI_symbol_name("pClock")
TI ARM Assembler PC v16.9.8 Thu Nov 22 09:24:49 2018

Tools Copyright (c) 1996-2017 Texas Instruments Incorporated
C:\Users\Einstein\AppData\Local\Temp\{748D889B-CC6C-4ECD-A5B9-3576FF08DC06} PAGE   10

     496                            .dwattr $C$DW$44, DW_AT_type(*$C$DW$T$597)
     497                            .dwattr $C$DW$44, DW_AT_location[DW_OP_reg0]
     498                    
     499                    $C$DW$45        .dwtag  DW_TAG_formal_parameter
     500                            .dwattr $C$DW$45, DW_AT_name("clockCB")
     501                            .dwattr $C$DW$45, DW_AT_TI_symbol_name("clockCB")
     502                            .dwattr $C$DW$45, DW_AT_type(*$C$DW$T$232)
     503                            .dwattr $C$DW$45, DW_AT_location[DW_OP_reg1]
     504                    
     505                    $C$DW$46        .dwtag  DW_TAG_formal_parameter
     506                            .dwattr $C$DW$46, DW_AT_name("clockDuration")
     507                            .dwattr $C$DW$46, DW_AT_TI_symbol_name("clockDuration")
     508                            .dwattr $C$DW$46, DW_AT_type(*$C$DW$T$145)
     509                            .dwattr $C$DW$46, DW_AT_location[DW_OP_reg2]
     510                    
     511                    $C$DW$47        .dwtag  DW_TAG_formal_parameter
     512                            .dwattr $C$DW$47, DW_AT_name("clockPeriod")
     513                            .dwattr $C$DW$47, DW_AT_TI_symbol_name("clockPeriod")
     514                            .dwattr $C$DW$47, DW_AT_type(*$C$DW$T$145)
     515                            .dwattr $C$DW$47, DW_AT_location[DW_OP_reg3]
     516                    
     517                    $C$DW$48        .dwtag  DW_TAG_formal_parameter
     518                            .dwattr $C$DW$48, DW_AT_name("startFlag")
     519                            .dwattr $C$DW$48, DW_AT_TI_symbol_name("startFlag")
     520                            .dwattr $C$DW$48, DW_AT_type(*$C$DW$T$10)
     521                            .dwattr $C$DW$48, DW_AT_location[DW_OP_breg13 64]
     522                    
     523                    $C$DW$49        .dwtag  DW_TAG_formal_parameter
     524                            .dwattr $C$DW$49, DW_AT_name("arg")
     525                            .dwattr $C$DW$49, DW_AT_TI_symbol_name("arg")
     526                            .dwattr $C$DW$49, DW_AT_type(*$C$DW$T$1054)
     527                            .dwattr $C$DW$49, DW_AT_location[DW_OP_breg13 68]
     528                    
     529                    
     530                    ;*****************************************************************************
     531                    ;* FUNCTION NAME: Timer_construct                                            *
     532                    ;*                                                                           *
     533                    ;*   Regs Modified     : A1,A2,A3,A4,V1,V2,V3,V4,V5,V9,SP,LR,SR              *
     534                    ;*   Regs Used         : A1,A2,A3,A4,V1,V2,V3,V4,V5,V9,SP,LR,SR              *
     535                    ;*   Local Frame Size  : 0 Args + 36 Auto + 24 Save = 60 byte                *
     536                    ;*****************************************************************************
     537                    Timer_construct:
     538                    ;* --------------------------------------------------------------------------*
     539                    $C$DW$50        .dwtag  DW_TAG_variable
     540                            .dwattr $C$DW$50, DW_AT_name("clockParams")
     541                            .dwattr $C$DW$50, DW_AT_TI_symbol_name("clockParams")
     542                            .dwattr $C$DW$50, DW_AT_type(*$C$DW$T$598)
     543                            .dwattr $C$DW$50, DW_AT_location[DW_OP_breg13 0]
     544                    
     545                    ;* A1    assigned to $O$C17
     546                    ;* V3    assigned to pClock
     547                    $C$DW$51        .dwtag  DW_TAG_variable
     548                            .dwattr $C$DW$51, DW_AT_name("pClock")
     549                            .dwattr $C$DW$51, DW_AT_TI_symbol_name("pClock")
     550                            .dwattr $C$DW$51, DW_AT_type(*$C$DW$T$1196)
TI ARM Assembler PC v16.9.8 Thu Nov 22 09:24:49 2018

Tools Copyright (c) 1996-2017 Texas Instruments Incorporated
C:\Users\Einstein\AppData\Local\Temp\{748D889B-CC6C-4ECD-A5B9-3576FF08DC06} PAGE   11

     551                            .dwattr $C$DW$51, DW_AT_location[DW_OP_reg6]
     552                    
     553                    ;* V5    assigned to clockCB
     554                    $C$DW$52        .dwtag  DW_TAG_variable
     555                            .dwattr $C$DW$52, DW_AT_name("clockCB")
     556                            .dwattr $C$DW$52, DW_AT_TI_symbol_name("clockCB")
     557                            .dwattr $C$DW$52, DW_AT_type(*$C$DW$T$584)
     558                            .dwattr $C$DW$52, DW_AT_location[DW_OP_reg8]
     559                    
     560                    ;* V2    assigned to clockDuration
     561                    $C$DW$53        .dwtag  DW_TAG_variable
     562                            .dwattr $C$DW$53, DW_AT_name("clockDuration")
     563                            .dwattr $C$DW$53, DW_AT_TI_symbol_name("clockDuration")
     564                            .dwattr $C$DW$53, DW_AT_type(*$C$DW$T$927)
     565                            .dwattr $C$DW$53, DW_AT_location[DW_OP_reg5]
     566                    
     567                    ;* V1    assigned to clockPeriod
     568                    $C$DW$54        .dwtag  DW_TAG_variable
     569                            .dwattr $C$DW$54, DW_AT_name("clockPeriod")
     570                            .dwattr $C$DW$54, DW_AT_TI_symbol_name("clockPeriod")
     571                            .dwattr $C$DW$54, DW_AT_type(*$C$DW$T$927)
     572                            .dwattr $C$DW$54, DW_AT_location[DW_OP_reg4]
     573                    
     574                            .dwcfi  cfa_offset, 0
     575 00000000 41F0E92D          PUSH      {V1, V2, V3, V4, V5, LR} ; [DPU_3_PIPE]  ; [KEEP 32-BIT INS]
     576                            .dwcfi  cfa_offset, 24
     577                            .dwcfi  save_reg_to_mem, 14, -4
     578                            .dwcfi  save_reg_to_mem, 8, -8
     579                            .dwcfi  save_reg_to_mem, 7, -12
     580                            .dwcfi  save_reg_to_mem, 6, -16
     581                            .dwcfi  save_reg_to_mem, 5, -20
     582                            .dwcfi  save_reg_to_mem, 4, -24
     583 00000004 4688              MOV       V5, A2                ; [DPU_3_PIPE] |87|  ; [ORIG 16-BIT INS]
     584 00000006 4615              MOV       V2, A3                ; [DPU_3_PIPE] |87|  ; [ORIG 16-BIT INS]
     585 00000008 461C              MOV       V1, A4                ; [DPU_3_PIPE] |87|  ; [ORIG 16-BIT INS]
     586 0000000a 4606              MOV       V3, A1                ; [DPU_3_PIPE] |87|  ; [ORIG 16-BIT INS]
     587 0000000c AF06              ADD       V4, SP, #24           ; [DPU_3_PIPE]  ; [ORIG 16-BIT INS]
     588                            .dwpsn  file "C:/ti/simplelink_cc13x0_sdk_2_30_00_20/kernel/tirtos/packages/ti/sysbios/knl/Clo
     589 0000000e 2100              MOVS      A2, #0                ; [DPU_3_PIPE] |681|  ; [ORIG 16-BIT INS]
     590 00000010 2224              MOVS      A3, #36               ; [DPU_3_PIPE] |681|  ; [ORIG 16-BIT INS]
     591 00000012 2308              MOVS      A4, #8                ; [DPU_3_PIPE] |681|  ; [ORIG 16-BIT INS]
     592 00000014 0D28F1AD          SUB       SP, SP, #40           ; [DPU_3_PIPE]  ; [KEEP 32-BIT INS]
     593                            .dwcfi  cfa_offset, 64
     594 00000018 4668              MOV       A1, SP                ; [DPU_3_PIPE] |681|  ; [ORIG 16-BIT INS]
     595                    $C$DW$55        .dwtag  DW_TAG_TI_branch
     596                            .dwattr $C$DW$55, DW_AT_low_pc(0x00)
     597                            .dwattr $C$DW$55, DW_AT_name("ti_sysbios_knl_Clock_Params__init__S")
     598                            .dwattr $C$DW$55, DW_AT_TI_call
     599                    
     600 0000001a FFFEF7FF!         BL        ti_sysbios_knl_Clock_Params__init__S ; [DPU_3_PIPE] |681|  ; [KEEP 32-BIT INS]
     601                            ; CALL OCCURS {ti_sysbios_knl_Clock_Params__init__S }  ; [] |681| 
     602                            .dwpsn  file "../Application/util_timer.c",line 97,column 5,is_stmt,isa 1
     603 0000001e 6878              LDR       A1, [V4, #4]          ; [DPU_3_PIPE] |97|  ; [ORIG 16-BIT INS]
     604 00000020 9006              STR       A1, [SP, #24]         ; [DPU_3_PIPE] |97|  ; [ORIG 16-BIT INS]
     605                            .dwpsn  file "../Application/util_timer.c",line 100,column 5,is_stmt,isa 1
TI ARM Assembler PC v16.9.8 Thu Nov 22 09:24:49 2018

Tools Copyright (c) 1996-2017 Texas Instruments Incorporated
C:\Users\Einstein\AppData\Local\Temp\{748D889B-CC6C-4ECD-A5B9-3576FF08DC06} PAGE   12

     606 00000022 480B              LDR       A1, $C$CON1           ; [DPU_3_PIPE] |100|  ; [ORIG 16-BIT INS]
     607 00000024 6800              LDR       A1, [A1, #0]          ; [DPU_3_PIPE] |100|  ; [ORIG 16-BIT INS]
     608 00000026 717AF44F          MOV       A2, #1000             ; [DPU_3_PIPE] |100|  ; [KEEP 32-BIT INS]
     609 0000002a F0F0FBB1          UDIV      A1, A2, A1            ; [DPU_3_PIPE] |100|  ; [KEEP 32-BIT INS]
     610                            .dwpsn  file "../Application/util_timer.c",line 106,column 5,is_stmt,isa 1
     611 0000002e 7839              LDRB      A2, [V4, #0]          ; [DPU_3_PIPE] |106|  ; [ORIG 16-BIT INS]
     612                            .dwpsn  file "../Application/util_timer.c",line 109,column 5,is_stmt,isa 1
     613 00000030 466B              MOV       A4, SP                ; [DPU_3_PIPE] |109|  ; [ORIG 16-BIT INS]
     614                            .dwpsn  file "../Application/util_timer.c",line 100,column 5,is_stmt,isa 1
     615 00000032 B280              UXTH      A1, A1                ; [DPU_3_PIPE] |100|  ; [ORIG 16-BIT INS]
     616 00000034 4344              MULS      V1, V1, A1            ; [DPU_3_PIPE] |100|  ; [ORIG 16-BIT INS]
     617                            .dwpsn  file "../Application/util_timer.c",line 106,column 5,is_stmt,isa 1
     618 00000036 1010F8AD          STRH      A2, [SP, #16]         ; [DPU_3_PIPE] |106|  ; [KEEP 32-BIT INS]
     619                            .dwpsn  file "../Application/util_timer.c",line 109,column 5,is_stmt,isa 1
     620 0000003a F200FB05          MUL       A3, V2, A1            ; [DPU_3_PIPE] |109|  ; [KEEP 32-BIT INS]
     621                            .dwpsn  file "../Application/util_timer.c",line 100,column 5,is_stmt,isa 1
     622 0000003e 9405              STR       V1, [SP, #20]         ; [DPU_3_PIPE] |100|  ; [ORIG 16-BIT INS]
     623                            .dwpsn  file "../Application/util_timer.c",line 109,column 5,is_stmt,isa 1
     624 00000040 4630              MOV       A1, V3                ; [DPU_3_PIPE] |109|  ; [ORIG 16-BIT INS]
     625 00000042 4641              MOV       A2, V5                ; [DPU_3_PIPE] |109|  ; [ORIG 16-BIT INS]
     626                    $C$DW$56        .dwtag  DW_TAG_TI_branch
     627                            .dwattr $C$DW$56, DW_AT_low_pc(0x00)
     628                            .dwattr $C$DW$56, DW_AT_name("ti_sysbios_knl_Clock_construct")
     629                            .dwattr $C$DW$56, DW_AT_TI_call
     630                    
     631 00000044 FFFEF7FF!         BL        ti_sysbios_knl_Clock_construct ; [DPU_3_PIPE] |109|  ; [KEEP 32-BIT INS]
     632                            ; CALL OCCURS {ti_sysbios_knl_Clock_construct }  ; [] |109| 
     633                            .dwpsn  file "../Application/util_timer.c",line 111,column 5,is_stmt,isa 1
     634 00000048 4630              MOV       A1, V3                ; [DPU_3_PIPE] |111|  ; [ORIG 16-BIT INS]
     635 0000004a B00A              ADD       SP, SP, #40           ; [DPU_3_PIPE]  ; [ORIG 16-BIT INS]
     636                            .dwcfi  cfa_offset, 24
     637                    $C$DW$57        .dwtag  DW_TAG_TI_branch
     638                            .dwattr $C$DW$57, DW_AT_low_pc(0x00)
     639                            .dwattr $C$DW$57, DW_AT_TI_return
     640                    
     641 0000004c 81F0E8BD          POP       {V1, V2, V3, V4, V5, PC} ; [DPU_3_PIPE]  ; [KEEP 32-BIT INS]
     642                            .dwcfi  cfa_offset, 0
     643                            .dwcfi  restore_reg, 8
     644                            .dwcfi  restore_reg, 7
     645                            .dwcfi  restore_reg, 6
     646                            .dwcfi  restore_reg, 5
     647                            .dwcfi  restore_reg, 4
     648                            ; BRANCH OCCURS                  ; [] 
     649                            .dwattr $C$DW$43, DW_AT_TI_end_file("../Application/util_timer.c")
     650                            .dwattr $C$DW$43, DW_AT_TI_end_line(0x70)
     651                            .dwattr $C$DW$43, DW_AT_TI_end_column(0x01)
     652                            .dwendentry
     653                            .dwendtag $C$DW$43
     654                    
     655                    ;******************************************************************************
     656                    ;* CONSTANT TABLE                                                             *
     657                    ;******************************************************************************
     658 00000050                   .sect   ".text:Timer_construct"
     659                            .align  4
     660 00000050 00000000! ||$C$CON1||:    .bits   ti_sysbios_knl_Clock_tickPeriod__C,32
TI ARM Assembler PC v16.9.8 Thu Nov 22 09:24:49 2018

Tools Copyright (c) 1996-2017 Texas Instruments Incorporated
C:\Users\Einstein\AppData\Local\Temp\{748D889B-CC6C-4ECD-A5B9-3576FF08DC06} PAGE   13

     661                    ;*****************************************************************************
     662                    ;* UNDEFINED EXTERNAL REFERENCES                                             *
     663                    ;*****************************************************************************
     664                            .global ti_sysbios_knl_Clock_construct
     665                            .global ti_sysbios_knl_Clock_Params__init__S
     666                            .global ti_sysbios_knl_Clock_start__E
     667                            .global ti_sysbios_knl_Clock_stop__E
     668                            .global ti_sysbios_knl_Clock_setTimeout__E
     669                            .global ti_sysbios_knl_Clock_getTimeout__E
     670                            .global ti_sysbios_knl_Clock_isActive__E
     671                            .global ti_sysbios_knl_Clock_tickPeriod__C
     672                    
     673                    ;******************************************************************************
     674                    ;* BUILD ATTRIBUTES                                                           *
     675                    ;******************************************************************************
     676                            .battr "aeabi", Tag_File, 1, Tag_ABI_PCS_wchar_t(2)
     677                            .battr "aeabi", Tag_File, 1, Tag_ABI_FP_rounding(0)
     678                            .battr "aeabi", Tag_File, 1, Tag_ABI_FP_denormal(0)
     679                            .battr "aeabi", Tag_File, 1, Tag_ABI_FP_exceptions(0)
     680                            .battr "aeabi", Tag_File, 1, Tag_ABI_FP_number_model(1)
     681                            .battr "aeabi", Tag_File, 1, Tag_ABI_enum_size(1)
     682                            .battr "aeabi", Tag_File, 1, Tag_ABI_optimization_goals(0)
     683                            .battr "aeabi", Tag_File, 1, Tag_ABI_FP_optimization_goals(0)
     684                            .battr "TI", Tag_File, 1, Tag_Bitfield_layout(2)
     685                            .battr "aeabi", Tag_File, 1, Tag_ABI_VFP_args(3)
     686                            .battr "TI", Tag_File, 1, Tag_FP_interface(1)
     687                    
     688                    ;******************************************************************************
     689                    ;* TYPE INFORMATION                                                           *
     690                    ;******************************************************************************
     691                    
     692                    $C$DW$T$124     .dwtag  DW_TAG_structure_type
     693                            .dwattr $C$DW$T$124, DW_AT_byte_size(0x08)
     694                    $C$DW$58        .dwtag  DW_TAG_member
     695                            .dwattr $C$DW$58, DW_AT_type(*$C$DW$T$10)
     696                            .dwattr $C$DW$58, DW_AT_name("length")
     697                            .dwattr $C$DW$58, DW_AT_TI_symbol_name("length")
     698                            .dwattr $C$DW$58, DW_AT_data_member_location[DW_OP_plus_uconst 0x0]
     699                            .dwattr $C$DW$58, DW_AT_accessibility(DW_ACCESS_public)
     700                            .dwattr $C$DW$58, DW_AT_decl_file("C:/ti/simplelink_cc13x0_sdk_2_30_00_20/kernel/tirtos/packag
     701                            .dwattr $C$DW$58, DW_AT_decl_line(0x165)
     702                            .dwattr $C$DW$58, DW_AT_decl_column(0x16)
     703                    
     704                    $C$DW$59        .dwtag  DW_TAG_member
     705                            .dwattr $C$DW$59, DW_AT_type(*$C$DW$T$123)
     706                            .dwattr $C$DW$59, DW_AT_name("elem")
     707                            .dwattr $C$DW$59, DW_AT_TI_symbol_name("elem")
     708                            .dwattr $C$DW$59, DW_AT_data_member_location[DW_OP_plus_uconst 0x4]
     709                            .dwattr $C$DW$59, DW_AT_accessibility(DW_ACCESS_public)
     710                            .dwattr $C$DW$59, DW_AT_decl_file("C:/ti/simplelink_cc13x0_sdk_2_30_00_20/kernel/tirtos/packag
     711                            .dwattr $C$DW$59, DW_AT_decl_line(0x165)
     712                            .dwattr $C$DW$59, DW_AT_decl_column(0x3a)
     713                    
     714                            .dwattr $C$DW$T$124, DW_AT_decl_file("C:/ti/simplelink_cc13x0_sdk_2_30_00_20/kernel/tirtos/pac
     715                            .dwattr $C$DW$T$124, DW_AT_decl_line(0x165)
TI ARM Assembler PC v16.9.8 Thu Nov 22 09:24:49 2018

Tools Copyright (c) 1996-2017 Texas Instruments Incorporated
C:\Users\Einstein\AppData\Local\Temp\{748D889B-CC6C-4ECD-A5B9-3576FF08DC06} PAGE   14

     716                            .dwattr $C$DW$T$124, DW_AT_decl_column(0x10)
     717                            .dwendtag $C$DW$T$124
     718                    
     719                    $C$DW$T$483     .dwtag  DW_TAG_typedef
     720                            .dwattr $C$DW$T$483, DW_AT_name("ARRAY1_ti_sysbios_knl_Swi_hooks")
     721                            .dwattr $C$DW$T$483, DW_AT_type(*$C$DW$T$124)
     722                            .dwattr $C$DW$T$483, DW_AT_language(DW_LANG_C)
     723                            .dwattr $C$DW$T$483, DW_AT_decl_file("C:/ti/simplelink_cc13x0_sdk_2_30_00_20/kernel/tirtos/pac
     724                            .dwattr $C$DW$T$483, DW_AT_decl_line(0x165)
     725                            .dwattr $C$DW$T$483, DW_AT_decl_column(0x42)
     726                    
     727                    
     728                    $C$DW$T$127     .dwtag  DW_TAG_structure_type
     729                            .dwattr $C$DW$T$127, DW_AT_byte_size(0x08)
     730                    $C$DW$60        .dwtag  DW_TAG_member
     731                            .dwattr $C$DW$60, DW_AT_type(*$C$DW$T$10)
     732                            .dwattr $C$DW$60, DW_AT_name("length")
     733                            .dwattr $C$DW$60, DW_AT_TI_symbol_name("length")
     734                            .dwattr $C$DW$60, DW_AT_data_member_location[DW_OP_plus_uconst 0x0]
     735                            .dwattr $C$DW$60, DW_AT_accessibility(DW_ACCESS_public)
     736                            .dwattr $C$DW$60, DW_AT_decl_file("C:/ti/simplelink_cc13x0_sdk_2_30_00_20/kernel/tirtos/packag
     737                            .dwattr $C$DW$60, DW_AT_decl_line(0x166)
     738                            .dwattr $C$DW$60, DW_AT_decl_column(0x16)
     739                    
     740                    $C$DW$61        .dwtag  DW_TAG_member
     741                            .dwattr $C$DW$61, DW_AT_type(*$C$DW$T$126)
     742                            .dwattr $C$DW$61, DW_AT_name("elem")
     743                            .dwattr $C$DW$61, DW_AT_TI_symbol_name("elem")
     744                            .dwattr $C$DW$61, DW_AT_data_member_location[DW_OP_plus_uconst 0x4]
     745                            .dwattr $C$DW$61, DW_AT_accessibility(DW_ACCESS_public)
     746                            .dwattr $C$DW$61, DW_AT_decl_file("C:/ti/simplelink_cc13x0_sdk_2_30_00_20/kernel/tirtos/packag
     747                            .dwattr $C$DW$61, DW_AT_decl_line(0x166)
     748                            .dwattr $C$DW$61, DW_AT_decl_column(0x40)
     749                    
     750                            .dwattr $C$DW$T$127, DW_AT_decl_file("C:/ti/simplelink_cc13x0_sdk_2_30_00_20/kernel/tirtos/pac
     751                            .dwattr $C$DW$T$127, DW_AT_decl_line(0x166)
     752                            .dwattr $C$DW$T$127, DW_AT_decl_column(0x10)
     753                            .dwendtag $C$DW$T$127
     754                    
     755                    $C$DW$T$484     .dwtag  DW_TAG_typedef
     756                            .dwattr $C$DW$T$484, DW_AT_name("CARRAY1_ti_sysbios_knl_Swi_hooks")
     757                            .dwattr $C$DW$T$484, DW_AT_type(*$C$DW$T$127)
     758                            .dwattr $C$DW$T$484, DW_AT_language(DW_LANG_C)
     759                            .dwattr $C$DW$T$484, DW_AT_decl_file("C:/ti/simplelink_cc13x0_sdk_2_30_00_20/kernel/tirtos/pac
     760                            .dwattr $C$DW$T$484, DW_AT_decl_line(0x166)
     761                            .dwattr $C$DW$T$484, DW_AT_decl_column(0x48)
     762                    
     763                    $C$DW$T$485     .dwtag  DW_TAG_typedef
     764                            .dwattr $C$DW$T$485, DW_AT_name("CT__ti_sysbios_knl_Swi_hooks")
     765                            .dwattr $C$DW$T$485, DW_AT_type(*$C$DW$T$484)
     766                            .dwattr $C$DW$T$485, DW_AT_language(DW_LANG_C)
     767                            .dwattr $C$DW$T$485, DW_AT_decl_file("C:/ti/simplelink_cc13x0_sdk_2_30_00_20/kernel/tirtos/pac
     768                            .dwattr $C$DW$T$485, DW_AT_decl_line(0x168)
     769                            .dwattr $C$DW$T$485, DW_AT_decl_column(0x2a)
     770                    
TI ARM Assembler PC v16.9.8 Thu Nov 22 09:24:49 2018

Tools Copyright (c) 1996-2017 Texas Instruments Incorporated
C:\Users\Einstein\AppData\Local\Temp\{748D889B-CC6C-4ECD-A5B9-3576FF08DC06} PAGE   15

     771                    $C$DW$T$486     .dwtag  DW_TAG_typedef
     772                            .dwattr $C$DW$T$486, DW_AT_name("__TA_ti_sysbios_knl_Swi_hooks")
     773                            .dwattr $C$DW$T$486, DW_AT_type(*$C$DW$T$484)
     774                            .dwattr $C$DW$T$486, DW_AT_language(DW_LANG_C)
     775                            .dwattr $C$DW$T$486, DW_AT_decl_file("C:/ti/simplelink_cc13x0_sdk_2_30_00_20/kernel/tirtos/pac
     776                            .dwattr $C$DW$T$486, DW_AT_decl_line(0x167)
     777                            .dwattr $C$DW$T$486, DW_AT_decl_column(0x2a)
     778                    
     779                    
     780                    $C$DW$T$130     .dwtag  DW_TAG_structure_type
     781                            .dwattr $C$DW$T$130, DW_AT_byte_size(0x08)
     782                    $C$DW$62        .dwtag  DW_TAG_member
     783                            .dwattr $C$DW$62, DW_AT_type(*$C$DW$T$10)
     784                            .dwattr $C$DW$62, DW_AT_name("length")
     785                            .dwattr $C$DW$62, DW_AT_TI_symbol_name("length")
     786                            .dwattr $C$DW$62, DW_AT_data_member_location[DW_OP_plus_uconst 0x0]
     787                            .dwattr $C$DW$62, DW_AT_accessibility(DW_ACCESS_public)
     788                            .dwattr $C$DW$62, DW_AT_decl_file("C:/ti/simplelink_cc13x0_sdk_2_30_00_20/kernel/tirtos/packag
     789                            .dwattr $C$DW$62, DW_AT_decl_line(0x29b)
     790                            .dwattr $C$DW$62, DW_AT_decl_column(0x16)
     791                    
     792                    $C$DW$63        .dwtag  DW_TAG_member
     793                            .dwattr $C$DW$63, DW_AT_type(*$C$DW$T$129)
     794                            .dwattr $C$DW$63, DW_AT_name("elem")
     795                            .dwattr $C$DW$63, DW_AT_TI_symbol_name("elem")
     796                            .dwattr $C$DW$63, DW_AT_data_member_location[DW_OP_plus_uconst 0x4]
     797                            .dwattr $C$DW$63, DW_AT_accessibility(DW_ACCESS_public)
     798                            .dwattr $C$DW$63, DW_AT_decl_file("C:/ti/simplelink_cc13x0_sdk_2_30_00_20/kernel/tirtos/packag
     799                            .dwattr $C$DW$63, DW_AT_decl_line(0x29b)
     800                            .dwattr $C$DW$63, DW_AT_decl_column(0x3b)
     801                    
     802                            .dwattr $C$DW$T$130, DW_AT_decl_file("C:/ti/simplelink_cc13x0_sdk_2_30_00_20/kernel/tirtos/pac
     803                            .dwattr $C$DW$T$130, DW_AT_decl_line(0x29b)
     804                            .dwattr $C$DW$T$130, DW_AT_decl_column(0x10)
     805                            .dwendtag $C$DW$T$130
     806                    
     807                    $C$DW$T$487     .dwtag  DW_TAG_typedef
     808                            .dwattr $C$DW$T$487, DW_AT_name("ARRAY1_ti_sysbios_knl_Task_hooks")
     809                            .dwattr $C$DW$T$487, DW_AT_type(*$C$DW$T$130)
     810                            .dwattr $C$DW$T$487, DW_AT_language(DW_LANG_C)
     811                            .dwattr $C$DW$T$487, DW_AT_decl_file("C:/ti/simplelink_cc13x0_sdk_2_30_00_20/kernel/tirtos/pac
     812                            .dwattr $C$DW$T$487, DW_AT_decl_line(0x29b)
     813                            .dwattr $C$DW$T$487, DW_AT_decl_column(0x43)
     814                    
     815                    
     816                    $C$DW$T$133     .dwtag  DW_TAG_structure_type
     817                            .dwattr $C$DW$T$133, DW_AT_byte_size(0x08)
     818                    $C$DW$64        .dwtag  DW_TAG_member
     819                            .dwattr $C$DW$64, DW_AT_type(*$C$DW$T$10)
     820                            .dwattr $C$DW$64, DW_AT_name("length")
     821                            .dwattr $C$DW$64, DW_AT_TI_symbol_name("length")
     822                            .dwattr $C$DW$64, DW_AT_data_member_location[DW_OP_plus_uconst 0x0]
     823                            .dwattr $C$DW$64, DW_AT_accessibility(DW_ACCESS_public)
     824                            .dwattr $C$DW$64, DW_AT_decl_file("C:/ti/simplelink_cc13x0_sdk_2_30_00_20/kernel/tirtos/packag
     825                            .dwattr $C$DW$64, DW_AT_decl_line(0x29c)
TI ARM Assembler PC v16.9.8 Thu Nov 22 09:24:49 2018

Tools Copyright (c) 1996-2017 Texas Instruments Incorporated
C:\Users\Einstein\AppData\Local\Temp\{748D889B-CC6C-4ECD-A5B9-3576FF08DC06} PAGE   16

     826                            .dwattr $C$DW$64, DW_AT_decl_column(0x16)
     827                    
     828                    $C$DW$65        .dwtag  DW_TAG_member
     829                            .dwattr $C$DW$65, DW_AT_type(*$C$DW$T$132)
     830                            .dwattr $C$DW$65, DW_AT_name("elem")
     831                            .dwattr $C$DW$65, DW_AT_TI_symbol_name("elem")
     832                            .dwattr $C$DW$65, DW_AT_data_member_location[DW_OP_plus_uconst 0x4]
     833                            .dwattr $C$DW$65, DW_AT_accessibility(DW_ACCESS_public)
     834                            .dwattr $C$DW$65, DW_AT_decl_file("C:/ti/simplelink_cc13x0_sdk_2_30_00_20/kernel/tirtos/packag
     835                            .dwattr $C$DW$65, DW_AT_decl_line(0x29c)
     836                            .dwattr $C$DW$65, DW_AT_decl_column(0x41)
     837                    
     838                            .dwattr $C$DW$T$133, DW_AT_decl_file("C:/ti/simplelink_cc13x0_sdk_2_30_00_20/kernel/tirtos/pac
     839                            .dwattr $C$DW$T$133, DW_AT_decl_line(0x29c)
     840                            .dwattr $C$DW$T$133, DW_AT_decl_column(0x10)
     841                            .dwendtag $C$DW$T$133
     842                    
     843                    $C$DW$T$488     .dwtag  DW_TAG_typedef
     844                            .dwattr $C$DW$T$488, DW_AT_name("CARRAY1_ti_sysbios_knl_Task_hooks")
     845                            .dwattr $C$DW$T$488, DW_AT_type(*$C$DW$T$133)
     846                            .dwattr $C$DW$T$488, DW_AT_language(DW_LANG_C)
     847                            .dwattr $C$DW$T$488, DW_AT_decl_file("C:/ti/simplelink_cc13x0_sdk_2_30_00_20/kernel/tirtos/pac
     848                            .dwattr $C$DW$T$488, DW_AT_decl_line(0x29c)
     849                            .dwattr $C$DW$T$488, DW_AT_decl_column(0x49)
     850                    
     851                    $C$DW$T$489     .dwtag  DW_TAG_typedef
     852                            .dwattr $C$DW$T$489, DW_AT_name("CT__ti_sysbios_knl_Task_hooks")
     853                            .dwattr $C$DW$T$489, DW_AT_type(*$C$DW$T$488)
     854                            .dwattr $C$DW$T$489, DW_AT_language(DW_LANG_C)
     855                            .dwattr $C$DW$T$489, DW_AT_decl_file("C:/ti/simplelink_cc13x0_sdk_2_30_00_20/kernel/tirtos/pac
     856                            .dwattr $C$DW$T$489, DW_AT_decl_line(0x29e)
     857                            .dwattr $C$DW$T$489, DW_AT_decl_column(0x2b)
     858                    
     859                    $C$DW$T$490     .dwtag  DW_TAG_typedef
     860                            .dwattr $C$DW$T$490, DW_AT_name("__TA_ti_sysbios_knl_Task_hooks")
     861                            .dwattr $C$DW$T$490, DW_AT_type(*$C$DW$T$488)
     862                            .dwattr $C$DW$T$490, DW_AT_language(DW_LANG_C)
     863                            .dwattr $C$DW$T$490, DW_AT_decl_file("C:/ti/simplelink_cc13x0_sdk_2_30_00_20/kernel/tirtos/pac
     864                            .dwattr $C$DW$T$490, DW_AT_decl_line(0x29d)
     865                            .dwattr $C$DW$T$490, DW_AT_decl_column(0x2b)
     866                    
     867                    
     868                    $C$DW$T$137     .dwtag  DW_TAG_union_type
     869                            .dwattr $C$DW$T$137, DW_AT_byte_size(0x04)
     870                    $C$DW$66        .dwtag  DW_TAG_member
     871                            .dwattr $C$DW$66, DW_AT_type(*$C$DW$T$134)
     872                            .dwattr $C$DW$66, DW_AT_name("f")
     873                            .dwattr $C$DW$66, DW_AT_TI_symbol_name("f")
     874                            .dwattr $C$DW$66, DW_AT_data_member_location[DW_OP_plus_uconst 0x0]
     875                            .dwattr $C$DW$66, DW_AT_accessibility(DW_ACCESS_public)
     876                            .dwattr $C$DW$66, DW_AT_decl_file("C:/ti/xdctools_3_50_04_43_core/packages/xdc/std.h")
     877                            .dwattr $C$DW$66, DW_AT_decl_line(0xb7)
     878                            .dwattr $C$DW$66, DW_AT_decl_column(0x0f)
     879                    
     880                    $C$DW$67        .dwtag  DW_TAG_member
TI ARM Assembler PC v16.9.8 Thu Nov 22 09:24:49 2018

Tools Copyright (c) 1996-2017 Texas Instruments Incorporated
C:\Users\Einstein\AppData\Local\Temp\{748D889B-CC6C-4ECD-A5B9-3576FF08DC06} PAGE   17

     881                            .dwattr $C$DW$67, DW_AT_type(*$C$DW$T$136)
     882                            .dwattr $C$DW$67, DW_AT_name("a")
     883                            .dwattr $C$DW$67, DW_AT_TI_symbol_name("a")
     884                            .dwattr $C$DW$67, DW_AT_data_member_location[DW_OP_plus_uconst 0x0]
     885                            .dwattr $C$DW$67, DW_AT_accessibility(DW_ACCESS_public)
     886                            .dwattr $C$DW$67, DW_AT_decl_file("C:/ti/xdctools_3_50_04_43_core/packages/xdc/std.h")
     887                            .dwattr $C$DW$67, DW_AT_decl_line(0xb8)
     888                            .dwattr $C$DW$67, DW_AT_decl_column(0x0f)
     889                    
     890                            .dwattr $C$DW$T$137, DW_AT_decl_file("C:/ti/xdctools_3_50_04_43_core/packages/xdc/std.h")
     891                            .dwattr $C$DW$T$137, DW_AT_decl_line(0xb6)
     892                            .dwattr $C$DW$T$137, DW_AT_decl_column(0x0f)
     893                            .dwendtag $C$DW$T$137
     894                    
     895                    $C$DW$T$491     .dwtag  DW_TAG_typedef
     896                            .dwattr $C$DW$T$491, DW_AT_name("xdc_FloatData")
     897                            .dwattr $C$DW$T$491, DW_AT_type(*$C$DW$T$137)
     898                            .dwattr $C$DW$T$491, DW_AT_language(DW_LANG_C)
     899                            .dwattr $C$DW$T$491, DW_AT_decl_file("C:/ti/xdctools_3_50_04_43_core/packages/xdc/std.h")
     900                            .dwattr $C$DW$T$491, DW_AT_decl_line(0xb9)
     901                            .dwattr $C$DW$T$491, DW_AT_decl_column(0x03)
     902                    
     903                    $C$DW$T$2       .dwtag  DW_TAG_unspecified_type
     904                            .dwattr $C$DW$T$2, DW_AT_name("void")
     905                    
     906                    $C$DW$T$3       .dwtag  DW_TAG_pointer_type
     907                            .dwattr $C$DW$T$3, DW_AT_type(*$C$DW$T$2)
     908                            .dwattr $C$DW$T$3, DW_AT_address_class(0x20)
     909                    
     910                    $C$DW$T$154     .dwtag  DW_TAG_typedef
     911                            .dwattr $C$DW$T$154, DW_AT_name("xdc_Ptr")
     912                            .dwattr $C$DW$T$154, DW_AT_type(*$C$DW$T$3)
     913                            .dwattr $C$DW$T$154, DW_AT_language(DW_LANG_C)
     914                            .dwattr $C$DW$T$154, DW_AT_decl_file("C:/ti/xdctools_3_50_04_43_core/packages/xdc/std.h")
     915                            .dwattr $C$DW$T$154, DW_AT_decl_line(0x2e)
     916                            .dwattr $C$DW$T$154, DW_AT_decl_column(0x1a)
     917                    
     918                    $C$DW$T$492     .dwtag  DW_TAG_typedef
     919                            .dwattr $C$DW$T$492, DW_AT_name("CT__ti_sysbios_knl_Clock_Module__gateObj")
     920                            .dwattr $C$DW$T$492, DW_AT_type(*$C$DW$T$154)
     921                            .dwattr $C$DW$T$492, DW_AT_language(DW_LANG_C)
     922                            .dwattr $C$DW$T$492, DW_AT_decl_file("C:/ti/simplelink_cc13x0_sdk_2_30_00_20/kernel/tirtos/pac
     923                            .dwattr $C$DW$T$492, DW_AT_decl_line(0x8c)
     924                            .dwattr $C$DW$T$492, DW_AT_decl_column(0x11)
     925                    
     926                    $C$DW$T$493     .dwtag  DW_TAG_typedef
     927                            .dwattr $C$DW$T$493, DW_AT_name("CT__ti_sysbios_knl_Clock_Module__gatePrms")
     928                            .dwattr $C$DW$T$493, DW_AT_type(*$C$DW$T$154)
     929                            .dwattr $C$DW$T$493, DW_AT_language(DW_LANG_C)
     930                            .dwattr $C$DW$T$493, DW_AT_decl_file("C:/ti/simplelink_cc13x0_sdk_2_30_00_20/kernel/tirtos/pac
     931                            .dwattr $C$DW$T$493, DW_AT_decl_line(0x95)
     932                            .dwattr $C$DW$T$493, DW_AT_decl_column(0x11)
     933                    
     934                    $C$DW$T$494     .dwtag  DW_TAG_typedef
     935                            .dwattr $C$DW$T$494, DW_AT_name("CT__ti_sysbios_knl_Clock_Module__loggerObj")
TI ARM Assembler PC v16.9.8 Thu Nov 22 09:24:49 2018

Tools Copyright (c) 1996-2017 Texas Instruments Incorporated
C:\Users\Einstein\AppData\Local\Temp\{748D889B-CC6C-4ECD-A5B9-3576FF08DC06} PAGE   18

     936                            .dwattr $C$DW$T$494, DW_AT_type(*$C$DW$T$154)
     937                            .dwattr $C$DW$T$494, DW_AT_language(DW_LANG_C)
     938                            .dwattr $C$DW$T$494, DW_AT_decl_file("C:/ti/simplelink_cc13x0_sdk_2_30_00_20/kernel/tirtos/pac
     939                            .dwattr $C$DW$T$494, DW_AT_decl_line(0xb0)
     940                            .dwattr $C$DW$T$494, DW_AT_decl_column(0x11)
     941                    
     942                    $C$DW$T$495     .dwtag  DW_TAG_typedef
     943                            .dwattr $C$DW$T$495, DW_AT_name("CT__ti_sysbios_knl_Clock_Object__table")
     944                            .dwattr $C$DW$T$495, DW_AT_type(*$C$DW$T$154)
     945                            .dwattr $C$DW$T$495, DW_AT_language(DW_LANG_C)
     946                            .dwattr $C$DW$T$495, DW_AT_decl_file("C:/ti/simplelink_cc13x0_sdk_2_30_00_20/kernel/tirtos/pac
     947                            .dwattr $C$DW$T$495, DW_AT_decl_line(0x101)
     948                            .dwattr $C$DW$T$495, DW_AT_decl_column(0x11)
     949                    
     950                    $C$DW$T$496     .dwtag  DW_TAG_typedef
     951                            .dwattr $C$DW$T$496, DW_AT_name("CT__ti_sysbios_knl_Clock_TimerProxy_Module__gateObj")
     952                            .dwattr $C$DW$T$496, DW_AT_type(*$C$DW$T$154)
     953                            .dwattr $C$DW$T$496, DW_AT_language(DW_LANG_C)
     954                            .dwattr $C$DW$T$496, DW_AT_decl_file("C:/ti/simplelink_cc13x0_sdk_2_30_00_20/kernel/tirtos/pac
     955                            .dwattr $C$DW$T$496, DW_AT_decl_line(0x80)
     956                            .dwattr $C$DW$T$496, DW_AT_decl_column(0x11)
     957                    
     958                    $C$DW$T$497     .dwtag  DW_TAG_typedef
     959                            .dwattr $C$DW$T$497, DW_AT_name("CT__ti_sysbios_knl_Clock_TimerProxy_Module__gatePrms")
     960                            .dwattr $C$DW$T$497, DW_AT_type(*$C$DW$T$154)
     961                            .dwattr $C$DW$T$497, DW_AT_language(DW_LANG_C)
     962                            .dwattr $C$DW$T$497, DW_AT_decl_file("C:/ti/simplelink_cc13x0_sdk_2_30_00_20/kernel/tirtos/pac
     963                            .dwattr $C$DW$T$497, DW_AT_decl_line(0x89)
     964                            .dwattr $C$DW$T$497, DW_AT_decl_column(0x11)
     965                    
     966                    $C$DW$T$498     .dwtag  DW_TAG_typedef
     967                            .dwattr $C$DW$T$498, DW_AT_name("CT__ti_sysbios_knl_Clock_TimerProxy_Module__loggerObj")
     968                            .dwattr $C$DW$T$498, DW_AT_type(*$C$DW$T$154)
     969                            .dwattr $C$DW$T$498, DW_AT_language(DW_LANG_C)
     970                            .dwattr $C$DW$T$498, DW_AT_decl_file("C:/ti/simplelink_cc13x0_sdk_2_30_00_20/kernel/tirtos/pac
     971                            .dwattr $C$DW$T$498, DW_AT_decl_line(0xa4)
     972                            .dwattr $C$DW$T$498, DW_AT_decl_column(0x11)
     973                    
     974                    $C$DW$T$499     .dwtag  DW_TAG_typedef
     975                            .dwattr $C$DW$T$499, DW_AT_name("CT__ti_sysbios_knl_Clock_TimerProxy_Object__table")
     976                            .dwattr $C$DW$T$499, DW_AT_type(*$C$DW$T$154)
     977                            .dwattr $C$DW$T$499, DW_AT_language(DW_LANG_C)
     978                            .dwattr $C$DW$T$499, DW_AT_decl_file("C:/ti/simplelink_cc13x0_sdk_2_30_00_20/kernel/tirtos/pac
     979                            .dwattr $C$DW$T$499, DW_AT_decl_line(0xf5)
     980                            .dwattr $C$DW$T$499, DW_AT_decl_column(0x11)
     981                    
     982                    $C$DW$T$500     .dwtag  DW_TAG_typedef
     983                            .dwattr $C$DW$T$500, DW_AT_name("CT__ti_sysbios_knl_Event_Module__gateObj")
     984                            .dwattr $C$DW$T$500, DW_AT_type(*$C$DW$T$154)
     985                            .dwattr $C$DW$T$500, DW_AT_language(DW_LANG_C)
     986                            .dwattr $C$DW$T$500, DW_AT_decl_file("C:/ti/simplelink_cc13x0_sdk_2_30_00_20/kernel/tirtos/pac
     987                            .dwattr $C$DW$T$500, DW_AT_decl_line(0xe3)
     988                            .dwattr $C$DW$T$500, DW_AT_decl_column(0x11)
     989                    
     990                    $C$DW$T$501     .dwtag  DW_TAG_typedef
TI ARM Assembler PC v16.9.8 Thu Nov 22 09:24:49 2018

Tools Copyright (c) 1996-2017 Texas Instruments Incorporated
C:\Users\Einstein\AppData\Local\Temp\{748D889B-CC6C-4ECD-A5B9-3576FF08DC06} PAGE   19

     991                            .dwattr $C$DW$T$501, DW_AT_name("CT__ti_sysbios_knl_Event_Module__gatePrms")
     992                            .dwattr $C$DW$T$501, DW_AT_type(*$C$DW$T$154)
     993                            .dwattr $C$DW$T$501, DW_AT_language(DW_LANG_C)
     994                            .dwattr $C$DW$T$501, DW_AT_decl_file("C:/ti/simplelink_cc13x0_sdk_2_30_00_20/kernel/tirtos/pac
     995                            .dwattr $C$DW$T$501, DW_AT_decl_line(0xec)
     996                            .dwattr $C$DW$T$501, DW_AT_decl_column(0x11)
     997                    
     998                    $C$DW$T$502     .dwtag  DW_TAG_typedef
     999                            .dwattr $C$DW$T$502, DW_AT_name("CT__ti_sysbios_knl_Event_Module__loggerObj")
    1000                            .dwattr $C$DW$T$502, DW_AT_type(*$C$DW$T$154)
    1001                            .dwattr $C$DW$T$502, DW_AT_language(DW_LANG_C)
    1002                            .dwattr $C$DW$T$502, DW_AT_decl_file("C:/ti/simplelink_cc13x0_sdk_2_30_00_20/kernel/tirtos/pac
    1003                            .dwattr $C$DW$T$502, DW_AT_decl_line(0x107)
    1004                            .dwattr $C$DW$T$502, DW_AT_decl_column(0x11)
    1005                    
    1006                    $C$DW$T$503     .dwtag  DW_TAG_typedef
    1007                            .dwattr $C$DW$T$503, DW_AT_name("CT__ti_sysbios_knl_Event_Object__table")
    1008                            .dwattr $C$DW$T$503, DW_AT_type(*$C$DW$T$154)
    1009                            .dwattr $C$DW$T$503, DW_AT_language(DW_LANG_C)
    1010                            .dwattr $C$DW$T$503, DW_AT_decl_file("C:/ti/simplelink_cc13x0_sdk_2_30_00_20/kernel/tirtos/pac
    1011                            .dwattr $C$DW$T$503, DW_AT_decl_line(0x158)
    1012                            .dwattr $C$DW$T$503, DW_AT_decl_column(0x11)
    1013                    
    1014                    $C$DW$T$504     .dwtag  DW_TAG_typedef
    1015                            .dwattr $C$DW$T$504, DW_AT_name("CT__ti_sysbios_knl_Queue_Module__gateObj")
    1016                            .dwattr $C$DW$T$504, DW_AT_type(*$C$DW$T$154)
    1017                            .dwattr $C$DW$T$504, DW_AT_language(DW_LANG_C)
    1018                            .dwattr $C$DW$T$504, DW_AT_decl_file("C:/ti/simplelink_cc13x0_sdk_2_30_00_20/kernel/tirtos/pac
    1019                            .dwattr $C$DW$T$504, DW_AT_decl_line(0x6d)
    1020                            .dwattr $C$DW$T$504, DW_AT_decl_column(0x11)
    1021                    
    1022                    $C$DW$T$505     .dwtag  DW_TAG_typedef
    1023                            .dwattr $C$DW$T$505, DW_AT_name("CT__ti_sysbios_knl_Queue_Module__gatePrms")
    1024                            .dwattr $C$DW$T$505, DW_AT_type(*$C$DW$T$154)
    1025                            .dwattr $C$DW$T$505, DW_AT_language(DW_LANG_C)
    1026                            .dwattr $C$DW$T$505, DW_AT_decl_file("C:/ti/simplelink_cc13x0_sdk_2_30_00_20/kernel/tirtos/pac
    1027                            .dwattr $C$DW$T$505, DW_AT_decl_line(0x76)
    1028                            .dwattr $C$DW$T$505, DW_AT_decl_column(0x11)
    1029                    
    1030                    $C$DW$T$506     .dwtag  DW_TAG_typedef
    1031                            .dwattr $C$DW$T$506, DW_AT_name("CT__ti_sysbios_knl_Queue_Module__loggerObj")
    1032                            .dwattr $C$DW$T$506, DW_AT_type(*$C$DW$T$154)
    1033                            .dwattr $C$DW$T$506, DW_AT_language(DW_LANG_C)
    1034                            .dwattr $C$DW$T$506, DW_AT_decl_file("C:/ti/simplelink_cc13x0_sdk_2_30_00_20/kernel/tirtos/pac
    1035                            .dwattr $C$DW$T$506, DW_AT_decl_line(0x91)
    1036                            .dwattr $C$DW$T$506, DW_AT_decl_column(0x11)
    1037                    
    1038                    $C$DW$T$507     .dwtag  DW_TAG_typedef
    1039                            .dwattr $C$DW$T$507, DW_AT_name("CT__ti_sysbios_knl_Queue_Object__table")
    1040                            .dwattr $C$DW$T$507, DW_AT_type(*$C$DW$T$154)
    1041                            .dwattr $C$DW$T$507, DW_AT_language(DW_LANG_C)
    1042                            .dwattr $C$DW$T$507, DW_AT_decl_file("C:/ti/simplelink_cc13x0_sdk_2_30_00_20/kernel/tirtos/pac
    1043                            .dwattr $C$DW$T$507, DW_AT_decl_line(0xe2)
    1044                            .dwattr $C$DW$T$507, DW_AT_decl_column(0x11)
    1045                    
TI ARM Assembler PC v16.9.8 Thu Nov 22 09:24:49 2018

Tools Copyright (c) 1996-2017 Texas Instruments Incorporated
C:\Users\Einstein\AppData\Local\Temp\{748D889B-CC6C-4ECD-A5B9-3576FF08DC06} PAGE   20

    1046                    $C$DW$T$508     .dwtag  DW_TAG_typedef
    1047                            .dwattr $C$DW$T$508, DW_AT_name("CT__ti_sysbios_knl_Semaphore_Module__gateObj")
    1048                            .dwattr $C$DW$T$508, DW_AT_type(*$C$DW$T$154)
    1049                            .dwattr $C$DW$T$508, DW_AT_language(DW_LANG_C)
    1050                            .dwattr $C$DW$T$508, DW_AT_decl_file("C:/ti/simplelink_cc13x0_sdk_2_30_00_20/kernel/tirtos/pac
    1051                            .dwattr $C$DW$T$508, DW_AT_decl_line(0x91)
    1052                            .dwattr $C$DW$T$508, DW_AT_decl_column(0x11)
    1053                    
    1054                    $C$DW$T$509     .dwtag  DW_TAG_typedef
    1055                            .dwattr $C$DW$T$509, DW_AT_name("CT__ti_sysbios_knl_Semaphore_Module__gatePrms")
    1056                            .dwattr $C$DW$T$509, DW_AT_type(*$C$DW$T$154)
    1057                            .dwattr $C$DW$T$509, DW_AT_language(DW_LANG_C)
    1058                            .dwattr $C$DW$T$509, DW_AT_decl_file("C:/ti/simplelink_cc13x0_sdk_2_30_00_20/kernel/tirtos/pac
    1059                            .dwattr $C$DW$T$509, DW_AT_decl_line(0x9a)
    1060                            .dwattr $C$DW$T$509, DW_AT_decl_column(0x11)
    1061                    
    1062                    $C$DW$T$510     .dwtag  DW_TAG_typedef
    1063                            .dwattr $C$DW$T$510, DW_AT_name("CT__ti_sysbios_knl_Semaphore_Module__loggerObj")
    1064                            .dwattr $C$DW$T$510, DW_AT_type(*$C$DW$T$154)
    1065                            .dwattr $C$DW$T$510, DW_AT_language(DW_LANG_C)
    1066                            .dwattr $C$DW$T$510, DW_AT_decl_file("C:/ti/simplelink_cc13x0_sdk_2_30_00_20/kernel/tirtos/pac
    1067                            .dwattr $C$DW$T$510, DW_AT_decl_line(0xb5)
    1068                            .dwattr $C$DW$T$510, DW_AT_decl_column(0x11)
    1069                    
    1070                    $C$DW$T$511     .dwtag  DW_TAG_typedef
    1071                            .dwattr $C$DW$T$511, DW_AT_name("CT__ti_sysbios_knl_Semaphore_Object__table")
    1072                            .dwattr $C$DW$T$511, DW_AT_type(*$C$DW$T$154)
    1073                            .dwattr $C$DW$T$511, DW_AT_language(DW_LANG_C)
    1074                            .dwattr $C$DW$T$511, DW_AT_decl_file("C:/ti/simplelink_cc13x0_sdk_2_30_00_20/kernel/tirtos/pac
    1075                            .dwattr $C$DW$T$511, DW_AT_decl_line(0x106)
    1076                            .dwattr $C$DW$T$511, DW_AT_decl_column(0x11)
    1077                    
    1078                    $C$DW$T$512     .dwtag  DW_TAG_typedef
    1079                            .dwattr $C$DW$T$512, DW_AT_name("CT__ti_sysbios_knl_Swi_Module__gateObj")
    1080                            .dwattr $C$DW$T$512, DW_AT_type(*$C$DW$T$154)
    1081                            .dwattr $C$DW$T$512, DW_AT_language(DW_LANG_C)
    1082                            .dwattr $C$DW$T$512, DW_AT_decl_file("C:/ti/simplelink_cc13x0_sdk_2_30_00_20/kernel/tirtos/pac
    1083                            .dwattr $C$DW$T$512, DW_AT_decl_line(0xac)
    1084                            .dwattr $C$DW$T$512, DW_AT_decl_column(0x11)
    1085                    
    1086                    $C$DW$T$513     .dwtag  DW_TAG_typedef
    1087                            .dwattr $C$DW$T$513, DW_AT_name("CT__ti_sysbios_knl_Swi_Module__gatePrms")
    1088                            .dwattr $C$DW$T$513, DW_AT_type(*$C$DW$T$154)
    1089                            .dwattr $C$DW$T$513, DW_AT_language(DW_LANG_C)
    1090                            .dwattr $C$DW$T$513, DW_AT_decl_file("C:/ti/simplelink_cc13x0_sdk_2_30_00_20/kernel/tirtos/pac
    1091                            .dwattr $C$DW$T$513, DW_AT_decl_line(0xb5)
    1092                            .dwattr $C$DW$T$513, DW_AT_decl_column(0x11)
    1093                    
    1094                    $C$DW$T$514     .dwtag  DW_TAG_typedef
    1095                            .dwattr $C$DW$T$514, DW_AT_name("CT__ti_sysbios_knl_Swi_Module__loggerObj")
    1096                            .dwattr $C$DW$T$514, DW_AT_type(*$C$DW$T$154)
    1097                            .dwattr $C$DW$T$514, DW_AT_language(DW_LANG_C)
    1098                            .dwattr $C$DW$T$514, DW_AT_decl_file("C:/ti/simplelink_cc13x0_sdk_2_30_00_20/kernel/tirtos/pac
    1099                            .dwattr $C$DW$T$514, DW_AT_decl_line(0xd0)
    1100                            .dwattr $C$DW$T$514, DW_AT_decl_column(0x11)
TI ARM Assembler PC v16.9.8 Thu Nov 22 09:24:49 2018

Tools Copyright (c) 1996-2017 Texas Instruments Incorporated
C:\Users\Einstein\AppData\Local\Temp\{748D889B-CC6C-4ECD-A5B9-3576FF08DC06} PAGE   21

    1101                    
    1102                    $C$DW$T$515     .dwtag  DW_TAG_typedef
    1103                            .dwattr $C$DW$T$515, DW_AT_name("CT__ti_sysbios_knl_Swi_Object__table")
    1104                            .dwattr $C$DW$T$515, DW_AT_type(*$C$DW$T$154)
    1105                            .dwattr $C$DW$T$515, DW_AT_language(DW_LANG_C)
    1106                            .dwattr $C$DW$T$515, DW_AT_decl_file("C:/ti/simplelink_cc13x0_sdk_2_30_00_20/kernel/tirtos/pac
    1107                            .dwattr $C$DW$T$515, DW_AT_decl_line(0x121)
    1108                            .dwattr $C$DW$T$515, DW_AT_decl_column(0x11)
    1109                    
    1110                    $C$DW$T$516     .dwtag  DW_TAG_typedef
    1111                            .dwattr $C$DW$T$516, DW_AT_name("CT__ti_sysbios_knl_Task_Module__gateObj")
    1112                            .dwattr $C$DW$T$516, DW_AT_type(*$C$DW$T$154)
    1113                            .dwattr $C$DW$T$516, DW_AT_language(DW_LANG_C)
    1114                            .dwattr $C$DW$T$516, DW_AT_decl_file("C:/ti/simplelink_cc13x0_sdk_2_30_00_20/kernel/tirtos/pac
    1115                            .dwattr $C$DW$T$516, DW_AT_decl_line(0xf1)
    1116                            .dwattr $C$DW$T$516, DW_AT_decl_column(0x11)
    1117                    
    1118                    $C$DW$T$517     .dwtag  DW_TAG_typedef
    1119                            .dwattr $C$DW$T$517, DW_AT_name("CT__ti_sysbios_knl_Task_Module__gatePrms")
    1120                            .dwattr $C$DW$T$517, DW_AT_type(*$C$DW$T$154)
    1121                            .dwattr $C$DW$T$517, DW_AT_language(DW_LANG_C)
    1122                            .dwattr $C$DW$T$517, DW_AT_decl_file("C:/ti/simplelink_cc13x0_sdk_2_30_00_20/kernel/tirtos/pac
    1123                            .dwattr $C$DW$T$517, DW_AT_decl_line(0xfa)
    1124                            .dwattr $C$DW$T$517, DW_AT_decl_column(0x11)
    1125                    
    1126                    $C$DW$T$518     .dwtag  DW_TAG_typedef
    1127                            .dwattr $C$DW$T$518, DW_AT_name("CT__ti_sysbios_knl_Task_Module__loggerObj")
    1128                            .dwattr $C$DW$T$518, DW_AT_type(*$C$DW$T$154)
    1129                            .dwattr $C$DW$T$518, DW_AT_language(DW_LANG_C)
    1130                            .dwattr $C$DW$T$518, DW_AT_decl_file("C:/ti/simplelink_cc13x0_sdk_2_30_00_20/kernel/tirtos/pac
    1131                            .dwattr $C$DW$T$518, DW_AT_decl_line(0x115)
    1132                            .dwattr $C$DW$T$518, DW_AT_decl_column(0x11)
    1133                    
    1134                    $C$DW$T$519     .dwtag  DW_TAG_typedef
    1135                            .dwattr $C$DW$T$519, DW_AT_name("CT__ti_sysbios_knl_Task_Object__table")
    1136                            .dwattr $C$DW$T$519, DW_AT_type(*$C$DW$T$154)
    1137                            .dwattr $C$DW$T$519, DW_AT_language(DW_LANG_C)
    1138                            .dwattr $C$DW$T$519, DW_AT_decl_file("C:/ti/simplelink_cc13x0_sdk_2_30_00_20/kernel/tirtos/pac
    1139                            .dwattr $C$DW$T$519, DW_AT_decl_line(0x166)
    1140                            .dwattr $C$DW$T$519, DW_AT_decl_column(0x11)
    1141                    
    1142                    $C$DW$T$520     .dwtag  DW_TAG_typedef
    1143                            .dwattr $C$DW$T$520, DW_AT_name("CT__ti_sysbios_knl_Task_SupportProxy_Module__gateObj")
    1144                            .dwattr $C$DW$T$520, DW_AT_type(*$C$DW$T$154)
    1145                            .dwattr $C$DW$T$520, DW_AT_language(DW_LANG_C)
    1146                            .dwattr $C$DW$T$520, DW_AT_decl_file("C:/ti/simplelink_cc13x0_sdk_2_30_00_20/kernel/tirtos/pac
    1147                            .dwattr $C$DW$T$520, DW_AT_decl_line(0x63)
    1148                            .dwattr $C$DW$T$520, DW_AT_decl_column(0x11)
    1149                    
    1150                    $C$DW$T$521     .dwtag  DW_TAG_typedef
    1151                            .dwattr $C$DW$T$521, DW_AT_name("CT__ti_sysbios_knl_Task_SupportProxy_Module__gatePrms")
    1152                            .dwattr $C$DW$T$521, DW_AT_type(*$C$DW$T$154)
    1153                            .dwattr $C$DW$T$521, DW_AT_language(DW_LANG_C)
    1154                            .dwattr $C$DW$T$521, DW_AT_decl_file("C:/ti/simplelink_cc13x0_sdk_2_30_00_20/kernel/tirtos/pac
    1155                            .dwattr $C$DW$T$521, DW_AT_decl_line(0x6c)
TI ARM Assembler PC v16.9.8 Thu Nov 22 09:24:49 2018

Tools Copyright (c) 1996-2017 Texas Instruments Incorporated
C:\Users\Einstein\AppData\Local\Temp\{748D889B-CC6C-4ECD-A5B9-3576FF08DC06} PAGE   22

    1156                            .dwattr $C$DW$T$521, DW_AT_decl_column(0x11)
    1157                    
    1158                    $C$DW$T$522     .dwtag  DW_TAG_typedef
    1159                            .dwattr $C$DW$T$522, DW_AT_name("CT__ti_sysbios_knl_Task_SupportProxy_Module__loggerObj")
    1160                            .dwattr $C$DW$T$522, DW_AT_type(*$C$DW$T$154)
    1161                            .dwattr $C$DW$T$522, DW_AT_language(DW_LANG_C)
    1162                            .dwattr $C$DW$T$522, DW_AT_decl_file("C:/ti/simplelink_cc13x0_sdk_2_30_00_20/kernel/tirtos/pac
    1163                            .dwattr $C$DW$T$522, DW_AT_decl_line(0x87)
    1164                            .dwattr $C$DW$T$522, DW_AT_decl_column(0x11)
    1165                    
    1166                    $C$DW$T$523     .dwtag  DW_TAG_typedef
    1167                            .dwattr $C$DW$T$523, DW_AT_name("CT__ti_sysbios_knl_Task_SupportProxy_Object__table")
    1168                            .dwattr $C$DW$T$523, DW_AT_type(*$C$DW$T$154)
    1169                            .dwattr $C$DW$T$523, DW_AT_language(DW_LANG_C)
    1170                            .dwattr $C$DW$T$523, DW_AT_decl_file("C:/ti/simplelink_cc13x0_sdk_2_30_00_20/kernel/tirtos/pac
    1171                            .dwattr $C$DW$T$523, DW_AT_decl_line(0xd8)
    1172                            .dwattr $C$DW$T$523, DW_AT_decl_column(0x11)
    1173                    
    1174                    $C$DW$T$524     .dwtag  DW_TAG_typedef
    1175                            .dwattr $C$DW$T$524, DW_AT_name("CT__xdc_runtime_Assert_Module__gateObj")
    1176                            .dwattr $C$DW$T$524, DW_AT_type(*$C$DW$T$154)
    1177                            .dwattr $C$DW$T$524, DW_AT_language(DW_LANG_C)
    1178                            .dwattr $C$DW$T$524, DW_AT_decl_file("C:/ti/xdctools_3_50_04_43_core/packages/xdc/runtime/Asse
    1179                            .dwattr $C$DW$T$524, DW_AT_decl_line(0x6b)
    1180                            .dwattr $C$DW$T$524, DW_AT_decl_column(0x11)
    1181                    
    1182                    $C$DW$T$525     .dwtag  DW_TAG_typedef
    1183                            .dwattr $C$DW$T$525, DW_AT_name("CT__xdc_runtime_Assert_Module__gatePrms")
    1184                            .dwattr $C$DW$T$525, DW_AT_type(*$C$DW$T$154)
    1185                            .dwattr $C$DW$T$525, DW_AT_language(DW_LANG_C)
    1186                            .dwattr $C$DW$T$525, DW_AT_decl_file("C:/ti/xdctools_3_50_04_43_core/packages/xdc/runtime/Asse
    1187                            .dwattr $C$DW$T$525, DW_AT_decl_line(0x74)
    1188                            .dwattr $C$DW$T$525, DW_AT_decl_column(0x11)
    1189                    
    1190                    $C$DW$T$526     .dwtag  DW_TAG_typedef
    1191                            .dwattr $C$DW$T$526, DW_AT_name("CT__xdc_runtime_Assert_Module__loggerObj")
    1192                            .dwattr $C$DW$T$526, DW_AT_type(*$C$DW$T$154)
    1193                            .dwattr $C$DW$T$526, DW_AT_language(DW_LANG_C)
    1194                            .dwattr $C$DW$T$526, DW_AT_decl_file("C:/ti/xdctools_3_50_04_43_core/packages/xdc/runtime/Asse
    1195                            .dwattr $C$DW$T$526, DW_AT_decl_line(0x8f)
    1196                            .dwattr $C$DW$T$526, DW_AT_decl_column(0x11)
    1197                    
    1198                    $C$DW$T$527     .dwtag  DW_TAG_typedef
    1199                            .dwattr $C$DW$T$527, DW_AT_name("CT__xdc_runtime_Assert_Object__table")
    1200                            .dwattr $C$DW$T$527, DW_AT_type(*$C$DW$T$154)
    1201                            .dwattr $C$DW$T$527, DW_AT_language(DW_LANG_C)
    1202                            .dwattr $C$DW$T$527, DW_AT_decl_file("C:/ti/xdctools_3_50_04_43_core/packages/xdc/runtime/Asse
    1203                            .dwattr $C$DW$T$527, DW_AT_decl_line(0xe0)
    1204                            .dwattr $C$DW$T$527, DW_AT_decl_column(0x11)
    1205                    
    1206                    $C$DW$T$528     .dwtag  DW_TAG_typedef
    1207                            .dwattr $C$DW$T$528, DW_AT_name("CT__xdc_runtime_Diags_Module__gateObj")
    1208                            .dwattr $C$DW$T$528, DW_AT_type(*$C$DW$T$154)
    1209                            .dwattr $C$DW$T$528, DW_AT_language(DW_LANG_C)
    1210                            .dwattr $C$DW$T$528, DW_AT_decl_file("C:/ti/xdctools_3_50_04_43_core/packages/xdc/runtime/Diag
TI ARM Assembler PC v16.9.8 Thu Nov 22 09:24:49 2018

Tools Copyright (c) 1996-2017 Texas Instruments Incorporated
C:\Users\Einstein\AppData\Local\Temp\{748D889B-CC6C-4ECD-A5B9-3576FF08DC06} PAGE   23

    1211                            .dwattr $C$DW$T$528, DW_AT_decl_line(0xbe)
    1212                            .dwattr $C$DW$T$528, DW_AT_decl_column(0x11)
    1213                    
    1214                    $C$DW$T$529     .dwtag  DW_TAG_typedef
    1215                            .dwattr $C$DW$T$529, DW_AT_name("CT__xdc_runtime_Diags_Module__gatePrms")
    1216                            .dwattr $C$DW$T$529, DW_AT_type(*$C$DW$T$154)
    1217                            .dwattr $C$DW$T$529, DW_AT_language(DW_LANG_C)
    1218                            .dwattr $C$DW$T$529, DW_AT_decl_file("C:/ti/xdctools_3_50_04_43_core/packages/xdc/runtime/Diag
    1219                            .dwattr $C$DW$T$529, DW_AT_decl_line(0xc7)
    1220                            .dwattr $C$DW$T$529, DW_AT_decl_column(0x11)
    1221                    
    1222                    $C$DW$T$530     .dwtag  DW_TAG_typedef
    1223                            .dwattr $C$DW$T$530, DW_AT_name("CT__xdc_runtime_Diags_Module__loggerObj")
    1224                            .dwattr $C$DW$T$530, DW_AT_type(*$C$DW$T$154)
    1225                            .dwattr $C$DW$T$530, DW_AT_language(DW_LANG_C)
    1226                            .dwattr $C$DW$T$530, DW_AT_decl_file("C:/ti/xdctools_3_50_04_43_core/packages/xdc/runtime/Diag
    1227                            .dwattr $C$DW$T$530, DW_AT_decl_line(0xe2)
    1228                            .dwattr $C$DW$T$530, DW_AT_decl_column(0x11)
    1229                    
    1230                    $C$DW$T$531     .dwtag  DW_TAG_typedef
    1231                            .dwattr $C$DW$T$531, DW_AT_name("CT__xdc_runtime_Diags_Object__table")
    1232                            .dwattr $C$DW$T$531, DW_AT_type(*$C$DW$T$154)
    1233                            .dwattr $C$DW$T$531, DW_AT_language(DW_LANG_C)
    1234                            .dwattr $C$DW$T$531, DW_AT_decl_file("C:/ti/xdctools_3_50_04_43_core/packages/xdc/runtime/Diag
    1235                            .dwattr $C$DW$T$531, DW_AT_decl_line(0x133)
    1236                            .dwattr $C$DW$T$531, DW_AT_decl_column(0x11)
    1237                    
    1238                    $C$DW$T$532     .dwtag  DW_TAG_typedef
    1239                            .dwattr $C$DW$T$532, DW_AT_name("CT__xdc_runtime_Error_Module__gateObj")
    1240                            .dwattr $C$DW$T$532, DW_AT_type(*$C$DW$T$154)
    1241                            .dwattr $C$DW$T$532, DW_AT_language(DW_LANG_C)
    1242                            .dwattr $C$DW$T$532, DW_AT_decl_file("C:/ti/xdctools_3_50_04_43_core/packages/xdc/runtime/Erro
    1243                            .dwattr $C$DW$T$532, DW_AT_decl_line(0x8f)
    1244                            .dwattr $C$DW$T$532, DW_AT_decl_column(0x11)
    1245                    
    1246                    $C$DW$T$533     .dwtag  DW_TAG_typedef
    1247                            .dwattr $C$DW$T$533, DW_AT_name("CT__xdc_runtime_Error_Module__gatePrms")
    1248                            .dwattr $C$DW$T$533, DW_AT_type(*$C$DW$T$154)
    1249                            .dwattr $C$DW$T$533, DW_AT_language(DW_LANG_C)
    1250                            .dwattr $C$DW$T$533, DW_AT_decl_file("C:/ti/xdctools_3_50_04_43_core/packages/xdc/runtime/Erro
    1251                            .dwattr $C$DW$T$533, DW_AT_decl_line(0x98)
    1252                            .dwattr $C$DW$T$533, DW_AT_decl_column(0x11)
    1253                    
    1254                    $C$DW$T$534     .dwtag  DW_TAG_typedef
    1255                            .dwattr $C$DW$T$534, DW_AT_name("CT__xdc_runtime_Error_Module__loggerObj")
    1256                            .dwattr $C$DW$T$534, DW_AT_type(*$C$DW$T$154)
    1257                            .dwattr $C$DW$T$534, DW_AT_language(DW_LANG_C)
    1258                            .dwattr $C$DW$T$534, DW_AT_decl_file("C:/ti/xdctools_3_50_04_43_core/packages/xdc/runtime/Erro
    1259                            .dwattr $C$DW$T$534, DW_AT_decl_line(0xb3)
    1260                            .dwattr $C$DW$T$534, DW_AT_decl_column(0x11)
    1261                    
    1262                    $C$DW$T$535     .dwtag  DW_TAG_typedef
    1263                            .dwattr $C$DW$T$535, DW_AT_name("CT__xdc_runtime_Error_Object__table")
    1264                            .dwattr $C$DW$T$535, DW_AT_type(*$C$DW$T$154)
    1265                            .dwattr $C$DW$T$535, DW_AT_language(DW_LANG_C)
TI ARM Assembler PC v16.9.8 Thu Nov 22 09:24:49 2018

Tools Copyright (c) 1996-2017 Texas Instruments Incorporated
C:\Users\Einstein\AppData\Local\Temp\{748D889B-CC6C-4ECD-A5B9-3576FF08DC06} PAGE   24

    1266                            .dwattr $C$DW$T$535, DW_AT_decl_file("C:/ti/xdctools_3_50_04_43_core/packages/xdc/runtime/Erro
    1267                            .dwattr $C$DW$T$535, DW_AT_decl_line(0x104)
    1268                            .dwattr $C$DW$T$535, DW_AT_decl_column(0x11)
    1269                    
    1270                    $C$DW$T$536     .dwtag  DW_TAG_typedef
    1271                            .dwattr $C$DW$T$536, DW_AT_name("CT__xdc_runtime_Log_Module__gateObj")
    1272                            .dwattr $C$DW$T$536, DW_AT_type(*$C$DW$T$154)
    1273                            .dwattr $C$DW$T$536, DW_AT_language(DW_LANG_C)
    1274                            .dwattr $C$DW$T$536, DW_AT_decl_file("C:/ti/xdctools_3_50_04_43_core/packages/xdc/runtime/Log.
    1275                            .dwattr $C$DW$T$536, DW_AT_decl_line(0x80)
    1276                            .dwattr $C$DW$T$536, DW_AT_decl_column(0x11)
    1277                    
    1278                    $C$DW$T$537     .dwtag  DW_TAG_typedef
    1279                            .dwattr $C$DW$T$537, DW_AT_name("CT__xdc_runtime_Log_Module__gatePrms")
    1280                            .dwattr $C$DW$T$537, DW_AT_type(*$C$DW$T$154)
    1281                            .dwattr $C$DW$T$537, DW_AT_language(DW_LANG_C)
    1282                            .dwattr $C$DW$T$537, DW_AT_decl_file("C:/ti/xdctools_3_50_04_43_core/packages/xdc/runtime/Log.
    1283                            .dwattr $C$DW$T$537, DW_AT_decl_line(0x89)
    1284                            .dwattr $C$DW$T$537, DW_AT_decl_column(0x11)
    1285                    
    1286                    $C$DW$T$538     .dwtag  DW_TAG_typedef
    1287                            .dwattr $C$DW$T$538, DW_AT_name("CT__xdc_runtime_Log_Module__loggerObj")
    1288                            .dwattr $C$DW$T$538, DW_AT_type(*$C$DW$T$154)
    1289                            .dwattr $C$DW$T$538, DW_AT_language(DW_LANG_C)
    1290                            .dwattr $C$DW$T$538, DW_AT_decl_file("C:/ti/xdctools_3_50_04_43_core/packages/xdc/runtime/Log.
    1291                            .dwattr $C$DW$T$538, DW_AT_decl_line(0xa4)
    1292                            .dwattr $C$DW$T$538, DW_AT_decl_column(0x11)
    1293                    
    1294                    $C$DW$T$539     .dwtag  DW_TAG_typedef
    1295                            .dwattr $C$DW$T$539, DW_AT_name("CT__xdc_runtime_Log_Object__table")
    1296                            .dwattr $C$DW$T$539, DW_AT_type(*$C$DW$T$154)
    1297                            .dwattr $C$DW$T$539, DW_AT_language(DW_LANG_C)
    1298                            .dwattr $C$DW$T$539, DW_AT_decl_file("C:/ti/xdctools_3_50_04_43_core/packages/xdc/runtime/Log.
    1299                            .dwattr $C$DW$T$539, DW_AT_decl_line(0xf5)
    1300                            .dwattr $C$DW$T$539, DW_AT_decl_column(0x11)
    1301                    
    1302                    $C$DW$T$540     .dwtag  DW_TAG_typedef
    1303                            .dwattr $C$DW$T$540, DW_AT_name("CT__xdc_runtime_Main_Module_GateProxy_Module__gateObj")
    1304                            .dwattr $C$DW$T$540, DW_AT_type(*$C$DW$T$154)
    1305                            .dwattr $C$DW$T$540, DW_AT_language(DW_LANG_C)
    1306                            .dwattr $C$DW$T$540, DW_AT_decl_file("C:/ti/xdctools_3_50_04_43_core/packages/xdc/runtime/pack
    1307                            .dwattr $C$DW$T$540, DW_AT_decl_line(0x68)
    1308                            .dwattr $C$DW$T$540, DW_AT_decl_column(0x11)
    1309                    
    1310                    $C$DW$T$541     .dwtag  DW_TAG_typedef
    1311                            .dwattr $C$DW$T$541, DW_AT_name("CT__xdc_runtime_Main_Module_GateProxy_Module__gatePrms")
    1312                            .dwattr $C$DW$T$541, DW_AT_type(*$C$DW$T$154)
    1313                            .dwattr $C$DW$T$541, DW_AT_language(DW_LANG_C)
    1314                            .dwattr $C$DW$T$541, DW_AT_decl_file("C:/ti/xdctools_3_50_04_43_core/packages/xdc/runtime/pack
    1315                            .dwattr $C$DW$T$541, DW_AT_decl_line(0x71)
    1316                            .dwattr $C$DW$T$541, DW_AT_decl_column(0x11)
    1317                    
    1318                    $C$DW$T$542     .dwtag  DW_TAG_typedef
    1319                            .dwattr $C$DW$T$542, DW_AT_name("CT__xdc_runtime_Main_Module_GateProxy_Module__loggerObj")
    1320                            .dwattr $C$DW$T$542, DW_AT_type(*$C$DW$T$154)
TI ARM Assembler PC v16.9.8 Thu Nov 22 09:24:49 2018

Tools Copyright (c) 1996-2017 Texas Instruments Incorporated
C:\Users\Einstein\AppData\Local\Temp\{748D889B-CC6C-4ECD-A5B9-3576FF08DC06} PAGE   25

    1321                            .dwattr $C$DW$T$542, DW_AT_language(DW_LANG_C)
    1322                            .dwattr $C$DW$T$542, DW_AT_decl_file("C:/ti/xdctools_3_50_04_43_core/packages/xdc/runtime/pack
    1323                            .dwattr $C$DW$T$542, DW_AT_decl_line(0x8c)
    1324                            .dwattr $C$DW$T$542, DW_AT_decl_column(0x11)
    1325                    
    1326                    $C$DW$T$543     .dwtag  DW_TAG_typedef
    1327                            .dwattr $C$DW$T$543, DW_AT_name("CT__xdc_runtime_Main_Module_GateProxy_Object__table")
    1328                            .dwattr $C$DW$T$543, DW_AT_type(*$C$DW$T$154)
    1329                            .dwattr $C$DW$T$543, DW_AT_language(DW_LANG_C)
    1330                            .dwattr $C$DW$T$543, DW_AT_decl_file("C:/ti/xdctools_3_50_04_43_core/packages/xdc/runtime/pack
    1331                            .dwattr $C$DW$T$543, DW_AT_decl_line(0xdd)
    1332                            .dwattr $C$DW$T$543, DW_AT_decl_column(0x11)
    1333                    
    1334                    $C$DW$T$544     .dwtag  DW_TAG_typedef
    1335                            .dwattr $C$DW$T$544, DW_AT_name("CT__xdc_runtime_Main_Module__gateObj")
    1336                            .dwattr $C$DW$T$544, DW_AT_type(*$C$DW$T$154)
    1337                            .dwattr $C$DW$T$544, DW_AT_language(DW_LANG_C)
    1338                            .dwattr $C$DW$T$544, DW_AT_decl_file("C:/ti/xdctools_3_50_04_43_core/packages/xdc/runtime/Main
    1339                            .dwattr $C$DW$T$544, DW_AT_decl_line(0x67)
    1340                            .dwattr $C$DW$T$544, DW_AT_decl_column(0x11)
    1341                    
    1342                    $C$DW$T$545     .dwtag  DW_TAG_typedef
    1343                            .dwattr $C$DW$T$545, DW_AT_name("CT__xdc_runtime_Main_Module__gatePrms")
    1344                            .dwattr $C$DW$T$545, DW_AT_type(*$C$DW$T$154)
    1345                            .dwattr $C$DW$T$545, DW_AT_language(DW_LANG_C)
    1346                            .dwattr $C$DW$T$545, DW_AT_decl_file("C:/ti/xdctools_3_50_04_43_core/packages/xdc/runtime/Main
    1347                            .dwattr $C$DW$T$545, DW_AT_decl_line(0x70)
    1348                            .dwattr $C$DW$T$545, DW_AT_decl_column(0x11)
    1349                    
    1350                    $C$DW$T$546     .dwtag  DW_TAG_typedef
    1351                            .dwattr $C$DW$T$546, DW_AT_name("CT__xdc_runtime_Main_Module__loggerObj")
    1352                            .dwattr $C$DW$T$546, DW_AT_type(*$C$DW$T$154)
    1353                            .dwattr $C$DW$T$546, DW_AT_language(DW_LANG_C)
    1354                            .dwattr $C$DW$T$546, DW_AT_decl_file("C:/ti/xdctools_3_50_04_43_core/packages/xdc/runtime/Main
    1355                            .dwattr $C$DW$T$546, DW_AT_decl_line(0x8b)
    1356                            .dwattr $C$DW$T$546, DW_AT_decl_column(0x11)
    1357                    
    1358                    $C$DW$T$547     .dwtag  DW_TAG_typedef
    1359                            .dwattr $C$DW$T$547, DW_AT_name("CT__xdc_runtime_Main_Object__table")
    1360                            .dwattr $C$DW$T$547, DW_AT_type(*$C$DW$T$154)
    1361                            .dwattr $C$DW$T$547, DW_AT_language(DW_LANG_C)
    1362                            .dwattr $C$DW$T$547, DW_AT_decl_file("C:/ti/xdctools_3_50_04_43_core/packages/xdc/runtime/Main
    1363                            .dwattr $C$DW$T$547, DW_AT_decl_line(0xdc)
    1364                            .dwattr $C$DW$T$547, DW_AT_decl_column(0x11)
    1365                    
    1366                    $C$DW$T$548     .dwtag  DW_TAG_typedef
    1367                            .dwattr $C$DW$T$548, DW_AT_name("CT__xdc_runtime_Memory_HeapProxy_Module__gateObj")
    1368                            .dwattr $C$DW$T$548, DW_AT_type(*$C$DW$T$154)
    1369                            .dwattr $C$DW$T$548, DW_AT_language(DW_LANG_C)
    1370                            .dwattr $C$DW$T$548, DW_AT_decl_file("C:/ti/xdctools_3_50_04_43_core/packages/xdc/runtime/pack
    1371                            .dwattr $C$DW$T$548, DW_AT_decl_line(0x62)
    1372                            .dwattr $C$DW$T$548, DW_AT_decl_column(0x11)
    1373                    
    1374                    $C$DW$T$549     .dwtag  DW_TAG_typedef
    1375                            .dwattr $C$DW$T$549, DW_AT_name("CT__xdc_runtime_Memory_HeapProxy_Module__gatePrms")
TI ARM Assembler PC v16.9.8 Thu Nov 22 09:24:49 2018

Tools Copyright (c) 1996-2017 Texas Instruments Incorporated
C:\Users\Einstein\AppData\Local\Temp\{748D889B-CC6C-4ECD-A5B9-3576FF08DC06} PAGE   26

    1376                            .dwattr $C$DW$T$549, DW_AT_type(*$C$DW$T$154)
    1377                            .dwattr $C$DW$T$549, DW_AT_language(DW_LANG_C)
    1378                            .dwattr $C$DW$T$549, DW_AT_decl_file("C:/ti/xdctools_3_50_04_43_core/packages/xdc/runtime/pack
    1379                            .dwattr $C$DW$T$549, DW_AT_decl_line(0x6b)
    1380                            .dwattr $C$DW$T$549, DW_AT_decl_column(0x11)
    1381                    
    1382                    $C$DW$T$550     .dwtag  DW_TAG_typedef
    1383                            .dwattr $C$DW$T$550, DW_AT_name("CT__xdc_runtime_Memory_HeapProxy_Module__loggerObj")
    1384                            .dwattr $C$DW$T$550, DW_AT_type(*$C$DW$T$154)
    1385                            .dwattr $C$DW$T$550, DW_AT_language(DW_LANG_C)
    1386                            .dwattr $C$DW$T$550, DW_AT_decl_file("C:/ti/xdctools_3_50_04_43_core/packages/xdc/runtime/pack
    1387                            .dwattr $C$DW$T$550, DW_AT_decl_line(0x86)
    1388                            .dwattr $C$DW$T$550, DW_AT_decl_column(0x11)
    1389                    
    1390                    $C$DW$T$551     .dwtag  DW_TAG_typedef
    1391                            .dwattr $C$DW$T$551, DW_AT_name("CT__xdc_runtime_Memory_HeapProxy_Object__table")
    1392                            .dwattr $C$DW$T$551, DW_AT_type(*$C$DW$T$154)
    1393                            .dwattr $C$DW$T$551, DW_AT_language(DW_LANG_C)
    1394                            .dwattr $C$DW$T$551, DW_AT_decl_file("C:/ti/xdctools_3_50_04_43_core/packages/xdc/runtime/pack
    1395                            .dwattr $C$DW$T$551, DW_AT_decl_line(0xd7)
    1396                            .dwattr $C$DW$T$551, DW_AT_decl_column(0x11)
    1397                    
    1398                    $C$DW$T$552     .dwtag  DW_TAG_typedef
    1399                            .dwattr $C$DW$T$552, DW_AT_name("CT__xdc_runtime_Memory_Module__gateObj")
    1400                            .dwattr $C$DW$T$552, DW_AT_type(*$C$DW$T$154)
    1401                            .dwattr $C$DW$T$552, DW_AT_language(DW_LANG_C)
    1402                            .dwattr $C$DW$T$552, DW_AT_decl_file("C:/ti/xdctools_3_50_04_43_core/packages/xdc/runtime/Memo
    1403                            .dwattr $C$DW$T$552, DW_AT_decl_line(0x75)
    1404                            .dwattr $C$DW$T$552, DW_AT_decl_column(0x11)
    1405                    
    1406                    $C$DW$T$553     .dwtag  DW_TAG_typedef
    1407                            .dwattr $C$DW$T$553, DW_AT_name("CT__xdc_runtime_Memory_Module__gatePrms")
    1408                            .dwattr $C$DW$T$553, DW_AT_type(*$C$DW$T$154)
    1409                            .dwattr $C$DW$T$553, DW_AT_language(DW_LANG_C)
    1410                            .dwattr $C$DW$T$553, DW_AT_decl_file("C:/ti/xdctools_3_50_04_43_core/packages/xdc/runtime/Memo
    1411                            .dwattr $C$DW$T$553, DW_AT_decl_line(0x7e)
    1412                            .dwattr $C$DW$T$553, DW_AT_decl_column(0x11)
    1413                    
    1414                    $C$DW$T$554     .dwtag  DW_TAG_typedef
    1415                            .dwattr $C$DW$T$554, DW_AT_name("CT__xdc_runtime_Memory_Module__loggerObj")
    1416                            .dwattr $C$DW$T$554, DW_AT_type(*$C$DW$T$154)
    1417                            .dwattr $C$DW$T$554, DW_AT_language(DW_LANG_C)
    1418                            .dwattr $C$DW$T$554, DW_AT_decl_file("C:/ti/xdctools_3_50_04_43_core/packages/xdc/runtime/Memo
    1419                            .dwattr $C$DW$T$554, DW_AT_decl_line(0x99)
    1420                            .dwattr $C$DW$T$554, DW_AT_decl_column(0x11)
    1421                    
    1422                    $C$DW$T$555     .dwtag  DW_TAG_typedef
    1423                            .dwattr $C$DW$T$555, DW_AT_name("CT__xdc_runtime_Memory_Object__table")
    1424                            .dwattr $C$DW$T$555, DW_AT_type(*$C$DW$T$154)
    1425                            .dwattr $C$DW$T$555, DW_AT_language(DW_LANG_C)
    1426                            .dwattr $C$DW$T$555, DW_AT_decl_file("C:/ti/xdctools_3_50_04_43_core/packages/xdc/runtime/Memo
    1427                            .dwattr $C$DW$T$555, DW_AT_decl_line(0xea)
    1428                            .dwattr $C$DW$T$555, DW_AT_decl_column(0x11)
    1429                    
    1430                    $C$DW$T$556     .dwtag  DW_TAG_typedef
TI ARM Assembler PC v16.9.8 Thu Nov 22 09:24:49 2018

Tools Copyright (c) 1996-2017 Texas Instruments Incorporated
C:\Users\Einstein\AppData\Local\Temp\{748D889B-CC6C-4ECD-A5B9-3576FF08DC06} PAGE   27

    1431                            .dwattr $C$DW$T$556, DW_AT_name("CT__xdc_runtime_Text_Module__gateObj")
    1432                            .dwattr $C$DW$T$556, DW_AT_type(*$C$DW$T$154)
    1433                            .dwattr $C$DW$T$556, DW_AT_language(DW_LANG_C)
    1434                            .dwattr $C$DW$T$556, DW_AT_decl_file("C:/ti/xdctools_3_50_04_43_core/packages/xdc/runtime/Text
    1435                            .dwattr $C$DW$T$556, DW_AT_decl_line(0x8c)
    1436                            .dwattr $C$DW$T$556, DW_AT_decl_column(0x11)
    1437                    
    1438                    $C$DW$T$557     .dwtag  DW_TAG_typedef
    1439                            .dwattr $C$DW$T$557, DW_AT_name("CT__xdc_runtime_Text_Module__gatePrms")
    1440                            .dwattr $C$DW$T$557, DW_AT_type(*$C$DW$T$154)
    1441                            .dwattr $C$DW$T$557, DW_AT_language(DW_LANG_C)
    1442                            .dwattr $C$DW$T$557, DW_AT_decl_file("C:/ti/xdctools_3_50_04_43_core/packages/xdc/runtime/Text
    1443                            .dwattr $C$DW$T$557, DW_AT_decl_line(0x95)
    1444                            .dwattr $C$DW$T$557, DW_AT_decl_column(0x11)
    1445                    
    1446                    $C$DW$T$558     .dwtag  DW_TAG_typedef
    1447                            .dwattr $C$DW$T$558, DW_AT_name("CT__xdc_runtime_Text_Module__loggerObj")
    1448                            .dwattr $C$DW$T$558, DW_AT_type(*$C$DW$T$154)
    1449                            .dwattr $C$DW$T$558, DW_AT_language(DW_LANG_C)
    1450                            .dwattr $C$DW$T$558, DW_AT_decl_file("C:/ti/xdctools_3_50_04_43_core/packages/xdc/runtime/Text
    1451                            .dwattr $C$DW$T$558, DW_AT_decl_line(0xb0)
    1452                            .dwattr $C$DW$T$558, DW_AT_decl_column(0x11)
    1453                    
    1454                    $C$DW$T$559     .dwtag  DW_TAG_typedef
    1455                            .dwattr $C$DW$T$559, DW_AT_name("CT__xdc_runtime_Text_Object__table")
    1456                            .dwattr $C$DW$T$559, DW_AT_type(*$C$DW$T$154)
    1457                            .dwattr $C$DW$T$559, DW_AT_language(DW_LANG_C)
    1458                            .dwattr $C$DW$T$559, DW_AT_decl_file("C:/ti/xdctools_3_50_04_43_core/packages/xdc/runtime/Text
    1459                            .dwattr $C$DW$T$559, DW_AT_decl_line(0x101)
    1460                            .dwattr $C$DW$T$559, DW_AT_decl_column(0x11)
    1461                    
    1462                    $C$DW$T$560     .dwtag  DW_TAG_typedef
    1463                            .dwattr $C$DW$T$560, DW_AT_name("CT__xdc_runtime_Types_Module__gateObj")
    1464                            .dwattr $C$DW$T$560, DW_AT_type(*$C$DW$T$154)
    1465                            .dwattr $C$DW$T$560, DW_AT_language(DW_LANG_C)
    1466                            .dwattr $C$DW$T$560, DW_AT_decl_file("C:/ti/xdctools_3_50_04_43_core/packages/xdc/runtime/Type
    1467                            .dwattr $C$DW$T$560, DW_AT_decl_line(0xe9)
    1468                            .dwattr $C$DW$T$560, DW_AT_decl_column(0x11)
    1469                    
    1470                    $C$DW$T$561     .dwtag  DW_TAG_typedef
    1471                            .dwattr $C$DW$T$561, DW_AT_name("CT__xdc_runtime_Types_Module__gatePrms")
    1472                            .dwattr $C$DW$T$561, DW_AT_type(*$C$DW$T$154)
    1473                            .dwattr $C$DW$T$561, DW_AT_language(DW_LANG_C)
    1474                            .dwattr $C$DW$T$561, DW_AT_decl_file("C:/ti/xdctools_3_50_04_43_core/packages/xdc/runtime/Type
    1475                            .dwattr $C$DW$T$561, DW_AT_decl_line(0xf2)
    1476                            .dwattr $C$DW$T$561, DW_AT_decl_column(0x11)
    1477                    
    1478                    $C$DW$T$562     .dwtag  DW_TAG_typedef
    1479                            .dwattr $C$DW$T$562, DW_AT_name("CT__xdc_runtime_Types_Module__loggerObj")
    1480                            .dwattr $C$DW$T$562, DW_AT_type(*$C$DW$T$154)
    1481                            .dwattr $C$DW$T$562, DW_AT_language(DW_LANG_C)
    1482                            .dwattr $C$DW$T$562, DW_AT_decl_file("C:/ti/xdctools_3_50_04_43_core/packages/xdc/runtime/Type
    1483                            .dwattr $C$DW$T$562, DW_AT_decl_line(0x10d)
    1484                            .dwattr $C$DW$T$562, DW_AT_decl_column(0x11)
    1485                    
TI ARM Assembler PC v16.9.8 Thu Nov 22 09:24:49 2018

Tools Copyright (c) 1996-2017 Texas Instruments Incorporated
C:\Users\Einstein\AppData\Local\Temp\{748D889B-CC6C-4ECD-A5B9-3576FF08DC06} PAGE   28

    1486                    $C$DW$T$563     .dwtag  DW_TAG_typedef
    1487                            .dwattr $C$DW$T$563, DW_AT_name("CT__xdc_runtime_Types_Object__table")
    1488                            .dwattr $C$DW$T$563, DW_AT_type(*$C$DW$T$154)
    1489                            .dwattr $C$DW$T$563, DW_AT_language(DW_LANG_C)
    1490                            .dwattr $C$DW$T$563, DW_AT_decl_file("C:/ti/xdctools_3_50_04_43_core/packages/xdc/runtime/Type
    1491                            .dwattr $C$DW$T$563, DW_AT_decl_line(0x15e)
    1492                            .dwattr $C$DW$T$563, DW_AT_decl_column(0x11)
    1493                    
    1494                    $C$DW$T$564     .dwtag  DW_TAG_typedef
    1495                            .dwattr $C$DW$T$564, DW_AT_name("Ptr")
    1496                            .dwattr $C$DW$T$564, DW_AT_type(*$C$DW$T$154)
    1497                            .dwattr $C$DW$T$564, DW_AT_language(DW_LANG_C)
    1498                            .dwattr $C$DW$T$564, DW_AT_decl_file("C:/ti/xdctools_3_50_04_43_core/packages/xdc/std.h")
    1499                            .dwattr $C$DW$T$564, DW_AT_decl_line(0xf7)
    1500                            .dwattr $C$DW$T$564, DW_AT_decl_column(0x19)
    1501                    
    1502                    $C$DW$T$565     .dwtag  DW_TAG_typedef
    1503                            .dwattr $C$DW$T$565, DW_AT_name("__T1_ti_sysbios_knl_Swi_Instance_State__hookEnv")
    1504                            .dwattr $C$DW$T$565, DW_AT_type(*$C$DW$T$154)
    1505                            .dwattr $C$DW$T$565, DW_AT_language(DW_LANG_C)
    1506                            .dwattr $C$DW$T$565, DW_AT_decl_file("C:/ti/simplelink_cc13x0_sdk_2_30_00_20/kernel/tirtos/pac
    1507                            .dwattr $C$DW$T$565, DW_AT_decl_line(0x7c)
    1508                            .dwattr $C$DW$T$565, DW_AT_decl_column(0x11)
    1509                    
    1510                    $C$DW$T$566     .dwtag  DW_TAG_typedef
    1511                            .dwattr $C$DW$T$566, DW_AT_name("__T1_ti_sysbios_knl_Swi_Struct2____hookEnv")
    1512                            .dwattr $C$DW$T$566, DW_AT_type(*$C$DW$T$154)
    1513                            .dwattr $C$DW$T$566, DW_AT_language(DW_LANG_C)
    1514                            .dwattr $C$DW$T$566, DW_AT_decl_file("C:/ti/simplelink_cc13x0_sdk_2_30_00_20/kernel/tirtos/pac
    1515                            .dwattr $C$DW$T$566, DW_AT_decl_line(0x56)
    1516                            .dwattr $C$DW$T$566, DW_AT_decl_column(0x11)
    1517                    
    1518                    $C$DW$T$567     .dwtag  DW_TAG_typedef
    1519                            .dwattr $C$DW$T$567, DW_AT_name("__T1_ti_sysbios_knl_Task_Instance_State__hookEnv")
    1520                            .dwattr $C$DW$T$567, DW_AT_type(*$C$DW$T$154)
    1521                            .dwattr $C$DW$T$567, DW_AT_language(DW_LANG_C)
    1522                            .dwattr $C$DW$T$567, DW_AT_decl_file("C:/ti/simplelink_cc13x0_sdk_2_30_00_20/kernel/tirtos/pac
    1523                            .dwattr $C$DW$T$567, DW_AT_decl_line(0x9c)
    1524                            .dwattr $C$DW$T$567, DW_AT_decl_column(0x11)
    1525                    
    1526                    
    1527                    $C$DW$T$160     .dwtag  DW_TAG_subroutine_type
    1528                            .dwattr $C$DW$T$160, DW_AT_type(*$C$DW$T$154)
    1529                            .dwattr $C$DW$T$160, DW_AT_language(DW_LANG_C)
    1530                    $C$DW$68        .dwtag  DW_TAG_formal_parameter
    1531                            .dwattr $C$DW$68, DW_AT_type(*$C$DW$T$154)
    1532                    
    1533                    $C$DW$69        .dwtag  DW_TAG_formal_parameter
    1534                            .dwattr $C$DW$69, DW_AT_type(*$C$DW$T$157)
    1535                    
    1536                    $C$DW$70        .dwtag  DW_TAG_formal_parameter
    1537                            .dwattr $C$DW$70, DW_AT_type(*$C$DW$T$157)
    1538                    
    1539                    $C$DW$71        .dwtag  DW_TAG_formal_parameter
    1540                            .dwattr $C$DW$71, DW_AT_type(*$C$DW$T$159)
TI ARM Assembler PC v16.9.8 Thu Nov 22 09:24:49 2018

Tools Copyright (c) 1996-2017 Texas Instruments Incorporated
C:\Users\Einstein\AppData\Local\Temp\{748D889B-CC6C-4ECD-A5B9-3576FF08DC06} PAGE   29

    1541                    
    1542                            .dwendtag $C$DW$T$160
    1543                    
    1544                    $C$DW$T$161     .dwtag  DW_TAG_pointer_type
    1545                            .dwattr $C$DW$T$161, DW_AT_type(*$C$DW$T$160)
    1546                            .dwattr $C$DW$T$161, DW_AT_address_class(0x20)
    1547                    
    1548                    $C$DW$T$568     .dwtag  DW_TAG_typedef
    1549                            .dwattr $C$DW$T$568, DW_AT_name("ti_sysbios_interfaces_ITaskSupport_start_FxnT")
    1550                            .dwattr $C$DW$T$568, DW_AT_type(*$C$DW$T$161)
    1551                            .dwattr $C$DW$T$568, DW_AT_language(DW_LANG_C)
    1552                            .dwattr $C$DW$T$568, DW_AT_decl_file("C:/ti/simplelink_cc13x0_sdk_2_30_00_20/kernel/tirtos/pac
    1553                            .dwattr $C$DW$T$568, DW_AT_decl_line(0xa5)
    1554                            .dwattr $C$DW$T$568, DW_AT_decl_column(0x13)
    1555                    
    1556                    $C$DW$T$162     .dwtag  DW_TAG_pointer_type
    1557                            .dwattr $C$DW$T$162, DW_AT_type(*$C$DW$T$154)
    1558                            .dwattr $C$DW$T$162, DW_AT_address_class(0x20)
    1559                    
    1560                    $C$DW$T$313     .dwtag  DW_TAG_typedef
    1561                            .dwattr $C$DW$T$313, DW_AT_name("ARRAY1_ti_sysbios_knl_Swi_Instance_State__hookEnv")
    1562                            .dwattr $C$DW$T$313, DW_AT_type(*$C$DW$T$162)
    1563                            .dwattr $C$DW$T$313, DW_AT_language(DW_LANG_C)
    1564                            .dwattr $C$DW$T$313, DW_AT_decl_file("C:/ti/simplelink_cc13x0_sdk_2_30_00_20/kernel/tirtos/pac
    1565                            .dwattr $C$DW$T$313, DW_AT_decl_line(0x7d)
    1566                            .dwattr $C$DW$T$313, DW_AT_decl_column(0x12)
    1567                    
    1568                    $C$DW$T$314     .dwtag  DW_TAG_typedef
    1569                            .dwattr $C$DW$T$314, DW_AT_name("__TA_ti_sysbios_knl_Swi_Instance_State__hookEnv")
    1570                            .dwattr $C$DW$T$314, DW_AT_type(*$C$DW$T$313)
    1571                            .dwattr $C$DW$T$314, DW_AT_language(DW_LANG_C)
    1572                            .dwattr $C$DW$T$314, DW_AT_decl_file("C:/ti/simplelink_cc13x0_sdk_2_30_00_20/kernel/tirtos/pac
    1573                            .dwattr $C$DW$T$314, DW_AT_decl_line(0x7f)
    1574                            .dwattr $C$DW$T$314, DW_AT_decl_column(0x3b)
    1575                    
    1576                    $C$DW$T$569     .dwtag  DW_TAG_typedef
    1577                            .dwattr $C$DW$T$569, DW_AT_name("ARRAY1_ti_sysbios_knl_Swi_Struct2____hookEnv")
    1578                            .dwattr $C$DW$T$569, DW_AT_type(*$C$DW$T$162)
    1579                            .dwattr $C$DW$T$569, DW_AT_language(DW_LANG_C)
    1580                            .dwattr $C$DW$T$569, DW_AT_decl_file("C:/ti/simplelink_cc13x0_sdk_2_30_00_20/kernel/tirtos/pac
    1581                            .dwattr $C$DW$T$569, DW_AT_decl_line(0x57)
    1582                            .dwattr $C$DW$T$569, DW_AT_decl_column(0x12)
    1583                    
    1584                    $C$DW$T$354     .dwtag  DW_TAG_typedef
    1585                            .dwattr $C$DW$T$354, DW_AT_name("ARRAY1_ti_sysbios_knl_Task_Instance_State__hookEnv")
    1586                            .dwattr $C$DW$T$354, DW_AT_type(*$C$DW$T$162)
    1587                            .dwattr $C$DW$T$354, DW_AT_language(DW_LANG_C)
    1588                            .dwattr $C$DW$T$354, DW_AT_decl_file("C:/ti/simplelink_cc13x0_sdk_2_30_00_20/kernel/tirtos/pac
    1589                            .dwattr $C$DW$T$354, DW_AT_decl_line(0x9d)
    1590                            .dwattr $C$DW$T$354, DW_AT_decl_column(0x12)
    1591                    
    1592                    $C$DW$T$355     .dwtag  DW_TAG_typedef
    1593                            .dwattr $C$DW$T$355, DW_AT_name("__TA_ti_sysbios_knl_Task_Instance_State__hookEnv")
    1594                            .dwattr $C$DW$T$355, DW_AT_type(*$C$DW$T$354)
    1595                            .dwattr $C$DW$T$355, DW_AT_language(DW_LANG_C)
TI ARM Assembler PC v16.9.8 Thu Nov 22 09:24:49 2018

Tools Copyright (c) 1996-2017 Texas Instruments Incorporated
C:\Users\Einstein\AppData\Local\Temp\{748D889B-CC6C-4ECD-A5B9-3576FF08DC06} PAGE   30

    1596                            .dwattr $C$DW$T$355, DW_AT_decl_file("C:/ti/simplelink_cc13x0_sdk_2_30_00_20/kernel/tirtos/pac
    1597                            .dwattr $C$DW$T$355, DW_AT_decl_line(0x9f)
    1598                            .dwattr $C$DW$T$355, DW_AT_decl_column(0x3c)
    1599                    
    1600                    
    1601                    $C$DW$T$180     .dwtag  DW_TAG_subroutine_type
    1602                            .dwattr $C$DW$T$180, DW_AT_type(*$C$DW$T$154)
    1603                            .dwattr $C$DW$T$180, DW_AT_language(DW_LANG_C)
    1604                    $C$DW$72        .dwtag  DW_TAG_formal_parameter
    1605                            .dwattr $C$DW$72, DW_AT_type(*$C$DW$T$154)
    1606                    
    1607                            .dwendtag $C$DW$T$180
    1608                    
    1609                    $C$DW$T$181     .dwtag  DW_TAG_pointer_type
    1610                            .dwattr $C$DW$T$181, DW_AT_type(*$C$DW$T$180)
    1611                            .dwattr $C$DW$T$181, DW_AT_address_class(0x20)
    1612                    
    1613                    $C$DW$T$570     .dwtag  DW_TAG_typedef
    1614                            .dwattr $C$DW$T$570, DW_AT_name("ti_sysbios_interfaces_ITaskSupport_getCheckValueAddr_FxnT")
    1615                            .dwattr $C$DW$T$570, DW_AT_type(*$C$DW$T$181)
    1616                            .dwattr $C$DW$T$570, DW_AT_language(DW_LANG_C)
    1617                            .dwattr $C$DW$T$570, DW_AT_decl_file("C:/ti/simplelink_cc13x0_sdk_2_30_00_20/kernel/tirtos/pac
    1618                            .dwattr $C$DW$T$570, DW_AT_decl_line(0xd5)
    1619                            .dwattr $C$DW$T$570, DW_AT_decl_column(0x13)
    1620                    
    1621                    
    1622                    $C$DW$T$389     .dwtag  DW_TAG_subroutine_type
    1623                            .dwattr $C$DW$T$389, DW_AT_type(*$C$DW$T$154)
    1624                            .dwattr $C$DW$T$389, DW_AT_language(DW_LANG_C)
    1625                    $C$DW$73        .dwtag  DW_TAG_formal_parameter
    1626                            .dwattr $C$DW$73, DW_AT_type(*$C$DW$T$3)
    1627                    
    1628                    $C$DW$74        .dwtag  DW_TAG_formal_parameter
    1629                            .dwattr $C$DW$74, DW_AT_type(*$C$DW$T$170)
    1630                    
    1631                    $C$DW$75        .dwtag  DW_TAG_formal_parameter
    1632                            .dwattr $C$DW$75, DW_AT_type(*$C$DW$T$170)
    1633                    
    1634                    $C$DW$76        .dwtag  DW_TAG_formal_parameter
    1635                            .dwattr $C$DW$76, DW_AT_type(*$C$DW$T$159)
    1636                    
    1637                            .dwendtag $C$DW$T$389
    1638                    
    1639                    $C$DW$T$390     .dwtag  DW_TAG_pointer_type
    1640                            .dwattr $C$DW$T$390, DW_AT_type(*$C$DW$T$389)
    1641                            .dwattr $C$DW$T$390, DW_AT_address_class(0x20)
    1642                    
    1643                    $C$DW$T$571     .dwtag  DW_TAG_typedef
    1644                            .dwattr $C$DW$T$571, DW_AT_name("xdc_runtime_IHeap_alloc_FxnT")
    1645                            .dwattr $C$DW$T$571, DW_AT_type(*$C$DW$T$390)
    1646                            .dwattr $C$DW$T$571, DW_AT_language(DW_LANG_C)
    1647                            .dwattr $C$DW$T$571, DW_AT_decl_file("C:/ti/xdctools_3_50_04_43_core/packages/xdc/runtime/IHea
    1648                            .dwattr $C$DW$T$571, DW_AT_decl_line(0xb0)
    1649                            .dwattr $C$DW$T$571, DW_AT_decl_column(0x13)
    1650                    
TI ARM Assembler PC v16.9.8 Thu Nov 22 09:24:49 2018

Tools Copyright (c) 1996-2017 Texas Instruments Incorporated
C:\Users\Einstein\AppData\Local\Temp\{748D889B-CC6C-4ECD-A5B9-3576FF08DC06} PAGE   31

    1651                    
    1652                    $C$DW$T$432     .dwtag  DW_TAG_subroutine_type
    1653                            .dwattr $C$DW$T$432, DW_AT_type(*$C$DW$T$154)
    1654                            .dwattr $C$DW$T$432, DW_AT_language(DW_LANG_C)
    1655                    $C$DW$77        .dwtag  DW_TAG_formal_parameter
    1656                            .dwattr $C$DW$77, DW_AT_type(*$C$DW$T$431)
    1657                    
    1658                    $C$DW$78        .dwtag  DW_TAG_formal_parameter
    1659                            .dwattr $C$DW$78, DW_AT_type(*$C$DW$T$170)
    1660                    
    1661                    $C$DW$79        .dwtag  DW_TAG_formal_parameter
    1662                            .dwattr $C$DW$79, DW_AT_type(*$C$DW$T$170)
    1663                    
    1664                    $C$DW$80        .dwtag  DW_TAG_formal_parameter
    1665                            .dwattr $C$DW$80, DW_AT_type(*$C$DW$T$159)
    1666                    
    1667                            .dwendtag $C$DW$T$432
    1668                    
    1669                    $C$DW$T$433     .dwtag  DW_TAG_pointer_type
    1670                            .dwattr $C$DW$T$433, DW_AT_type(*$C$DW$T$432)
    1671                            .dwattr $C$DW$T$433, DW_AT_address_class(0x20)
    1672                    
    1673                    
    1674                    $C$DW$T$472     .dwtag  DW_TAG_subroutine_type
    1675                            .dwattr $C$DW$T$472, DW_AT_type(*$C$DW$T$154)
    1676                            .dwattr $C$DW$T$472, DW_AT_language(DW_LANG_C)
    1677                    $C$DW$81        .dwtag  DW_TAG_formal_parameter
    1678                            .dwattr $C$DW$81, DW_AT_type(*$C$DW$T$468)
    1679                    
    1680                    $C$DW$82        .dwtag  DW_TAG_formal_parameter
    1681                            .dwattr $C$DW$82, DW_AT_type(*$C$DW$T$471)
    1682                    
    1683                    $C$DW$83        .dwtag  DW_TAG_formal_parameter
    1684                            .dwattr $C$DW$83, DW_AT_type(*$C$DW$T$170)
    1685                    
    1686                    $C$DW$84        .dwtag  DW_TAG_formal_parameter
    1687                            .dwattr $C$DW$84, DW_AT_type(*$C$DW$T$159)
    1688                    
    1689                            .dwendtag $C$DW$T$472
    1690                    
    1691                    $C$DW$T$473     .dwtag  DW_TAG_pointer_type
    1692                            .dwattr $C$DW$T$473, DW_AT_type(*$C$DW$T$472)
    1693                            .dwattr $C$DW$T$473, DW_AT_address_class(0x20)
    1694                    
    1695                    $C$DW$T$316     .dwtag  DW_TAG_const_type
    1696                            .dwattr $C$DW$T$316, DW_AT_type(*$C$DW$T$154)
    1697                    
    1698                    $C$DW$T$317     .dwtag  DW_TAG_pointer_type
    1699                            .dwattr $C$DW$T$317, DW_AT_type(*$C$DW$T$316)
    1700                            .dwattr $C$DW$T$317, DW_AT_address_class(0x20)
    1701                    
    1702                    $C$DW$T$572     .dwtag  DW_TAG_typedef
    1703                            .dwattr $C$DW$T$572, DW_AT_name("CARRAY1_ti_sysbios_knl_Swi_Instance_State__hookEnv")
    1704                            .dwattr $C$DW$T$572, DW_AT_type(*$C$DW$T$317)
    1705                            .dwattr $C$DW$T$572, DW_AT_language(DW_LANG_C)
TI ARM Assembler PC v16.9.8 Thu Nov 22 09:24:49 2018

Tools Copyright (c) 1996-2017 Texas Instruments Incorporated
C:\Users\Einstein\AppData\Local\Temp\{748D889B-CC6C-4ECD-A5B9-3576FF08DC06} PAGE   32

    1706                            .dwattr $C$DW$T$572, DW_AT_decl_file("C:/ti/simplelink_cc13x0_sdk_2_30_00_20/kernel/tirtos/pac
    1707                            .dwattr $C$DW$T$572, DW_AT_decl_line(0x7e)
    1708                            .dwattr $C$DW$T$572, DW_AT_decl_column(0x18)
    1709                    
    1710                    $C$DW$T$318     .dwtag  DW_TAG_typedef
    1711                            .dwattr $C$DW$T$318, DW_AT_name("CARRAY1_ti_sysbios_knl_Swi_Struct2____hookEnv")
    1712                            .dwattr $C$DW$T$318, DW_AT_type(*$C$DW$T$317)
    1713                            .dwattr $C$DW$T$318, DW_AT_language(DW_LANG_C)
    1714                            .dwattr $C$DW$T$318, DW_AT_decl_file("C:/ti/simplelink_cc13x0_sdk_2_30_00_20/kernel/tirtos/pac
    1715                            .dwattr $C$DW$T$318, DW_AT_decl_line(0x58)
    1716                            .dwattr $C$DW$T$318, DW_AT_decl_column(0x18)
    1717                    
    1718                    $C$DW$T$319     .dwtag  DW_TAG_typedef
    1719                            .dwattr $C$DW$T$319, DW_AT_name("__TA_ti_sysbios_knl_Swi_Struct2____hookEnv")
    1720                            .dwattr $C$DW$T$319, DW_AT_type(*$C$DW$T$318)
    1721                            .dwattr $C$DW$T$319, DW_AT_language(DW_LANG_C)
    1722                            .dwattr $C$DW$T$319, DW_AT_decl_file("C:/ti/simplelink_cc13x0_sdk_2_30_00_20/kernel/tirtos/pac
    1723                            .dwattr $C$DW$T$319, DW_AT_decl_line(0x59)
    1724                            .dwattr $C$DW$T$319, DW_AT_decl_column(0x37)
    1725                    
    1726                    $C$DW$T$573     .dwtag  DW_TAG_typedef
    1727                            .dwattr $C$DW$T$573, DW_AT_name("CARRAY1_ti_sysbios_knl_Task_Instance_State__hookEnv")
    1728                            .dwattr $C$DW$T$573, DW_AT_type(*$C$DW$T$317)
    1729                            .dwattr $C$DW$T$573, DW_AT_language(DW_LANG_C)
    1730                            .dwattr $C$DW$T$573, DW_AT_decl_file("C:/ti/simplelink_cc13x0_sdk_2_30_00_20/kernel/tirtos/pac
    1731                            .dwattr $C$DW$T$573, DW_AT_decl_line(0x9e)
    1732                            .dwattr $C$DW$T$573, DW_AT_decl_column(0x18)
    1733                    
    1734                    
    1735                    $C$DW$T$155     .dwtag  DW_TAG_subroutine_type
    1736                            .dwattr $C$DW$T$155, DW_AT_language(DW_LANG_C)
    1737                            .dwendtag $C$DW$T$155
    1738                    
    1739                    $C$DW$T$156     .dwtag  DW_TAG_pointer_type
    1740                            .dwattr $C$DW$T$156, DW_AT_type(*$C$DW$T$155)
    1741                            .dwattr $C$DW$T$156, DW_AT_address_class(0x20)
    1742                    
    1743                    $C$DW$T$574     .dwtag  DW_TAG_typedef
    1744                            .dwattr $C$DW$T$574, DW_AT_name("CT__ti_sysbios_knl_Task_startupHookFunc")
    1745                            .dwattr $C$DW$T$574, DW_AT_type(*$C$DW$T$156)
    1746                            .dwattr $C$DW$T$574, DW_AT_language(DW_LANG_C)
    1747                            .dwattr $C$DW$T$574, DW_AT_decl_file("C:/ti/simplelink_cc13x0_sdk_2_30_00_20/kernel/tirtos/pac
    1748                            .dwattr $C$DW$T$574, DW_AT_decl_line(0x2f2)
    1749                            .dwattr $C$DW$T$574, DW_AT_decl_column(0x14)
    1750                    
    1751                    $C$DW$T$157     .dwtag  DW_TAG_typedef
    1752                            .dwattr $C$DW$T$157, DW_AT_name("ti_sysbios_interfaces_ITaskSupport_FuncPtr")
    1753                            .dwattr $C$DW$T$157, DW_AT_type(*$C$DW$T$156)
    1754                            .dwattr $C$DW$T$157, DW_AT_language(DW_LANG_C)
    1755                            .dwattr $C$DW$T$157, DW_AT_decl_file("C:/ti/simplelink_cc13x0_sdk_2_30_00_20/kernel/tirtos/pac
    1756                            .dwattr $C$DW$T$157, DW_AT_decl_line(0x3f)
    1757                            .dwattr $C$DW$T$157, DW_AT_decl_column(0x14)
    1758                    
    1759                    $C$DW$T$575     .dwtag  DW_TAG_typedef
    1760                            .dwattr $C$DW$T$575, DW_AT_name("ti_sysbios_knl_Task_SupportProxy_FuncPtr")
TI ARM Assembler PC v16.9.8 Thu Nov 22 09:24:49 2018

Tools Copyright (c) 1996-2017 Texas Instruments Incorporated
C:\Users\Einstein\AppData\Local\Temp\{748D889B-CC6C-4ECD-A5B9-3576FF08DC06} PAGE   33

    1761                            .dwattr $C$DW$T$575, DW_AT_type(*$C$DW$T$157)
    1762                            .dwattr $C$DW$T$575, DW_AT_language(DW_LANG_C)
    1763                            .dwattr $C$DW$T$575, DW_AT_decl_file("C:/ti/simplelink_cc13x0_sdk_2_30_00_20/kernel/tirtos/pac
    1764                            .dwattr $C$DW$T$575, DW_AT_decl_line(0x40)
    1765                            .dwattr $C$DW$T$575, DW_AT_decl_column(0x34)
    1766                    
    1767                    $C$DW$T$576     .dwtag  DW_TAG_typedef
    1768                            .dwattr $C$DW$T$576, DW_AT_name("ti_sysbios_interfaces_ITimer_startup_FxnT")
    1769                            .dwattr $C$DW$T$576, DW_AT_type(*$C$DW$T$156)
    1770                            .dwattr $C$DW$T$576, DW_AT_language(DW_LANG_C)
    1771                            .dwattr $C$DW$T$576, DW_AT_decl_file("C:/ti/simplelink_cc13x0_sdk_2_30_00_20/kernel/tirtos/pac
    1772                            .dwattr $C$DW$T$576, DW_AT_decl_line(0x164)
    1773                            .dwattr $C$DW$T$576, DW_AT_decl_column(0x14)
    1774                    
    1775                    $C$DW$T$577     .dwtag  DW_TAG_typedef
    1776                            .dwattr $C$DW$T$577, DW_AT_name("ti_sysbios_knl_Task_AllBlockedFuncPtr")
    1777                            .dwattr $C$DW$T$577, DW_AT_type(*$C$DW$T$156)
    1778                            .dwattr $C$DW$T$577, DW_AT_language(DW_LANG_C)
    1779                            .dwattr $C$DW$T$577, DW_AT_decl_file("C:/ti/simplelink_cc13x0_sdk_2_30_00_20/kernel/tirtos/pac
    1780                            .dwattr $C$DW$T$577, DW_AT_decl_line(0x50)
    1781                            .dwattr $C$DW$T$577, DW_AT_decl_column(0x14)
    1782                    
    1783                    $C$DW$T$578     .dwtag  DW_TAG_typedef
    1784                            .dwattr $C$DW$T$578, DW_AT_name("CT__ti_sysbios_knl_Task_allBlockedFunc")
    1785                            .dwattr $C$DW$T$578, DW_AT_type(*$C$DW$T$577)
    1786                            .dwattr $C$DW$T$578, DW_AT_language(DW_LANG_C)
    1787                            .dwattr $C$DW$T$578, DW_AT_decl_file("C:/ti/simplelink_cc13x0_sdk_2_30_00_20/kernel/tirtos/pac
    1788                            .dwattr $C$DW$T$578, DW_AT_decl_line(0x26a)
    1789                            .dwattr $C$DW$T$578, DW_AT_decl_column(0x2f)
    1790                    
    1791                    
    1792                    $C$DW$T$163     .dwtag  DW_TAG_subroutine_type
    1793                            .dwattr $C$DW$T$163, DW_AT_language(DW_LANG_C)
    1794                    $C$DW$85        .dwtag  DW_TAG_formal_parameter
    1795                            .dwattr $C$DW$85, DW_AT_type(*$C$DW$T$162)
    1796                    
    1797                    $C$DW$86        .dwtag  DW_TAG_formal_parameter
    1798                            .dwattr $C$DW$86, DW_AT_type(*$C$DW$T$162)
    1799                    
    1800                            .dwendtag $C$DW$T$163
    1801                    
    1802                    $C$DW$T$164     .dwtag  DW_TAG_pointer_type
    1803                            .dwattr $C$DW$T$164, DW_AT_type(*$C$DW$T$163)
    1804                            .dwattr $C$DW$T$164, DW_AT_address_class(0x20)
    1805                    
    1806                    $C$DW$T$579     .dwtag  DW_TAG_typedef
    1807                            .dwattr $C$DW$T$579, DW_AT_name("ti_sysbios_interfaces_ITaskSupport_swap_FxnT")
    1808                            .dwattr $C$DW$T$579, DW_AT_type(*$C$DW$T$164)
    1809                            .dwattr $C$DW$T$579, DW_AT_language(DW_LANG_C)
    1810                            .dwattr $C$DW$T$579, DW_AT_decl_file("C:/ti/simplelink_cc13x0_sdk_2_30_00_20/kernel/tirtos/pac
    1811                            .dwattr $C$DW$T$579, DW_AT_decl_line(0xad)
    1812                            .dwattr $C$DW$T$579, DW_AT_decl_column(0x14)
    1813                    
    1814                    
    1815                    $C$DW$T$186     .dwtag  DW_TAG_subroutine_type
TI ARM Assembler PC v16.9.8 Thu Nov 22 09:24:49 2018

Tools Copyright (c) 1996-2017 Texas Instruments Incorporated
C:\Users\Einstein\AppData\Local\Temp\{748D889B-CC6C-4ECD-A5B9-3576FF08DC06} PAGE   34

    1816                            .dwattr $C$DW$T$186, DW_AT_language(DW_LANG_C)
    1817                    $C$DW$87        .dwtag  DW_TAG_formal_parameter
    1818                            .dwattr $C$DW$87, DW_AT_type(*$C$DW$T$185)
    1819                    
    1820                            .dwendtag $C$DW$T$186
    1821                    
    1822                    $C$DW$T$187     .dwtag  DW_TAG_pointer_type
    1823                            .dwattr $C$DW$T$187, DW_AT_type(*$C$DW$T$186)
    1824                            .dwattr $C$DW$T$187, DW_AT_address_class(0x20)
    1825                    
    1826                    $C$DW$T$580     .dwtag  DW_TAG_typedef
    1827                            .dwattr $C$DW$T$580, DW_AT_name("CT__ti_sysbios_knl_Clock_doTickFunc")
    1828                            .dwattr $C$DW$T$580, DW_AT_type(*$C$DW$T$187)
    1829                            .dwattr $C$DW$T$580, DW_AT_language(DW_LANG_C)
    1830                            .dwattr $C$DW$T$580, DW_AT_decl_file("C:/ti/simplelink_cc13x0_sdk_2_30_00_20/kernel/tirtos/pac
    1831                            .dwattr $C$DW$T$580, DW_AT_decl_line(0x170)
    1832                            .dwattr $C$DW$T$580, DW_AT_decl_column(0x14)
    1833                    
    1834                    $C$DW$T$188     .dwtag  DW_TAG_typedef
    1835                            .dwattr $C$DW$T$188, DW_AT_name("ti_sysbios_interfaces_ITimer_FuncPtr")
    1836                            .dwattr $C$DW$T$188, DW_AT_type(*$C$DW$T$187)
    1837                            .dwattr $C$DW$T$188, DW_AT_language(DW_LANG_C)
    1838                            .dwattr $C$DW$T$188, DW_AT_decl_file("C:/ti/simplelink_cc13x0_sdk_2_30_00_20/kernel/tirtos/pac
    1839                            .dwattr $C$DW$T$188, DW_AT_decl_line(0x42)
    1840                            .dwattr $C$DW$T$188, DW_AT_decl_column(0x14)
    1841                    
    1842                    
    1843                    $C$DW$T$209     .dwtag  DW_TAG_subroutine_type
    1844                            .dwattr $C$DW$T$209, DW_AT_type(*$C$DW$T$188)
    1845                            .dwattr $C$DW$T$209, DW_AT_language(DW_LANG_C)
    1846                    $C$DW$88        .dwtag  DW_TAG_formal_parameter
    1847                            .dwattr $C$DW$88, DW_AT_type(*$C$DW$T$3)
    1848                    
    1849                    $C$DW$89        .dwtag  DW_TAG_formal_parameter
    1850                            .dwattr $C$DW$89, DW_AT_type(*$C$DW$T$208)
    1851                    
    1852                            .dwendtag $C$DW$T$209
    1853                    
    1854                    $C$DW$T$210     .dwtag  DW_TAG_pointer_type
    1855                            .dwattr $C$DW$T$210, DW_AT_type(*$C$DW$T$209)
    1856                            .dwattr $C$DW$T$210, DW_AT_address_class(0x20)
    1857                    
    1858                    $C$DW$T$582     .dwtag  DW_TAG_typedef
    1859                            .dwattr $C$DW$T$582, DW_AT_name("ti_sysbios_interfaces_ITimer_getFunc_FxnT")
    1860                            .dwattr $C$DW$T$582, DW_AT_type(*$C$DW$T$210)
    1861                            .dwattr $C$DW$T$582, DW_AT_language(DW_LANG_C)
    1862                            .dwattr $C$DW$T$582, DW_AT_decl_file("C:/ti/simplelink_cc13x0_sdk_2_30_00_20/kernel/tirtos/pac
    1863                            .dwattr $C$DW$T$582, DW_AT_decl_line(0x1b4)
    1864                            .dwattr $C$DW$T$582, DW_AT_decl_column(0x30)
    1865                    
    1866                    
    1867                    $C$DW$T$253     .dwtag  DW_TAG_subroutine_type
    1868                            .dwattr $C$DW$T$253, DW_AT_type(*$C$DW$T$188)
    1869                            .dwattr $C$DW$T$253, DW_AT_language(DW_LANG_C)
    1870                    $C$DW$90        .dwtag  DW_TAG_formal_parameter
TI ARM Assembler PC v16.9.8 Thu Nov 22 09:24:49 2018

Tools Copyright (c) 1996-2017 Texas Instruments Incorporated
C:\Users\Einstein\AppData\Local\Temp\{748D889B-CC6C-4ECD-A5B9-3576FF08DC06} PAGE   35

    1871                            .dwattr $C$DW$90, DW_AT_type(*$C$DW$T$242)
    1872                    
    1873                    $C$DW$91        .dwtag  DW_TAG_formal_parameter
    1874                            .dwattr $C$DW$91, DW_AT_type(*$C$DW$T$208)
    1875                    
    1876                            .dwendtag $C$DW$T$253
    1877                    
    1878                    $C$DW$T$254     .dwtag  DW_TAG_pointer_type
    1879                            .dwattr $C$DW$T$254, DW_AT_type(*$C$DW$T$253)
    1880                            .dwattr $C$DW$T$254, DW_AT_address_class(0x20)
    1881                    
    1882                    $C$DW$T$583     .dwtag  DW_TAG_typedef
    1883                            .dwattr $C$DW$T$583, DW_AT_name("ti_sysbios_knl_Clock_TimerProxy_FuncPtr")
    1884                            .dwattr $C$DW$T$583, DW_AT_type(*$C$DW$T$188)
    1885                            .dwattr $C$DW$T$583, DW_AT_language(DW_LANG_C)
    1886                            .dwattr $C$DW$T$583, DW_AT_decl_file("C:/ti/simplelink_cc13x0_sdk_2_30_00_20/kernel/tirtos/pac
    1887                            .dwattr $C$DW$T$583, DW_AT_decl_line(0x43)
    1888                            .dwattr $C$DW$T$583, DW_AT_decl_column(0x2e)
    1889                    
    1890                    $C$DW$T$232     .dwtag  DW_TAG_typedef
    1891                            .dwattr $C$DW$T$232, DW_AT_name("ti_sysbios_knl_Clock_FuncPtr")
    1892                            .dwattr $C$DW$T$232, DW_AT_type(*$C$DW$T$187)
    1893                            .dwattr $C$DW$T$232, DW_AT_language(DW_LANG_C)
    1894                            .dwattr $C$DW$T$232, DW_AT_decl_file("C:/ti/simplelink_cc13x0_sdk_2_30_00_20/kernel/tirtos/pac
    1895                            .dwattr $C$DW$T$232, DW_AT_decl_line(0x59)
    1896                            .dwattr $C$DW$T$232, DW_AT_decl_column(0x14)
    1897                    
    1898                    $C$DW$T$584     .dwtag  DW_TAG_const_type
    1899                            .dwattr $C$DW$T$584, DW_AT_type(*$C$DW$T$232)
    1900                    
    1901                    
    1902                    $C$DW$T$198     .dwtag  DW_TAG_subroutine_type
    1903                            .dwattr $C$DW$T$198, DW_AT_language(DW_LANG_C)
    1904                    $C$DW$92        .dwtag  DW_TAG_formal_parameter
    1905                            .dwattr $C$DW$92, DW_AT_type(*$C$DW$T$3)
    1906                    
    1907                    $C$DW$93        .dwtag  DW_TAG_formal_parameter
    1908                            .dwattr $C$DW$93, DW_AT_type(*$C$DW$T$195)
    1909                    
    1910                            .dwendtag $C$DW$T$198
    1911                    
    1912                    $C$DW$T$199     .dwtag  DW_TAG_pointer_type
    1913                            .dwattr $C$DW$T$199, DW_AT_type(*$C$DW$T$198)
    1914                            .dwattr $C$DW$T$199, DW_AT_address_class(0x20)
    1915                    
    1916                    $C$DW$T$585     .dwtag  DW_TAG_typedef
    1917                            .dwattr $C$DW$T$585, DW_AT_name("ti_sysbios_interfaces_ITimer_setNextTick_FxnT")
    1918                            .dwattr $C$DW$T$585, DW_AT_type(*$C$DW$T$199)
    1919                            .dwattr $C$DW$T$585, DW_AT_language(DW_LANG_C)
    1920                            .dwattr $C$DW$T$585, DW_AT_decl_file("C:/ti/simplelink_cc13x0_sdk_2_30_00_20/kernel/tirtos/pac
    1921                            .dwattr $C$DW$T$585, DW_AT_decl_line(0x174)
    1922                            .dwattr $C$DW$T$585, DW_AT_decl_column(0x14)
    1923                    
    1924                    $C$DW$T$586     .dwtag  DW_TAG_typedef
    1925                            .dwattr $C$DW$T$586, DW_AT_name("ti_sysbios_interfaces_ITimer_setPeriod_FxnT")
TI ARM Assembler PC v16.9.8 Thu Nov 22 09:24:49 2018

Tools Copyright (c) 1996-2017 Texas Instruments Incorporated
C:\Users\Einstein\AppData\Local\Temp\{748D889B-CC6C-4ECD-A5B9-3576FF08DC06} PAGE   36

    1926                            .dwattr $C$DW$T$586, DW_AT_type(*$C$DW$T$199)
    1927                            .dwattr $C$DW$T$586, DW_AT_language(DW_LANG_C)
    1928                            .dwattr $C$DW$T$586, DW_AT_decl_file("C:/ti/simplelink_cc13x0_sdk_2_30_00_20/kernel/tirtos/pac
    1929                            .dwattr $C$DW$T$586, DW_AT_decl_line(0x18c)
    1930                            .dwattr $C$DW$T$586, DW_AT_decl_column(0x14)
    1931                    
    1932                    $C$DW$T$587     .dwtag  DW_TAG_typedef
    1933                            .dwattr $C$DW$T$587, DW_AT_name("ti_sysbios_interfaces_ITimer_trigger_FxnT")
    1934                            .dwattr $C$DW$T$587, DW_AT_type(*$C$DW$T$199)
    1935                            .dwattr $C$DW$T$587, DW_AT_language(DW_LANG_C)
    1936                            .dwattr $C$DW$T$587, DW_AT_decl_file("C:/ti/simplelink_cc13x0_sdk_2_30_00_20/kernel/tirtos/pac
    1937                            .dwattr $C$DW$T$587, DW_AT_decl_line(0x1c4)
    1938                            .dwattr $C$DW$T$587, DW_AT_decl_column(0x14)
    1939                    
    1940                    
    1941                    $C$DW$T$200     .dwtag  DW_TAG_subroutine_type
    1942                            .dwattr $C$DW$T$200, DW_AT_language(DW_LANG_C)
    1943                    $C$DW$94        .dwtag  DW_TAG_formal_parameter
    1944                            .dwattr $C$DW$94, DW_AT_type(*$C$DW$T$3)
    1945                    
    1946                            .dwendtag $C$DW$T$200
    1947                    
    1948                    $C$DW$T$201     .dwtag  DW_TAG_pointer_type
    1949                            .dwattr $C$DW$T$201, DW_AT_type(*$C$DW$T$200)
    1950                            .dwattr $C$DW$T$201, DW_AT_address_class(0x20)
    1951                    
    1952                    $C$DW$T$588     .dwtag  DW_TAG_typedef
    1953                            .dwattr $C$DW$T$588, DW_AT_name("ti_sysbios_interfaces_ITimer_start_FxnT")
    1954                            .dwattr $C$DW$T$588, DW_AT_type(*$C$DW$T$201)
    1955                            .dwattr $C$DW$T$588, DW_AT_language(DW_LANG_C)
    1956                            .dwattr $C$DW$T$588, DW_AT_decl_file("C:/ti/simplelink_cc13x0_sdk_2_30_00_20/kernel/tirtos/pac
    1957                            .dwattr $C$DW$T$588, DW_AT_decl_line(0x17c)
    1958                            .dwattr $C$DW$T$588, DW_AT_decl_column(0x14)
    1959                    
    1960                    $C$DW$T$589     .dwtag  DW_TAG_typedef
    1961                            .dwattr $C$DW$T$589, DW_AT_name("ti_sysbios_interfaces_ITimer_stop_FxnT")
    1962                            .dwattr $C$DW$T$589, DW_AT_type(*$C$DW$T$201)
    1963                            .dwattr $C$DW$T$589, DW_AT_language(DW_LANG_C)
    1964                            .dwattr $C$DW$T$589, DW_AT_decl_file("C:/ti/simplelink_cc13x0_sdk_2_30_00_20/kernel/tirtos/pac
    1965                            .dwattr $C$DW$T$589, DW_AT_decl_line(0x184)
    1966                            .dwattr $C$DW$T$589, DW_AT_decl_column(0x14)
    1967                    
    1968                    
    1969                    $C$DW$T$206     .dwtag  DW_TAG_subroutine_type
    1970                            .dwattr $C$DW$T$206, DW_AT_language(DW_LANG_C)
    1971                    $C$DW$95        .dwtag  DW_TAG_formal_parameter
    1972                            .dwattr $C$DW$95, DW_AT_type(*$C$DW$T$3)
    1973                    
    1974                    $C$DW$96        .dwtag  DW_TAG_formal_parameter
    1975                            .dwattr $C$DW$96, DW_AT_type(*$C$DW$T$205)
    1976                    
    1977                            .dwendtag $C$DW$T$206
    1978                    
    1979                    $C$DW$T$207     .dwtag  DW_TAG_pointer_type
    1980                            .dwattr $C$DW$T$207, DW_AT_type(*$C$DW$T$206)
TI ARM Assembler PC v16.9.8 Thu Nov 22 09:24:49 2018

Tools Copyright (c) 1996-2017 Texas Instruments Incorporated
C:\Users\Einstein\AppData\Local\Temp\{748D889B-CC6C-4ECD-A5B9-3576FF08DC06} PAGE   37

    1981                            .dwattr $C$DW$T$207, DW_AT_address_class(0x20)
    1982                    
    1983                    $C$DW$T$590     .dwtag  DW_TAG_typedef
    1984                            .dwattr $C$DW$T$590, DW_AT_name("ti_sysbios_interfaces_ITimer_getFreq_FxnT")
    1985                            .dwattr $C$DW$T$590, DW_AT_type(*$C$DW$T$207)
    1986                            .dwattr $C$DW$T$590, DW_AT_language(DW_LANG_C)
    1987                            .dwattr $C$DW$T$590, DW_AT_decl_file("C:/ti/simplelink_cc13x0_sdk_2_30_00_20/kernel/tirtos/pac
    1988                            .dwattr $C$DW$T$590, DW_AT_decl_line(0x1ac)
    1989                            .dwattr $C$DW$T$590, DW_AT_decl_column(0x14)
    1990                    
    1991                    
    1992                    $C$DW$T$211     .dwtag  DW_TAG_subroutine_type
    1993                            .dwattr $C$DW$T$211, DW_AT_language(DW_LANG_C)
    1994                    $C$DW$97        .dwtag  DW_TAG_formal_parameter
    1995                            .dwattr $C$DW$97, DW_AT_type(*$C$DW$T$3)
    1996                    
    1997                    $C$DW$98        .dwtag  DW_TAG_formal_parameter
    1998                            .dwattr $C$DW$98, DW_AT_type(*$C$DW$T$188)
    1999                    
    2000                    $C$DW$99        .dwtag  DW_TAG_formal_parameter
    2001                            .dwattr $C$DW$99, DW_AT_type(*$C$DW$T$185)
    2002                    
    2003                            .dwendtag $C$DW$T$211
    2004                    
    2005                    $C$DW$T$212     .dwtag  DW_TAG_pointer_type
    2006                            .dwattr $C$DW$T$212, DW_AT_type(*$C$DW$T$211)
    2007                            .dwattr $C$DW$T$212, DW_AT_address_class(0x20)
    2008                    
    2009                    $C$DW$T$591     .dwtag  DW_TAG_typedef
    2010                            .dwattr $C$DW$T$591, DW_AT_name("ti_sysbios_interfaces_ITimer_setFunc_FxnT")
    2011                            .dwattr $C$DW$T$591, DW_AT_type(*$C$DW$T$212)
    2012                            .dwattr $C$DW$T$591, DW_AT_language(DW_LANG_C)
    2013                            .dwattr $C$DW$T$591, DW_AT_decl_file("C:/ti/simplelink_cc13x0_sdk_2_30_00_20/kernel/tirtos/pac
    2014                            .dwattr $C$DW$T$591, DW_AT_decl_line(0x1bc)
    2015                            .dwattr $C$DW$T$591, DW_AT_decl_column(0x14)
    2016                    
    2017                    $C$DW$T$218     .dwtag  DW_TAG_const_type
    2018                            .dwattr $C$DW$T$218, DW_AT_type(*$C$DW$T$2)
    2019                    
    2020                    $C$DW$T$219     .dwtag  DW_TAG_pointer_type
    2021                            .dwattr $C$DW$T$219, DW_AT_type(*$C$DW$T$218)
    2022                            .dwattr $C$DW$T$219, DW_AT_address_class(0x20)
    2023                    
    2024                    $C$DW$T$468     .dwtag  DW_TAG_typedef
    2025                            .dwattr $C$DW$T$468, DW_AT_name("xdc_CPtr")
    2026                            .dwattr $C$DW$T$468, DW_AT_type(*$C$DW$T$219)
    2027                            .dwattr $C$DW$T$468, DW_AT_language(DW_LANG_C)
    2028                            .dwattr $C$DW$T$468, DW_AT_decl_file("C:/ti/xdctools_3_50_04_43_core/packages/xdc/std.h")
    2029                            .dwattr $C$DW$T$468, DW_AT_decl_line(0x2f)
    2030                            .dwattr $C$DW$T$468, DW_AT_decl_column(0x1a)
    2031                    
    2032                    $C$DW$T$592     .dwtag  DW_TAG_typedef
    2033                            .dwattr $C$DW$T$592, DW_AT_name("CPtr")
    2034                            .dwattr $C$DW$T$592, DW_AT_type(*$C$DW$T$468)
    2035                            .dwattr $C$DW$T$592, DW_AT_language(DW_LANG_C)
TI ARM Assembler PC v16.9.8 Thu Nov 22 09:24:49 2018

Tools Copyright (c) 1996-2017 Texas Instruments Incorporated
C:\Users\Einstein\AppData\Local\Temp\{748D889B-CC6C-4ECD-A5B9-3576FF08DC06} PAGE   38

    2036                            .dwattr $C$DW$T$592, DW_AT_decl_file("C:/ti/xdctools_3_50_04_43_core/packages/xdc/std.h")
    2037                            .dwattr $C$DW$T$592, DW_AT_decl_line(0xf8)
    2038                            .dwattr $C$DW$T$592, DW_AT_decl_column(0x19)
    2039                    
    2040                    
    2041                    $C$DW$T$245     .dwtag  DW_TAG_subroutine_type
    2042                            .dwattr $C$DW$T$245, DW_AT_language(DW_LANG_C)
    2043                    $C$DW$100       .dwtag  DW_TAG_formal_parameter
    2044                            .dwattr $C$DW$100, DW_AT_type(*$C$DW$T$242)
    2045                    
    2046                    $C$DW$101       .dwtag  DW_TAG_formal_parameter
    2047                            .dwattr $C$DW$101, DW_AT_type(*$C$DW$T$195)
    2048                    
    2049                            .dwendtag $C$DW$T$245
    2050                    
    2051                    $C$DW$T$246     .dwtag  DW_TAG_pointer_type
    2052                            .dwattr $C$DW$T$246, DW_AT_type(*$C$DW$T$245)
    2053                            .dwattr $C$DW$T$246, DW_AT_address_class(0x20)
    2054                    
    2055                    
    2056                    $C$DW$T$247     .dwtag  DW_TAG_subroutine_type
    2057                            .dwattr $C$DW$T$247, DW_AT_language(DW_LANG_C)
    2058                    $C$DW$102       .dwtag  DW_TAG_formal_parameter
    2059                            .dwattr $C$DW$102, DW_AT_type(*$C$DW$T$242)
    2060                    
    2061                            .dwendtag $C$DW$T$247
    2062                    
    2063                    $C$DW$T$248     .dwtag  DW_TAG_pointer_type
    2064                            .dwattr $C$DW$T$248, DW_AT_type(*$C$DW$T$247)
    2065                            .dwattr $C$DW$T$248, DW_AT_address_class(0x20)
    2066                    
    2067                    
    2068                    $C$DW$T$251     .dwtag  DW_TAG_subroutine_type
    2069                            .dwattr $C$DW$T$251, DW_AT_language(DW_LANG_C)
    2070                    $C$DW$103       .dwtag  DW_TAG_formal_parameter
    2071                            .dwattr $C$DW$103, DW_AT_type(*$C$DW$T$242)
    2072                    
    2073                    $C$DW$104       .dwtag  DW_TAG_formal_parameter
    2074                            .dwattr $C$DW$104, DW_AT_type(*$C$DW$T$205)
    2075                    
    2076                            .dwendtag $C$DW$T$251
    2077                    
    2078                    $C$DW$T$252     .dwtag  DW_TAG_pointer_type
    2079                            .dwattr $C$DW$T$252, DW_AT_type(*$C$DW$T$251)
    2080                            .dwattr $C$DW$T$252, DW_AT_address_class(0x20)
    2081                    
    2082                    
    2083                    $C$DW$T$255     .dwtag  DW_TAG_subroutine_type
    2084                            .dwattr $C$DW$T$255, DW_AT_language(DW_LANG_C)
    2085                    $C$DW$105       .dwtag  DW_TAG_formal_parameter
    2086                            .dwattr $C$DW$105, DW_AT_type(*$C$DW$T$242)
    2087                    
    2088                    $C$DW$106       .dwtag  DW_TAG_formal_parameter
    2089                            .dwattr $C$DW$106, DW_AT_type(*$C$DW$T$188)
    2090                    
TI ARM Assembler PC v16.9.8 Thu Nov 22 09:24:49 2018

Tools Copyright (c) 1996-2017 Texas Instruments Incorporated
C:\Users\Einstein\AppData\Local\Temp\{748D889B-CC6C-4ECD-A5B9-3576FF08DC06} PAGE   39

    2091                    $C$DW$107       .dwtag  DW_TAG_formal_parameter
    2092                            .dwattr $C$DW$107, DW_AT_type(*$C$DW$T$185)
    2093                    
    2094                            .dwendtag $C$DW$T$255
    2095                    
    2096                    $C$DW$T$256     .dwtag  DW_TAG_pointer_type
    2097                            .dwattr $C$DW$T$256, DW_AT_type(*$C$DW$T$255)
    2098                            .dwattr $C$DW$T$256, DW_AT_address_class(0x20)
    2099                    
    2100                    
    2101                    $C$DW$T$295     .dwtag  DW_TAG_subroutine_type
    2102                            .dwattr $C$DW$T$295, DW_AT_language(DW_LANG_C)
    2103                    $C$DW$108       .dwtag  DW_TAG_formal_parameter
    2104                            .dwattr $C$DW$108, DW_AT_type(*$C$DW$T$185)
    2105                    
    2106                    $C$DW$109       .dwtag  DW_TAG_formal_parameter
    2107                            .dwattr $C$DW$109, DW_AT_type(*$C$DW$T$185)
    2108                    
    2109                            .dwendtag $C$DW$T$295
    2110                    
    2111                    $C$DW$T$296     .dwtag  DW_TAG_pointer_type
    2112                            .dwattr $C$DW$T$296, DW_AT_type(*$C$DW$T$295)
    2113                            .dwattr $C$DW$T$296, DW_AT_address_class(0x20)
    2114                    
    2115                    $C$DW$T$297     .dwtag  DW_TAG_typedef
    2116                            .dwattr $C$DW$T$297, DW_AT_name("ti_sysbios_knl_Swi_FuncPtr")
    2117                            .dwattr $C$DW$T$297, DW_AT_type(*$C$DW$T$296)
    2118                            .dwattr $C$DW$T$297, DW_AT_language(DW_LANG_C)
    2119                            .dwattr $C$DW$T$297, DW_AT_decl_file("C:/ti/simplelink_cc13x0_sdk_2_30_00_20/kernel/tirtos/pac
    2120                            .dwattr $C$DW$T$297, DW_AT_decl_line(0x49)
    2121                            .dwattr $C$DW$T$297, DW_AT_decl_column(0x14)
    2122                    
    2123                    $C$DW$T$321     .dwtag  DW_TAG_typedef
    2124                            .dwattr $C$DW$T$321, DW_AT_name("ti_sysbios_knl_Task_FuncPtr")
    2125                            .dwattr $C$DW$T$321, DW_AT_type(*$C$DW$T$296)
    2126                            .dwattr $C$DW$T$321, DW_AT_language(DW_LANG_C)
    2127                            .dwattr $C$DW$T$321, DW_AT_decl_file("C:/ti/simplelink_cc13x0_sdk_2_30_00_20/kernel/tirtos/pac
    2128                            .dwattr $C$DW$T$321, DW_AT_decl_line(0x4d)
    2129                            .dwattr $C$DW$T$321, DW_AT_decl_column(0x14)
    2130                    
    2131                    
    2132                    $C$DW$T$299     .dwtag  DW_TAG_subroutine_type
    2133                            .dwattr $C$DW$T$299, DW_AT_language(DW_LANG_C)
    2134                    $C$DW$110       .dwtag  DW_TAG_formal_parameter
    2135                            .dwattr $C$DW$110, DW_AT_type(*$C$DW$T$183)
    2136                    
    2137                            .dwendtag $C$DW$T$299
    2138                    
    2139                    $C$DW$T$300     .dwtag  DW_TAG_pointer_type
    2140                            .dwattr $C$DW$T$300, DW_AT_type(*$C$DW$T$299)
    2141                            .dwattr $C$DW$T$300, DW_AT_address_class(0x20)
    2142                    
    2143                    
    2144                    $C$DW$T$304     .dwtag  DW_TAG_subroutine_type
    2145                            .dwattr $C$DW$T$304, DW_AT_language(DW_LANG_C)
TI ARM Assembler PC v16.9.8 Thu Nov 22 09:24:49 2018

Tools Copyright (c) 1996-2017 Texas Instruments Incorporated
C:\Users\Einstein\AppData\Local\Temp\{748D889B-CC6C-4ECD-A5B9-3576FF08DC06} PAGE   40

    2146                    $C$DW$111       .dwtag  DW_TAG_formal_parameter
    2147                            .dwattr $C$DW$111, DW_AT_type(*$C$DW$T$303)
    2148                    
    2149                    $C$DW$112       .dwtag  DW_TAG_formal_parameter
    2150                            .dwattr $C$DW$112, DW_AT_type(*$C$DW$T$159)
    2151                    
    2152                            .dwendtag $C$DW$T$304
    2153                    
    2154                    $C$DW$T$305     .dwtag  DW_TAG_pointer_type
    2155                            .dwattr $C$DW$T$305, DW_AT_type(*$C$DW$T$304)
    2156                            .dwattr $C$DW$T$305, DW_AT_address_class(0x20)
    2157                    
    2158                    
    2159                    $C$DW$T$306     .dwtag  DW_TAG_subroutine_type
    2160                            .dwattr $C$DW$T$306, DW_AT_language(DW_LANG_C)
    2161                    $C$DW$113       .dwtag  DW_TAG_formal_parameter
    2162                            .dwattr $C$DW$113, DW_AT_type(*$C$DW$T$303)
    2163                    
    2164                            .dwendtag $C$DW$T$306
    2165                    
    2166                    $C$DW$T$307     .dwtag  DW_TAG_pointer_type
    2167                            .dwattr $C$DW$T$307, DW_AT_type(*$C$DW$T$306)
    2168                            .dwattr $C$DW$T$307, DW_AT_address_class(0x20)
    2169                    
    2170                    
    2171                    $C$DW$T$326     .dwtag  DW_TAG_subroutine_type
    2172                            .dwattr $C$DW$T$326, DW_AT_language(DW_LANG_C)
    2173                    $C$DW$114       .dwtag  DW_TAG_formal_parameter
    2174                            .dwattr $C$DW$114, DW_AT_type(*$C$DW$T$325)
    2175                    
    2176                    $C$DW$115       .dwtag  DW_TAG_formal_parameter
    2177                            .dwattr $C$DW$115, DW_AT_type(*$C$DW$T$159)
    2178                    
    2179                            .dwendtag $C$DW$T$326
    2180                    
    2181                    $C$DW$T$327     .dwtag  DW_TAG_pointer_type
    2182                            .dwattr $C$DW$T$327, DW_AT_type(*$C$DW$T$326)
    2183                            .dwattr $C$DW$T$327, DW_AT_address_class(0x20)
    2184                    
    2185                    
    2186                    $C$DW$T$328     .dwtag  DW_TAG_subroutine_type
    2187                            .dwattr $C$DW$T$328, DW_AT_language(DW_LANG_C)
    2188                    $C$DW$116       .dwtag  DW_TAG_formal_parameter
    2189                            .dwattr $C$DW$116, DW_AT_type(*$C$DW$T$325)
    2190                    
    2191                            .dwendtag $C$DW$T$328
    2192                    
    2193                    $C$DW$T$329     .dwtag  DW_TAG_pointer_type
    2194                            .dwattr $C$DW$T$329, DW_AT_type(*$C$DW$T$328)
    2195                            .dwattr $C$DW$T$329, DW_AT_address_class(0x20)
    2196                    
    2197                    
    2198                    $C$DW$T$330     .dwtag  DW_TAG_subroutine_type
    2199                            .dwattr $C$DW$T$330, DW_AT_language(DW_LANG_C)
    2200                    $C$DW$117       .dwtag  DW_TAG_formal_parameter
TI ARM Assembler PC v16.9.8 Thu Nov 22 09:24:49 2018

Tools Copyright (c) 1996-2017 Texas Instruments Incorporated
C:\Users\Einstein\AppData\Local\Temp\{748D889B-CC6C-4ECD-A5B9-3576FF08DC06} PAGE   41

    2201                            .dwattr $C$DW$117, DW_AT_type(*$C$DW$T$325)
    2202                    
    2203                    $C$DW$118       .dwtag  DW_TAG_formal_parameter
    2204                            .dwattr $C$DW$118, DW_AT_type(*$C$DW$T$325)
    2205                    
    2206                            .dwendtag $C$DW$T$330
    2207                    
    2208                    $C$DW$T$331     .dwtag  DW_TAG_pointer_type
    2209                            .dwattr $C$DW$T$331, DW_AT_type(*$C$DW$T$330)
    2210                            .dwattr $C$DW$T$331, DW_AT_address_class(0x20)
    2211                    
    2212                    
    2213                    $C$DW$T$382     .dwtag  DW_TAG_subroutine_type
    2214                            .dwattr $C$DW$T$382, DW_AT_language(DW_LANG_C)
    2215                    $C$DW$119       .dwtag  DW_TAG_formal_parameter
    2216                            .dwattr $C$DW$119, DW_AT_type(*$C$DW$T$3)
    2217                    
    2218                    $C$DW$120       .dwtag  DW_TAG_formal_parameter
    2219                            .dwattr $C$DW$120, DW_AT_type(*$C$DW$T$136)
    2220                    
    2221                            .dwendtag $C$DW$T$382
    2222                    
    2223                    $C$DW$T$383     .dwtag  DW_TAG_pointer_type
    2224                            .dwattr $C$DW$T$383, DW_AT_type(*$C$DW$T$382)
    2225                            .dwattr $C$DW$T$383, DW_AT_address_class(0x20)
    2226                    
    2227                    $C$DW$T$593     .dwtag  DW_TAG_typedef
    2228                            .dwattr $C$DW$T$593, DW_AT_name("xdc_runtime_IGateProvider_leave_FxnT")
    2229                            .dwattr $C$DW$T$593, DW_AT_type(*$C$DW$T$383)
    2230                            .dwattr $C$DW$T$593, DW_AT_language(DW_LANG_C)
    2231                            .dwattr $C$DW$T$593, DW_AT_decl_file("C:/ti/xdctools_3_50_04_43_core/packages/xdc/runtime/IGat
    2232                            .dwattr $C$DW$T$593, DW_AT_decl_line(0xbc)
    2233                            .dwattr $C$DW$T$593, DW_AT_decl_column(0x14)
    2234                    
    2235                    
    2236                    $C$DW$T$391     .dwtag  DW_TAG_subroutine_type
    2237                            .dwattr $C$DW$T$391, DW_AT_language(DW_LANG_C)
    2238                    $C$DW$121       .dwtag  DW_TAG_formal_parameter
    2239                            .dwattr $C$DW$121, DW_AT_type(*$C$DW$T$3)
    2240                    
    2241                    $C$DW$122       .dwtag  DW_TAG_formal_parameter
    2242                            .dwattr $C$DW$122, DW_AT_type(*$C$DW$T$154)
    2243                    
    2244                    $C$DW$123       .dwtag  DW_TAG_formal_parameter
    2245                            .dwattr $C$DW$123, DW_AT_type(*$C$DW$T$170)
    2246                    
    2247                            .dwendtag $C$DW$T$391
    2248                    
    2249                    $C$DW$T$392     .dwtag  DW_TAG_pointer_type
    2250                            .dwattr $C$DW$T$392, DW_AT_type(*$C$DW$T$391)
    2251                            .dwattr $C$DW$T$392, DW_AT_address_class(0x20)
    2252                    
    2253                    $C$DW$T$594     .dwtag  DW_TAG_typedef
    2254                            .dwattr $C$DW$T$594, DW_AT_name("xdc_runtime_IHeap_free_FxnT")
    2255                            .dwattr $C$DW$T$594, DW_AT_type(*$C$DW$T$392)
TI ARM Assembler PC v16.9.8 Thu Nov 22 09:24:49 2018

Tools Copyright (c) 1996-2017 Texas Instruments Incorporated
C:\Users\Einstein\AppData\Local\Temp\{748D889B-CC6C-4ECD-A5B9-3576FF08DC06} PAGE   42

    2256                            .dwattr $C$DW$T$594, DW_AT_language(DW_LANG_C)
    2257                            .dwattr $C$DW$T$594, DW_AT_decl_file("C:/ti/xdctools_3_50_04_43_core/packages/xdc/runtime/IHea
    2258                            .dwattr $C$DW$T$594, DW_AT_decl_line(0xb8)
    2259                            .dwattr $C$DW$T$594, DW_AT_decl_column(0x14)
    2260                    
    2261                    
    2262                    $C$DW$T$397     .dwtag  DW_TAG_subroutine_type
    2263                            .dwattr $C$DW$T$397, DW_AT_language(DW_LANG_C)
    2264                    $C$DW$124       .dwtag  DW_TAG_formal_parameter
    2265                            .dwattr $C$DW$124, DW_AT_type(*$C$DW$T$3)
    2266                    
    2267                    $C$DW$125       .dwtag  DW_TAG_formal_parameter
    2268                            .dwattr $C$DW$125, DW_AT_type(*$C$DW$T$396)
    2269                    
    2270                            .dwendtag $C$DW$T$397
    2271                    
    2272                    $C$DW$T$398     .dwtag  DW_TAG_pointer_type
    2273                            .dwattr $C$DW$T$398, DW_AT_type(*$C$DW$T$397)
    2274                            .dwattr $C$DW$T$398, DW_AT_address_class(0x20)
    2275                    
    2276                    $C$DW$T$595     .dwtag  DW_TAG_typedef
    2277                            .dwattr $C$DW$T$595, DW_AT_name("xdc_runtime_IHeap_getStats_FxnT")
    2278                            .dwattr $C$DW$T$595, DW_AT_type(*$C$DW$T$398)
    2279                            .dwattr $C$DW$T$595, DW_AT_language(DW_LANG_C)
    2280                            .dwattr $C$DW$T$595, DW_AT_decl_file("C:/ti/xdctools_3_50_04_43_core/packages/xdc/runtime/IHea
    2281                            .dwattr $C$DW$T$595, DW_AT_decl_line(0xc8)
    2282                            .dwattr $C$DW$T$595, DW_AT_decl_column(0x14)
    2283                    
    2284                    
    2285                    $C$DW$T$423     .dwtag  DW_TAG_subroutine_type
    2286                            .dwattr $C$DW$T$423, DW_AT_language(DW_LANG_C)
    2287                    $C$DW$126       .dwtag  DW_TAG_formal_parameter
    2288                            .dwattr $C$DW$126, DW_AT_type(*$C$DW$T$420)
    2289                    
    2290                    $C$DW$127       .dwtag  DW_TAG_formal_parameter
    2291                            .dwattr $C$DW$127, DW_AT_type(*$C$DW$T$136)
    2292                    
    2293                            .dwendtag $C$DW$T$423
    2294                    
    2295                    $C$DW$T$424     .dwtag  DW_TAG_pointer_type
    2296                            .dwattr $C$DW$T$424, DW_AT_type(*$C$DW$T$423)
    2297                            .dwattr $C$DW$T$424, DW_AT_address_class(0x20)
    2298                    
    2299                    
    2300                    $C$DW$T$434     .dwtag  DW_TAG_subroutine_type
    2301                            .dwattr $C$DW$T$434, DW_AT_language(DW_LANG_C)
    2302                    $C$DW$128       .dwtag  DW_TAG_formal_parameter
    2303                            .dwattr $C$DW$128, DW_AT_type(*$C$DW$T$431)
    2304                    
    2305                    $C$DW$129       .dwtag  DW_TAG_formal_parameter
    2306                            .dwattr $C$DW$129, DW_AT_type(*$C$DW$T$154)
    2307                    
    2308                    $C$DW$130       .dwtag  DW_TAG_formal_parameter
    2309                            .dwattr $C$DW$130, DW_AT_type(*$C$DW$T$170)
    2310                    
TI ARM Assembler PC v16.9.8 Thu Nov 22 09:24:49 2018

Tools Copyright (c) 1996-2017 Texas Instruments Incorporated
C:\Users\Einstein\AppData\Local\Temp\{748D889B-CC6C-4ECD-A5B9-3576FF08DC06} PAGE   43

    2311                            .dwendtag $C$DW$T$434
    2312                    
    2313                    $C$DW$T$435     .dwtag  DW_TAG_pointer_type
    2314                            .dwattr $C$DW$T$435, DW_AT_type(*$C$DW$T$434)
    2315                            .dwattr $C$DW$T$435, DW_AT_address_class(0x20)
    2316                    
    2317                    
    2318                    $C$DW$T$438     .dwtag  DW_TAG_subroutine_type
    2319                            .dwattr $C$DW$T$438, DW_AT_language(DW_LANG_C)
    2320                    $C$DW$131       .dwtag  DW_TAG_formal_parameter
    2321                            .dwattr $C$DW$131, DW_AT_type(*$C$DW$T$431)
    2322                    
    2323                    $C$DW$132       .dwtag  DW_TAG_formal_parameter
    2324                            .dwattr $C$DW$132, DW_AT_type(*$C$DW$T$396)
    2325                    
    2326                            .dwendtag $C$DW$T$438
    2327                    
    2328                    $C$DW$T$439     .dwtag  DW_TAG_pointer_type
    2329                            .dwattr $C$DW$T$439, DW_AT_type(*$C$DW$T$438)
    2330                            .dwattr $C$DW$T$439, DW_AT_address_class(0x20)
    2331                    
    2332                    
    2333                    $C$DW$T$474     .dwtag  DW_TAG_subroutine_type
    2334                            .dwattr $C$DW$T$474, DW_AT_language(DW_LANG_C)
    2335                    $C$DW$133       .dwtag  DW_TAG_formal_parameter
    2336                            .dwattr $C$DW$133, DW_AT_type(*$C$DW$T$154)
    2337                    
    2338                            .dwendtag $C$DW$T$474
    2339                    
    2340                    $C$DW$T$475     .dwtag  DW_TAG_pointer_type
    2341                            .dwattr $C$DW$T$475, DW_AT_type(*$C$DW$T$474)
    2342                            .dwattr $C$DW$T$475, DW_AT_address_class(0x20)
    2343                    
    2344                    
    2345                    $C$DW$T$614     .dwtag  DW_TAG_subroutine_type
    2346                            .dwattr $C$DW$T$614, DW_AT_language(DW_LANG_C)
    2347                    $C$DW$134       .dwtag  DW_TAG_formal_parameter
    2348                            .dwattr $C$DW$134, DW_AT_type(*$C$DW$T$154)
    2349                    
    2350                    $C$DW$135       .dwtag  DW_TAG_formal_parameter
    2351                            .dwattr $C$DW$135, DW_AT_type(*$C$DW$T$613)
    2352                    
    2353                    $C$DW$136       .dwtag  DW_TAG_formal_parameter
    2354                            .dwattr $C$DW$136, DW_AT_type(*$C$DW$T$359)
    2355                    
    2356                            .dwendtag $C$DW$T$614
    2357                    
    2358                    $C$DW$T$615     .dwtag  DW_TAG_pointer_type
    2359                            .dwattr $C$DW$T$615, DW_AT_type(*$C$DW$T$614)
    2360                            .dwattr $C$DW$T$615, DW_AT_address_class(0x20)
    2361                    
    2362                    $C$DW$T$616     .dwtag  DW_TAG_typedef
    2363                            .dwattr $C$DW$T$616, DW_AT_name("xdc_runtime_Types_LoggerFxn0")
    2364                            .dwattr $C$DW$T$616, DW_AT_type(*$C$DW$T$615)
    2365                            .dwattr $C$DW$T$616, DW_AT_language(DW_LANG_C)
TI ARM Assembler PC v16.9.8 Thu Nov 22 09:24:49 2018

Tools Copyright (c) 1996-2017 Texas Instruments Incorporated
C:\Users\Einstein\AppData\Local\Temp\{748D889B-CC6C-4ECD-A5B9-3576FF08DC06} PAGE   44

    2366                            .dwattr $C$DW$T$616, DW_AT_decl_file("C:/ti/xdctools_3_50_04_43_core/packages/xdc/runtime/Type
    2367                            .dwattr $C$DW$T$616, DW_AT_decl_line(0x94)
    2368                            .dwattr $C$DW$T$616, DW_AT_decl_column(0x14)
    2369                    
    2370                    $C$DW$T$617     .dwtag  DW_TAG_typedef
    2371                            .dwattr $C$DW$T$617, DW_AT_name("CT__ti_sysbios_knl_Clock_Module__loggerFxn0")
    2372                            .dwattr $C$DW$T$617, DW_AT_type(*$C$DW$T$616)
    2373                            .dwattr $C$DW$T$617, DW_AT_language(DW_LANG_C)
    2374                            .dwattr $C$DW$T$617, DW_AT_decl_file("C:/ti/simplelink_cc13x0_sdk_2_30_00_20/kernel/tirtos/pac
    2375                            .dwattr $C$DW$T$617, DW_AT_decl_line(0xb9)
    2376                            .dwattr $C$DW$T$617, DW_AT_decl_column(0x26)
    2377                    
    2378                    $C$DW$T$618     .dwtag  DW_TAG_typedef
    2379                            .dwattr $C$DW$T$618, DW_AT_name("CT__ti_sysbios_knl_Clock_TimerProxy_Module__loggerFxn0")
    2380                            .dwattr $C$DW$T$618, DW_AT_type(*$C$DW$T$616)
    2381                            .dwattr $C$DW$T$618, DW_AT_language(DW_LANG_C)
    2382                            .dwattr $C$DW$T$618, DW_AT_decl_file("C:/ti/simplelink_cc13x0_sdk_2_30_00_20/kernel/tirtos/pac
    2383                            .dwattr $C$DW$T$618, DW_AT_decl_line(0xad)
    2384                            .dwattr $C$DW$T$618, DW_AT_decl_column(0x26)
    2385                    
    2386                    $C$DW$T$619     .dwtag  DW_TAG_typedef
    2387                            .dwattr $C$DW$T$619, DW_AT_name("CT__ti_sysbios_knl_Event_Module__loggerFxn0")
    2388                            .dwattr $C$DW$T$619, DW_AT_type(*$C$DW$T$616)
    2389                            .dwattr $C$DW$T$619, DW_AT_language(DW_LANG_C)
    2390                            .dwattr $C$DW$T$619, DW_AT_decl_file("C:/ti/simplelink_cc13x0_sdk_2_30_00_20/kernel/tirtos/pac
    2391                            .dwattr $C$DW$T$619, DW_AT_decl_line(0x110)
    2392                            .dwattr $C$DW$T$619, DW_AT_decl_column(0x26)
    2393                    
    2394                    $C$DW$T$620     .dwtag  DW_TAG_typedef
    2395                            .dwattr $C$DW$T$620, DW_AT_name("CT__ti_sysbios_knl_Queue_Module__loggerFxn0")
    2396                            .dwattr $C$DW$T$620, DW_AT_type(*$C$DW$T$616)
    2397                            .dwattr $C$DW$T$620, DW_AT_language(DW_LANG_C)
    2398                            .dwattr $C$DW$T$620, DW_AT_decl_file("C:/ti/simplelink_cc13x0_sdk_2_30_00_20/kernel/tirtos/pac
    2399                            .dwattr $C$DW$T$620, DW_AT_decl_line(0x9a)
    2400                            .dwattr $C$DW$T$620, DW_AT_decl_column(0x26)
    2401                    
    2402                    $C$DW$T$621     .dwtag  DW_TAG_typedef
    2403                            .dwattr $C$DW$T$621, DW_AT_name("CT__ti_sysbios_knl_Semaphore_Module__loggerFxn0")
    2404                            .dwattr $C$DW$T$621, DW_AT_type(*$C$DW$T$616)
    2405                            .dwattr $C$DW$T$621, DW_AT_language(DW_LANG_C)
    2406                            .dwattr $C$DW$T$621, DW_AT_decl_file("C:/ti/simplelink_cc13x0_sdk_2_30_00_20/kernel/tirtos/pac
    2407                            .dwattr $C$DW$T$621, DW_AT_decl_line(0xbe)
    2408                            .dwattr $C$DW$T$621, DW_AT_decl_column(0x26)
    2409                    
    2410                    $C$DW$T$622     .dwtag  DW_TAG_typedef
    2411                            .dwattr $C$DW$T$622, DW_AT_name("CT__ti_sysbios_knl_Swi_Module__loggerFxn0")
    2412                            .dwattr $C$DW$T$622, DW_AT_type(*$C$DW$T$616)
    2413                            .dwattr $C$DW$T$622, DW_AT_language(DW_LANG_C)
    2414                            .dwattr $C$DW$T$622, DW_AT_decl_file("C:/ti/simplelink_cc13x0_sdk_2_30_00_20/kernel/tirtos/pac
    2415                            .dwattr $C$DW$T$622, DW_AT_decl_line(0xd9)
    2416                            .dwattr $C$DW$T$622, DW_AT_decl_column(0x26)
    2417                    
    2418                    $C$DW$T$623     .dwtag  DW_TAG_typedef
    2419                            .dwattr $C$DW$T$623, DW_AT_name("CT__ti_sysbios_knl_Task_Module__loggerFxn0")
    2420                            .dwattr $C$DW$T$623, DW_AT_type(*$C$DW$T$616)
TI ARM Assembler PC v16.9.8 Thu Nov 22 09:24:49 2018

Tools Copyright (c) 1996-2017 Texas Instruments Incorporated
C:\Users\Einstein\AppData\Local\Temp\{748D889B-CC6C-4ECD-A5B9-3576FF08DC06} PAGE   45

    2421                            .dwattr $C$DW$T$623, DW_AT_language(DW_LANG_C)
    2422                            .dwattr $C$DW$T$623, DW_AT_decl_file("C:/ti/simplelink_cc13x0_sdk_2_30_00_20/kernel/tirtos/pac
    2423                            .dwattr $C$DW$T$623, DW_AT_decl_line(0x11e)
    2424                            .dwattr $C$DW$T$623, DW_AT_decl_column(0x26)
    2425                    
    2426                    $C$DW$T$624     .dwtag  DW_TAG_typedef
    2427                            .dwattr $C$DW$T$624, DW_AT_name("CT__ti_sysbios_knl_Task_SupportProxy_Module__loggerFxn0")
    2428                            .dwattr $C$DW$T$624, DW_AT_type(*$C$DW$T$616)
    2429                            .dwattr $C$DW$T$624, DW_AT_language(DW_LANG_C)
    2430                            .dwattr $C$DW$T$624, DW_AT_decl_file("C:/ti/simplelink_cc13x0_sdk_2_30_00_20/kernel/tirtos/pac
    2431                            .dwattr $C$DW$T$624, DW_AT_decl_line(0x90)
    2432                            .dwattr $C$DW$T$624, DW_AT_decl_column(0x26)
    2433                    
    2434                    $C$DW$T$625     .dwtag  DW_TAG_typedef
    2435                            .dwattr $C$DW$T$625, DW_AT_name("CT__xdc_runtime_Assert_Module__loggerFxn0")
    2436                            .dwattr $C$DW$T$625, DW_AT_type(*$C$DW$T$616)
    2437                            .dwattr $C$DW$T$625, DW_AT_language(DW_LANG_C)
    2438                            .dwattr $C$DW$T$625, DW_AT_decl_file("C:/ti/xdctools_3_50_04_43_core/packages/xdc/runtime/Asse
    2439                            .dwattr $C$DW$T$625, DW_AT_decl_line(0x98)
    2440                            .dwattr $C$DW$T$625, DW_AT_decl_column(0x26)
    2441                    
    2442                    $C$DW$T$626     .dwtag  DW_TAG_typedef
    2443                            .dwattr $C$DW$T$626, DW_AT_name("CT__xdc_runtime_Diags_Module__loggerFxn0")
    2444                            .dwattr $C$DW$T$626, DW_AT_type(*$C$DW$T$616)
    2445                            .dwattr $C$DW$T$626, DW_AT_language(DW_LANG_C)
    2446                            .dwattr $C$DW$T$626, DW_AT_decl_file("C:/ti/xdctools_3_50_04_43_core/packages/xdc/runtime/Diag
    2447                            .dwattr $C$DW$T$626, DW_AT_decl_line(0xeb)
    2448                            .dwattr $C$DW$T$626, DW_AT_decl_column(0x26)
    2449                    
    2450                    $C$DW$T$627     .dwtag  DW_TAG_typedef
    2451                            .dwattr $C$DW$T$627, DW_AT_name("CT__xdc_runtime_Error_Module__loggerFxn0")
    2452                            .dwattr $C$DW$T$627, DW_AT_type(*$C$DW$T$616)
    2453                            .dwattr $C$DW$T$627, DW_AT_language(DW_LANG_C)
    2454                            .dwattr $C$DW$T$627, DW_AT_decl_file("C:/ti/xdctools_3_50_04_43_core/packages/xdc/runtime/Erro
    2455                            .dwattr $C$DW$T$627, DW_AT_decl_line(0xbc)
    2456                            .dwattr $C$DW$T$627, DW_AT_decl_column(0x26)
    2457                    
    2458                    $C$DW$T$628     .dwtag  DW_TAG_typedef
    2459                            .dwattr $C$DW$T$628, DW_AT_name("CT__xdc_runtime_Log_Module__loggerFxn0")
    2460                            .dwattr $C$DW$T$628, DW_AT_type(*$C$DW$T$616)
    2461                            .dwattr $C$DW$T$628, DW_AT_language(DW_LANG_C)
    2462                            .dwattr $C$DW$T$628, DW_AT_decl_file("C:/ti/xdctools_3_50_04_43_core/packages/xdc/runtime/Log.
    2463                            .dwattr $C$DW$T$628, DW_AT_decl_line(0xad)
    2464                            .dwattr $C$DW$T$628, DW_AT_decl_column(0x26)
    2465                    
    2466                    $C$DW$T$629     .dwtag  DW_TAG_typedef
    2467                            .dwattr $C$DW$T$629, DW_AT_name("CT__xdc_runtime_Main_Module_GateProxy_Module__loggerFxn0")
    2468                            .dwattr $C$DW$T$629, DW_AT_type(*$C$DW$T$616)
    2469                            .dwattr $C$DW$T$629, DW_AT_language(DW_LANG_C)
    2470                            .dwattr $C$DW$T$629, DW_AT_decl_file("C:/ti/xdctools_3_50_04_43_core/packages/xdc/runtime/pack
    2471                            .dwattr $C$DW$T$629, DW_AT_decl_line(0x95)
    2472                            .dwattr $C$DW$T$629, DW_AT_decl_column(0x26)
    2473                    
    2474                    $C$DW$T$630     .dwtag  DW_TAG_typedef
    2475                            .dwattr $C$DW$T$630, DW_AT_name("CT__xdc_runtime_Main_Module__loggerFxn0")
TI ARM Assembler PC v16.9.8 Thu Nov 22 09:24:49 2018

Tools Copyright (c) 1996-2017 Texas Instruments Incorporated
C:\Users\Einstein\AppData\Local\Temp\{748D889B-CC6C-4ECD-A5B9-3576FF08DC06} PAGE   46

    2476                            .dwattr $C$DW$T$630, DW_AT_type(*$C$DW$T$616)
    2477                            .dwattr $C$DW$T$630, DW_AT_language(DW_LANG_C)
    2478                            .dwattr $C$DW$T$630, DW_AT_decl_file("C:/ti/xdctools_3_50_04_43_core/packages/xdc/runtime/Main
    2479                            .dwattr $C$DW$T$630, DW_AT_decl_line(0x94)
    2480                            .dwattr $C$DW$T$630, DW_AT_decl_column(0x26)
    2481                    
    2482                    $C$DW$T$631     .dwtag  DW_TAG_typedef
    2483                            .dwattr $C$DW$T$631, DW_AT_name("CT__xdc_runtime_Memory_HeapProxy_Module__loggerFxn0")
    2484                            .dwattr $C$DW$T$631, DW_AT_type(*$C$DW$T$616)
    2485                            .dwattr $C$DW$T$631, DW_AT_language(DW_LANG_C)
    2486                            .dwattr $C$DW$T$631, DW_AT_decl_file("C:/ti/xdctools_3_50_04_43_core/packages/xdc/runtime/pack
    2487                            .dwattr $C$DW$T$631, DW_AT_decl_line(0x8f)
    2488                            .dwattr $C$DW$T$631, DW_AT_decl_column(0x26)
    2489                    
    2490                    $C$DW$T$632     .dwtag  DW_TAG_typedef
    2491                            .dwattr $C$DW$T$632, DW_AT_name("CT__xdc_runtime_Memory_Module__loggerFxn0")
    2492                            .dwattr $C$DW$T$632, DW_AT_type(*$C$DW$T$616)
    2493                            .dwattr $C$DW$T$632, DW_AT_language(DW_LANG_C)
    2494                            .dwattr $C$DW$T$632, DW_AT_decl_file("C:/ti/xdctools_3_50_04_43_core/packages/xdc/runtime/Memo
    2495                            .dwattr $C$DW$T$632, DW_AT_decl_line(0xa2)
    2496                            .dwattr $C$DW$T$632, DW_AT_decl_column(0x26)
    2497                    
    2498                    $C$DW$T$633     .dwtag  DW_TAG_typedef
    2499                            .dwattr $C$DW$T$633, DW_AT_name("CT__xdc_runtime_Text_Module__loggerFxn0")
    2500                            .dwattr $C$DW$T$633, DW_AT_type(*$C$DW$T$616)
    2501                            .dwattr $C$DW$T$633, DW_AT_language(DW_LANG_C)
    2502                            .dwattr $C$DW$T$633, DW_AT_decl_file("C:/ti/xdctools_3_50_04_43_core/packages/xdc/runtime/Text
    2503                            .dwattr $C$DW$T$633, DW_AT_decl_line(0xb9)
    2504                            .dwattr $C$DW$T$633, DW_AT_decl_column(0x26)
    2505                    
    2506                    $C$DW$T$634     .dwtag  DW_TAG_typedef
    2507                            .dwattr $C$DW$T$634, DW_AT_name("CT__xdc_runtime_Types_Module__loggerFxn0")
    2508                            .dwattr $C$DW$T$634, DW_AT_type(*$C$DW$T$616)
    2509                            .dwattr $C$DW$T$634, DW_AT_language(DW_LANG_C)
    2510                            .dwattr $C$DW$T$634, DW_AT_decl_file("C:/ti/xdctools_3_50_04_43_core/packages/xdc/runtime/Type
    2511                            .dwattr $C$DW$T$634, DW_AT_decl_line(0x116)
    2512                            .dwattr $C$DW$T$634, DW_AT_decl_column(0x26)
    2513                    
    2514                    
    2515                    $C$DW$T$635     .dwtag  DW_TAG_subroutine_type
    2516                            .dwattr $C$DW$T$635, DW_AT_language(DW_LANG_C)
    2517                    $C$DW$137       .dwtag  DW_TAG_formal_parameter
    2518                            .dwattr $C$DW$137, DW_AT_type(*$C$DW$T$154)
    2519                    
    2520                    $C$DW$138       .dwtag  DW_TAG_formal_parameter
    2521                            .dwattr $C$DW$138, DW_AT_type(*$C$DW$T$613)
    2522                    
    2523                    $C$DW$139       .dwtag  DW_TAG_formal_parameter
    2524                            .dwattr $C$DW$139, DW_AT_type(*$C$DW$T$359)
    2525                    
    2526                    $C$DW$140       .dwtag  DW_TAG_formal_parameter
    2527                            .dwattr $C$DW$140, DW_AT_type(*$C$DW$T$136)
    2528                    
    2529                            .dwendtag $C$DW$T$635
    2530                    
TI ARM Assembler PC v16.9.8 Thu Nov 22 09:24:49 2018

Tools Copyright (c) 1996-2017 Texas Instruments Incorporated
C:\Users\Einstein\AppData\Local\Temp\{748D889B-CC6C-4ECD-A5B9-3576FF08DC06} PAGE   47

    2531                    $C$DW$T$636     .dwtag  DW_TAG_pointer_type
    2532                            .dwattr $C$DW$T$636, DW_AT_type(*$C$DW$T$635)
    2533                            .dwattr $C$DW$T$636, DW_AT_address_class(0x20)
    2534                    
    2535                    $C$DW$T$637     .dwtag  DW_TAG_typedef
    2536                            .dwattr $C$DW$T$637, DW_AT_name("xdc_runtime_Types_LoggerFxn1")
    2537                            .dwattr $C$DW$T$637, DW_AT_type(*$C$DW$T$636)
    2538                            .dwattr $C$DW$T$637, DW_AT_language(DW_LANG_C)
    2539                            .dwattr $C$DW$T$637, DW_AT_decl_file("C:/ti/xdctools_3_50_04_43_core/packages/xdc/runtime/Type
    2540                            .dwattr $C$DW$T$637, DW_AT_decl_line(0x97)
    2541                            .dwattr $C$DW$T$637, DW_AT_decl_column(0x14)
    2542                    
    2543                    $C$DW$T$638     .dwtag  DW_TAG_typedef
    2544                            .dwattr $C$DW$T$638, DW_AT_name("CT__ti_sysbios_knl_Clock_Module__loggerFxn1")
    2545                            .dwattr $C$DW$T$638, DW_AT_type(*$C$DW$T$637)
    2546                            .dwattr $C$DW$T$638, DW_AT_language(DW_LANG_C)
    2547                            .dwattr $C$DW$T$638, DW_AT_decl_file("C:/ti/simplelink_cc13x0_sdk_2_30_00_20/kernel/tirtos/pac
    2548                            .dwattr $C$DW$T$638, DW_AT_decl_line(0xc2)
    2549                            .dwattr $C$DW$T$638, DW_AT_decl_column(0x26)
    2550                    
    2551                    $C$DW$T$639     .dwtag  DW_TAG_typedef
    2552                            .dwattr $C$DW$T$639, DW_AT_name("CT__ti_sysbios_knl_Clock_TimerProxy_Module__loggerFxn1")
    2553                            .dwattr $C$DW$T$639, DW_AT_type(*$C$DW$T$637)
    2554                            .dwattr $C$DW$T$639, DW_AT_language(DW_LANG_C)
    2555                            .dwattr $C$DW$T$639, DW_AT_decl_file("C:/ti/simplelink_cc13x0_sdk_2_30_00_20/kernel/tirtos/pac
    2556                            .dwattr $C$DW$T$639, DW_AT_decl_line(0xb6)
    2557                            .dwattr $C$DW$T$639, DW_AT_decl_column(0x26)
    2558                    
    2559                    $C$DW$T$640     .dwtag  DW_TAG_typedef
    2560                            .dwattr $C$DW$T$640, DW_AT_name("CT__ti_sysbios_knl_Event_Module__loggerFxn1")
    2561                            .dwattr $C$DW$T$640, DW_AT_type(*$C$DW$T$637)
    2562                            .dwattr $C$DW$T$640, DW_AT_language(DW_LANG_C)
    2563                            .dwattr $C$DW$T$640, DW_AT_decl_file("C:/ti/simplelink_cc13x0_sdk_2_30_00_20/kernel/tirtos/pac
    2564                            .dwattr $C$DW$T$640, DW_AT_decl_line(0x119)
    2565                            .dwattr $C$DW$T$640, DW_AT_decl_column(0x26)
    2566                    
    2567                    $C$DW$T$641     .dwtag  DW_TAG_typedef
    2568                            .dwattr $C$DW$T$641, DW_AT_name("CT__ti_sysbios_knl_Queue_Module__loggerFxn1")
    2569                            .dwattr $C$DW$T$641, DW_AT_type(*$C$DW$T$637)
    2570                            .dwattr $C$DW$T$641, DW_AT_language(DW_LANG_C)
    2571                            .dwattr $C$DW$T$641, DW_AT_decl_file("C:/ti/simplelink_cc13x0_sdk_2_30_00_20/kernel/tirtos/pac
    2572                            .dwattr $C$DW$T$641, DW_AT_decl_line(0xa3)
    2573                            .dwattr $C$DW$T$641, DW_AT_decl_column(0x26)
    2574                    
    2575                    $C$DW$T$642     .dwtag  DW_TAG_typedef
    2576                            .dwattr $C$DW$T$642, DW_AT_name("CT__ti_sysbios_knl_Semaphore_Module__loggerFxn1")
    2577                            .dwattr $C$DW$T$642, DW_AT_type(*$C$DW$T$637)
    2578                            .dwattr $C$DW$T$642, DW_AT_language(DW_LANG_C)
    2579                            .dwattr $C$DW$T$642, DW_AT_decl_file("C:/ti/simplelink_cc13x0_sdk_2_30_00_20/kernel/tirtos/pac
    2580                            .dwattr $C$DW$T$642, DW_AT_decl_line(0xc7)
    2581                            .dwattr $C$DW$T$642, DW_AT_decl_column(0x26)
    2582                    
    2583                    $C$DW$T$643     .dwtag  DW_TAG_typedef
    2584                            .dwattr $C$DW$T$643, DW_AT_name("CT__ti_sysbios_knl_Swi_Module__loggerFxn1")
    2585                            .dwattr $C$DW$T$643, DW_AT_type(*$C$DW$T$637)
TI ARM Assembler PC v16.9.8 Thu Nov 22 09:24:49 2018

Tools Copyright (c) 1996-2017 Texas Instruments Incorporated
C:\Users\Einstein\AppData\Local\Temp\{748D889B-CC6C-4ECD-A5B9-3576FF08DC06} PAGE   48

    2586                            .dwattr $C$DW$T$643, DW_AT_language(DW_LANG_C)
    2587                            .dwattr $C$DW$T$643, DW_AT_decl_file("C:/ti/simplelink_cc13x0_sdk_2_30_00_20/kernel/tirtos/pac
    2588                            .dwattr $C$DW$T$643, DW_AT_decl_line(0xe2)
    2589                            .dwattr $C$DW$T$643, DW_AT_decl_column(0x26)
    2590                    
    2591                    $C$DW$T$644     .dwtag  DW_TAG_typedef
    2592                            .dwattr $C$DW$T$644, DW_AT_name("CT__ti_sysbios_knl_Task_Module__loggerFxn1")
    2593                            .dwattr $C$DW$T$644, DW_AT_type(*$C$DW$T$637)
    2594                            .dwattr $C$DW$T$644, DW_AT_language(DW_LANG_C)
    2595                            .dwattr $C$DW$T$644, DW_AT_decl_file("C:/ti/simplelink_cc13x0_sdk_2_30_00_20/kernel/tirtos/pac
    2596                            .dwattr $C$DW$T$644, DW_AT_decl_line(0x127)
    2597                            .dwattr $C$DW$T$644, DW_AT_decl_column(0x26)
    2598                    
    2599                    $C$DW$T$645     .dwtag  DW_TAG_typedef
    2600                            .dwattr $C$DW$T$645, DW_AT_name("CT__ti_sysbios_knl_Task_SupportProxy_Module__loggerFxn1")
    2601                            .dwattr $C$DW$T$645, DW_AT_type(*$C$DW$T$637)
    2602                            .dwattr $C$DW$T$645, DW_AT_language(DW_LANG_C)
    2603                            .dwattr $C$DW$T$645, DW_AT_decl_file("C:/ti/simplelink_cc13x0_sdk_2_30_00_20/kernel/tirtos/pac
    2604                            .dwattr $C$DW$T$645, DW_AT_decl_line(0x99)
    2605                            .dwattr $C$DW$T$645, DW_AT_decl_column(0x26)
    2606                    
    2607                    $C$DW$T$646     .dwtag  DW_TAG_typedef
    2608                            .dwattr $C$DW$T$646, DW_AT_name("CT__xdc_runtime_Assert_Module__loggerFxn1")
    2609                            .dwattr $C$DW$T$646, DW_AT_type(*$C$DW$T$637)
    2610                            .dwattr $C$DW$T$646, DW_AT_language(DW_LANG_C)
    2611                            .dwattr $C$DW$T$646, DW_AT_decl_file("C:/ti/xdctools_3_50_04_43_core/packages/xdc/runtime/Asse
    2612                            .dwattr $C$DW$T$646, DW_AT_decl_line(0xa1)
    2613                            .dwattr $C$DW$T$646, DW_AT_decl_column(0x26)
    2614                    
    2615                    $C$DW$T$647     .dwtag  DW_TAG_typedef
    2616                            .dwattr $C$DW$T$647, DW_AT_name("CT__xdc_runtime_Diags_Module__loggerFxn1")
    2617                            .dwattr $C$DW$T$647, DW_AT_type(*$C$DW$T$637)
    2618                            .dwattr $C$DW$T$647, DW_AT_language(DW_LANG_C)
    2619                            .dwattr $C$DW$T$647, DW_AT_decl_file("C:/ti/xdctools_3_50_04_43_core/packages/xdc/runtime/Diag
    2620                            .dwattr $C$DW$T$647, DW_AT_decl_line(0xf4)
    2621                            .dwattr $C$DW$T$647, DW_AT_decl_column(0x26)
    2622                    
    2623                    $C$DW$T$648     .dwtag  DW_TAG_typedef
    2624                            .dwattr $C$DW$T$648, DW_AT_name("CT__xdc_runtime_Error_Module__loggerFxn1")
    2625                            .dwattr $C$DW$T$648, DW_AT_type(*$C$DW$T$637)
    2626                            .dwattr $C$DW$T$648, DW_AT_language(DW_LANG_C)
    2627                            .dwattr $C$DW$T$648, DW_AT_decl_file("C:/ti/xdctools_3_50_04_43_core/packages/xdc/runtime/Erro
    2628                            .dwattr $C$DW$T$648, DW_AT_decl_line(0xc5)
    2629                            .dwattr $C$DW$T$648, DW_AT_decl_column(0x26)
    2630                    
    2631                    $C$DW$T$649     .dwtag  DW_TAG_typedef
    2632                            .dwattr $C$DW$T$649, DW_AT_name("CT__xdc_runtime_Log_Module__loggerFxn1")
    2633                            .dwattr $C$DW$T$649, DW_AT_type(*$C$DW$T$637)
    2634                            .dwattr $C$DW$T$649, DW_AT_language(DW_LANG_C)
    2635                            .dwattr $C$DW$T$649, DW_AT_decl_file("C:/ti/xdctools_3_50_04_43_core/packages/xdc/runtime/Log.
    2636                            .dwattr $C$DW$T$649, DW_AT_decl_line(0xb6)
    2637                            .dwattr $C$DW$T$649, DW_AT_decl_column(0x26)
    2638                    
    2639                    $C$DW$T$650     .dwtag  DW_TAG_typedef
    2640                            .dwattr $C$DW$T$650, DW_AT_name("CT__xdc_runtime_Main_Module_GateProxy_Module__loggerFxn1")
TI ARM Assembler PC v16.9.8 Thu Nov 22 09:24:49 2018

Tools Copyright (c) 1996-2017 Texas Instruments Incorporated
C:\Users\Einstein\AppData\Local\Temp\{748D889B-CC6C-4ECD-A5B9-3576FF08DC06} PAGE   49

    2641                            .dwattr $C$DW$T$650, DW_AT_type(*$C$DW$T$637)
    2642                            .dwattr $C$DW$T$650, DW_AT_language(DW_LANG_C)
    2643                            .dwattr $C$DW$T$650, DW_AT_decl_file("C:/ti/xdctools_3_50_04_43_core/packages/xdc/runtime/pack
    2644                            .dwattr $C$DW$T$650, DW_AT_decl_line(0x9e)
    2645                            .dwattr $C$DW$T$650, DW_AT_decl_column(0x26)
    2646                    
    2647                    $C$DW$T$651     .dwtag  DW_TAG_typedef
    2648                            .dwattr $C$DW$T$651, DW_AT_name("CT__xdc_runtime_Main_Module__loggerFxn1")
    2649                            .dwattr $C$DW$T$651, DW_AT_type(*$C$DW$T$637)
    2650                            .dwattr $C$DW$T$651, DW_AT_language(DW_LANG_C)
    2651                            .dwattr $C$DW$T$651, DW_AT_decl_file("C:/ti/xdctools_3_50_04_43_core/packages/xdc/runtime/Main
    2652                            .dwattr $C$DW$T$651, DW_AT_decl_line(0x9d)
    2653                            .dwattr $C$DW$T$651, DW_AT_decl_column(0x26)
    2654                    
    2655                    $C$DW$T$652     .dwtag  DW_TAG_typedef
    2656                            .dwattr $C$DW$T$652, DW_AT_name("CT__xdc_runtime_Memory_HeapProxy_Module__loggerFxn1")
    2657                            .dwattr $C$DW$T$652, DW_AT_type(*$C$DW$T$637)
    2658                            .dwattr $C$DW$T$652, DW_AT_language(DW_LANG_C)
    2659                            .dwattr $C$DW$T$652, DW_AT_decl_file("C:/ti/xdctools_3_50_04_43_core/packages/xdc/runtime/pack
    2660                            .dwattr $C$DW$T$652, DW_AT_decl_line(0x98)
    2661                            .dwattr $C$DW$T$652, DW_AT_decl_column(0x26)
    2662                    
    2663                    $C$DW$T$653     .dwtag  DW_TAG_typedef
    2664                            .dwattr $C$DW$T$653, DW_AT_name("CT__xdc_runtime_Memory_Module__loggerFxn1")
    2665                            .dwattr $C$DW$T$653, DW_AT_type(*$C$DW$T$637)
    2666                            .dwattr $C$DW$T$653, DW_AT_language(DW_LANG_C)
    2667                            .dwattr $C$DW$T$653, DW_AT_decl_file("C:/ti/xdctools_3_50_04_43_core/packages/xdc/runtime/Memo
    2668                            .dwattr $C$DW$T$653, DW_AT_decl_line(0xab)
    2669                            .dwattr $C$DW$T$653, DW_AT_decl_column(0x26)
    2670                    
    2671                    $C$DW$T$654     .dwtag  DW_TAG_typedef
    2672                            .dwattr $C$DW$T$654, DW_AT_name("CT__xdc_runtime_Text_Module__loggerFxn1")
    2673                            .dwattr $C$DW$T$654, DW_AT_type(*$C$DW$T$637)
    2674                            .dwattr $C$DW$T$654, DW_AT_language(DW_LANG_C)
    2675                            .dwattr $C$DW$T$654, DW_AT_decl_file("C:/ti/xdctools_3_50_04_43_core/packages/xdc/runtime/Text
    2676                            .dwattr $C$DW$T$654, DW_AT_decl_line(0xc2)
    2677                            .dwattr $C$DW$T$654, DW_AT_decl_column(0x26)
    2678                    
    2679                    $C$DW$T$655     .dwtag  DW_TAG_typedef
    2680                            .dwattr $C$DW$T$655, DW_AT_name("CT__xdc_runtime_Types_Module__loggerFxn1")
    2681                            .dwattr $C$DW$T$655, DW_AT_type(*$C$DW$T$637)
    2682                            .dwattr $C$DW$T$655, DW_AT_language(DW_LANG_C)
    2683                            .dwattr $C$DW$T$655, DW_AT_decl_file("C:/ti/xdctools_3_50_04_43_core/packages/xdc/runtime/Type
    2684                            .dwattr $C$DW$T$655, DW_AT_decl_line(0x11f)
    2685                            .dwattr $C$DW$T$655, DW_AT_decl_column(0x26)
    2686                    
    2687                    
    2688                    $C$DW$T$656     .dwtag  DW_TAG_subroutine_type
    2689                            .dwattr $C$DW$T$656, DW_AT_language(DW_LANG_C)
    2690                    $C$DW$141       .dwtag  DW_TAG_formal_parameter
    2691                            .dwattr $C$DW$141, DW_AT_type(*$C$DW$T$154)
    2692                    
    2693                    $C$DW$142       .dwtag  DW_TAG_formal_parameter
    2694                            .dwattr $C$DW$142, DW_AT_type(*$C$DW$T$613)
    2695                    
TI ARM Assembler PC v16.9.8 Thu Nov 22 09:24:49 2018

Tools Copyright (c) 1996-2017 Texas Instruments Incorporated
C:\Users\Einstein\AppData\Local\Temp\{748D889B-CC6C-4ECD-A5B9-3576FF08DC06} PAGE   50

    2696                    $C$DW$143       .dwtag  DW_TAG_formal_parameter
    2697                            .dwattr $C$DW$143, DW_AT_type(*$C$DW$T$359)
    2698                    
    2699                    $C$DW$144       .dwtag  DW_TAG_formal_parameter
    2700                            .dwattr $C$DW$144, DW_AT_type(*$C$DW$T$136)
    2701                    
    2702                    $C$DW$145       .dwtag  DW_TAG_formal_parameter
    2703                            .dwattr $C$DW$145, DW_AT_type(*$C$DW$T$136)
    2704                    
    2705                            .dwendtag $C$DW$T$656
    2706                    
    2707                    $C$DW$T$657     .dwtag  DW_TAG_pointer_type
    2708                            .dwattr $C$DW$T$657, DW_AT_type(*$C$DW$T$656)
    2709                            .dwattr $C$DW$T$657, DW_AT_address_class(0x20)
    2710                    
    2711                    $C$DW$T$658     .dwtag  DW_TAG_typedef
    2712                            .dwattr $C$DW$T$658, DW_AT_name("xdc_runtime_Types_LoggerFxn2")
    2713                            .dwattr $C$DW$T$658, DW_AT_type(*$C$DW$T$657)
    2714                            .dwattr $C$DW$T$658, DW_AT_language(DW_LANG_C)
    2715                            .dwattr $C$DW$T$658, DW_AT_decl_file("C:/ti/xdctools_3_50_04_43_core/packages/xdc/runtime/Type
    2716                            .dwattr $C$DW$T$658, DW_AT_decl_line(0x9a)
    2717                            .dwattr $C$DW$T$658, DW_AT_decl_column(0x14)
    2718                    
    2719                    $C$DW$T$659     .dwtag  DW_TAG_typedef
    2720                            .dwattr $C$DW$T$659, DW_AT_name("CT__ti_sysbios_knl_Clock_Module__loggerFxn2")
    2721                            .dwattr $C$DW$T$659, DW_AT_type(*$C$DW$T$658)
    2722                            .dwattr $C$DW$T$659, DW_AT_language(DW_LANG_C)
    2723                            .dwattr $C$DW$T$659, DW_AT_decl_file("C:/ti/simplelink_cc13x0_sdk_2_30_00_20/kernel/tirtos/pac
    2724                            .dwattr $C$DW$T$659, DW_AT_decl_line(0xcb)
    2725                            .dwattr $C$DW$T$659, DW_AT_decl_column(0x26)
    2726                    
    2727                    $C$DW$T$660     .dwtag  DW_TAG_typedef
    2728                            .dwattr $C$DW$T$660, DW_AT_name("CT__ti_sysbios_knl_Clock_TimerProxy_Module__loggerFxn2")
    2729                            .dwattr $C$DW$T$660, DW_AT_type(*$C$DW$T$658)
    2730                            .dwattr $C$DW$T$660, DW_AT_language(DW_LANG_C)
    2731                            .dwattr $C$DW$T$660, DW_AT_decl_file("C:/ti/simplelink_cc13x0_sdk_2_30_00_20/kernel/tirtos/pac
    2732                            .dwattr $C$DW$T$660, DW_AT_decl_line(0xbf)
    2733                            .dwattr $C$DW$T$660, DW_AT_decl_column(0x26)
    2734                    
    2735                    $C$DW$T$661     .dwtag  DW_TAG_typedef
    2736                            .dwattr $C$DW$T$661, DW_AT_name("CT__ti_sysbios_knl_Event_Module__loggerFxn2")
    2737                            .dwattr $C$DW$T$661, DW_AT_type(*$C$DW$T$658)
    2738                            .dwattr $C$DW$T$661, DW_AT_language(DW_LANG_C)
    2739                            .dwattr $C$DW$T$661, DW_AT_decl_file("C:/ti/simplelink_cc13x0_sdk_2_30_00_20/kernel/tirtos/pac
    2740                            .dwattr $C$DW$T$661, DW_AT_decl_line(0x122)
    2741                            .dwattr $C$DW$T$661, DW_AT_decl_column(0x26)
    2742                    
    2743                    $C$DW$T$662     .dwtag  DW_TAG_typedef
    2744                            .dwattr $C$DW$T$662, DW_AT_name("CT__ti_sysbios_knl_Queue_Module__loggerFxn2")
    2745                            .dwattr $C$DW$T$662, DW_AT_type(*$C$DW$T$658)
    2746                            .dwattr $C$DW$T$662, DW_AT_language(DW_LANG_C)
    2747                            .dwattr $C$DW$T$662, DW_AT_decl_file("C:/ti/simplelink_cc13x0_sdk_2_30_00_20/kernel/tirtos/pac
    2748                            .dwattr $C$DW$T$662, DW_AT_decl_line(0xac)
    2749                            .dwattr $C$DW$T$662, DW_AT_decl_column(0x26)
    2750                    
TI ARM Assembler PC v16.9.8 Thu Nov 22 09:24:49 2018

Tools Copyright (c) 1996-2017 Texas Instruments Incorporated
C:\Users\Einstein\AppData\Local\Temp\{748D889B-CC6C-4ECD-A5B9-3576FF08DC06} PAGE   51

    2751                    $C$DW$T$663     .dwtag  DW_TAG_typedef
    2752                            .dwattr $C$DW$T$663, DW_AT_name("CT__ti_sysbios_knl_Semaphore_Module__loggerFxn2")
    2753                            .dwattr $C$DW$T$663, DW_AT_type(*$C$DW$T$658)
    2754                            .dwattr $C$DW$T$663, DW_AT_language(DW_LANG_C)
    2755                            .dwattr $C$DW$T$663, DW_AT_decl_file("C:/ti/simplelink_cc13x0_sdk_2_30_00_20/kernel/tirtos/pac
    2756                            .dwattr $C$DW$T$663, DW_AT_decl_line(0xd0)
    2757                            .dwattr $C$DW$T$663, DW_AT_decl_column(0x26)
    2758                    
    2759                    $C$DW$T$664     .dwtag  DW_TAG_typedef
    2760                            .dwattr $C$DW$T$664, DW_AT_name("CT__ti_sysbios_knl_Swi_Module__loggerFxn2")
    2761                            .dwattr $C$DW$T$664, DW_AT_type(*$C$DW$T$658)
    2762                            .dwattr $C$DW$T$664, DW_AT_language(DW_LANG_C)
    2763                            .dwattr $C$DW$T$664, DW_AT_decl_file("C:/ti/simplelink_cc13x0_sdk_2_30_00_20/kernel/tirtos/pac
    2764                            .dwattr $C$DW$T$664, DW_AT_decl_line(0xeb)
    2765                            .dwattr $C$DW$T$664, DW_AT_decl_column(0x26)
    2766                    
    2767                    $C$DW$T$665     .dwtag  DW_TAG_typedef
    2768                            .dwattr $C$DW$T$665, DW_AT_name("CT__ti_sysbios_knl_Task_Module__loggerFxn2")
    2769                            .dwattr $C$DW$T$665, DW_AT_type(*$C$DW$T$658)
    2770                            .dwattr $C$DW$T$665, DW_AT_language(DW_LANG_C)
    2771                            .dwattr $C$DW$T$665, DW_AT_decl_file("C:/ti/simplelink_cc13x0_sdk_2_30_00_20/kernel/tirtos/pac
    2772                            .dwattr $C$DW$T$665, DW_AT_decl_line(0x130)
    2773                            .dwattr $C$DW$T$665, DW_AT_decl_column(0x26)
    2774                    
    2775                    $C$DW$T$666     .dwtag  DW_TAG_typedef
    2776                            .dwattr $C$DW$T$666, DW_AT_name("CT__ti_sysbios_knl_Task_SupportProxy_Module__loggerFxn2")
    2777                            .dwattr $C$DW$T$666, DW_AT_type(*$C$DW$T$658)
    2778                            .dwattr $C$DW$T$666, DW_AT_language(DW_LANG_C)
    2779                            .dwattr $C$DW$T$666, DW_AT_decl_file("C:/ti/simplelink_cc13x0_sdk_2_30_00_20/kernel/tirtos/pac
    2780                            .dwattr $C$DW$T$666, DW_AT_decl_line(0xa2)
    2781                            .dwattr $C$DW$T$666, DW_AT_decl_column(0x26)
    2782                    
    2783                    $C$DW$T$667     .dwtag  DW_TAG_typedef
    2784                            .dwattr $C$DW$T$667, DW_AT_name("CT__xdc_runtime_Assert_Module__loggerFxn2")
    2785                            .dwattr $C$DW$T$667, DW_AT_type(*$C$DW$T$658)
    2786                            .dwattr $C$DW$T$667, DW_AT_language(DW_LANG_C)
    2787                            .dwattr $C$DW$T$667, DW_AT_decl_file("C:/ti/xdctools_3_50_04_43_core/packages/xdc/runtime/Asse
    2788                            .dwattr $C$DW$T$667, DW_AT_decl_line(0xaa)
    2789                            .dwattr $C$DW$T$667, DW_AT_decl_column(0x26)
    2790                    
    2791                    $C$DW$T$668     .dwtag  DW_TAG_typedef
    2792                            .dwattr $C$DW$T$668, DW_AT_name("CT__xdc_runtime_Diags_Module__loggerFxn2")
    2793                            .dwattr $C$DW$T$668, DW_AT_type(*$C$DW$T$658)
    2794                            .dwattr $C$DW$T$668, DW_AT_language(DW_LANG_C)
    2795                            .dwattr $C$DW$T$668, DW_AT_decl_file("C:/ti/xdctools_3_50_04_43_core/packages/xdc/runtime/Diag
    2796                            .dwattr $C$DW$T$668, DW_AT_decl_line(0xfd)
    2797                            .dwattr $C$DW$T$668, DW_AT_decl_column(0x26)
    2798                    
    2799                    $C$DW$T$669     .dwtag  DW_TAG_typedef
    2800                            .dwattr $C$DW$T$669, DW_AT_name("CT__xdc_runtime_Error_Module__loggerFxn2")
    2801                            .dwattr $C$DW$T$669, DW_AT_type(*$C$DW$T$658)
    2802                            .dwattr $C$DW$T$669, DW_AT_language(DW_LANG_C)
    2803                            .dwattr $C$DW$T$669, DW_AT_decl_file("C:/ti/xdctools_3_50_04_43_core/packages/xdc/runtime/Erro
    2804                            .dwattr $C$DW$T$669, DW_AT_decl_line(0xce)
    2805                            .dwattr $C$DW$T$669, DW_AT_decl_column(0x26)
TI ARM Assembler PC v16.9.8 Thu Nov 22 09:24:49 2018

Tools Copyright (c) 1996-2017 Texas Instruments Incorporated
C:\Users\Einstein\AppData\Local\Temp\{748D889B-CC6C-4ECD-A5B9-3576FF08DC06} PAGE   52

    2806                    
    2807                    $C$DW$T$670     .dwtag  DW_TAG_typedef
    2808                            .dwattr $C$DW$T$670, DW_AT_name("CT__xdc_runtime_Log_Module__loggerFxn2")
    2809                            .dwattr $C$DW$T$670, DW_AT_type(*$C$DW$T$658)
    2810                            .dwattr $C$DW$T$670, DW_AT_language(DW_LANG_C)
    2811                            .dwattr $C$DW$T$670, DW_AT_decl_file("C:/ti/xdctools_3_50_04_43_core/packages/xdc/runtime/Log.
    2812                            .dwattr $C$DW$T$670, DW_AT_decl_line(0xbf)
    2813                            .dwattr $C$DW$T$670, DW_AT_decl_column(0x26)
    2814                    
    2815                    $C$DW$T$671     .dwtag  DW_TAG_typedef
    2816                            .dwattr $C$DW$T$671, DW_AT_name("CT__xdc_runtime_Main_Module_GateProxy_Module__loggerFxn2")
    2817                            .dwattr $C$DW$T$671, DW_AT_type(*$C$DW$T$658)
    2818                            .dwattr $C$DW$T$671, DW_AT_language(DW_LANG_C)
    2819                            .dwattr $C$DW$T$671, DW_AT_decl_file("C:/ti/xdctools_3_50_04_43_core/packages/xdc/runtime/pack
    2820                            .dwattr $C$DW$T$671, DW_AT_decl_line(0xa7)
    2821                            .dwattr $C$DW$T$671, DW_AT_decl_column(0x26)
    2822                    
    2823                    $C$DW$T$672     .dwtag  DW_TAG_typedef
    2824                            .dwattr $C$DW$T$672, DW_AT_name("CT__xdc_runtime_Main_Module__loggerFxn2")
    2825                            .dwattr $C$DW$T$672, DW_AT_type(*$C$DW$T$658)
    2826                            .dwattr $C$DW$T$672, DW_AT_language(DW_LANG_C)
    2827                            .dwattr $C$DW$T$672, DW_AT_decl_file("C:/ti/xdctools_3_50_04_43_core/packages/xdc/runtime/Main
    2828                            .dwattr $C$DW$T$672, DW_AT_decl_line(0xa6)
    2829                            .dwattr $C$DW$T$672, DW_AT_decl_column(0x26)
    2830                    
    2831                    $C$DW$T$673     .dwtag  DW_TAG_typedef
    2832                            .dwattr $C$DW$T$673, DW_AT_name("CT__xdc_runtime_Memory_HeapProxy_Module__loggerFxn2")
    2833                            .dwattr $C$DW$T$673, DW_AT_type(*$C$DW$T$658)
    2834                            .dwattr $C$DW$T$673, DW_AT_language(DW_LANG_C)
    2835                            .dwattr $C$DW$T$673, DW_AT_decl_file("C:/ti/xdctools_3_50_04_43_core/packages/xdc/runtime/pack
    2836                            .dwattr $C$DW$T$673, DW_AT_decl_line(0xa1)
    2837                            .dwattr $C$DW$T$673, DW_AT_decl_column(0x26)
    2838                    
    2839                    $C$DW$T$674     .dwtag  DW_TAG_typedef
    2840                            .dwattr $C$DW$T$674, DW_AT_name("CT__xdc_runtime_Memory_Module__loggerFxn2")
    2841                            .dwattr $C$DW$T$674, DW_AT_type(*$C$DW$T$658)
    2842                            .dwattr $C$DW$T$674, DW_AT_language(DW_LANG_C)
    2843                            .dwattr $C$DW$T$674, DW_AT_decl_file("C:/ti/xdctools_3_50_04_43_core/packages/xdc/runtime/Memo
    2844                            .dwattr $C$DW$T$674, DW_AT_decl_line(0xb4)
    2845                            .dwattr $C$DW$T$674, DW_AT_decl_column(0x26)
    2846                    
    2847                    $C$DW$T$675     .dwtag  DW_TAG_typedef
    2848                            .dwattr $C$DW$T$675, DW_AT_name("CT__xdc_runtime_Text_Module__loggerFxn2")
    2849                            .dwattr $C$DW$T$675, DW_AT_type(*$C$DW$T$658)
    2850                            .dwattr $C$DW$T$675, DW_AT_language(DW_LANG_C)
    2851                            .dwattr $C$DW$T$675, DW_AT_decl_file("C:/ti/xdctools_3_50_04_43_core/packages/xdc/runtime/Text
    2852                            .dwattr $C$DW$T$675, DW_AT_decl_line(0xcb)
    2853                            .dwattr $C$DW$T$675, DW_AT_decl_column(0x26)
    2854                    
    2855                    $C$DW$T$676     .dwtag  DW_TAG_typedef
    2856                            .dwattr $C$DW$T$676, DW_AT_name("CT__xdc_runtime_Types_Module__loggerFxn2")
    2857                            .dwattr $C$DW$T$676, DW_AT_type(*$C$DW$T$658)
    2858                            .dwattr $C$DW$T$676, DW_AT_language(DW_LANG_C)
    2859                            .dwattr $C$DW$T$676, DW_AT_decl_file("C:/ti/xdctools_3_50_04_43_core/packages/xdc/runtime/Type
    2860                            .dwattr $C$DW$T$676, DW_AT_decl_line(0x128)
TI ARM Assembler PC v16.9.8 Thu Nov 22 09:24:49 2018

Tools Copyright (c) 1996-2017 Texas Instruments Incorporated
C:\Users\Einstein\AppData\Local\Temp\{748D889B-CC6C-4ECD-A5B9-3576FF08DC06} PAGE   53

    2861                            .dwattr $C$DW$T$676, DW_AT_decl_column(0x26)
    2862                    
    2863                    
    2864                    $C$DW$T$677     .dwtag  DW_TAG_subroutine_type
    2865                            .dwattr $C$DW$T$677, DW_AT_language(DW_LANG_C)
    2866                    $C$DW$146       .dwtag  DW_TAG_formal_parameter
    2867                            .dwattr $C$DW$146, DW_AT_type(*$C$DW$T$154)
    2868                    
    2869                    $C$DW$147       .dwtag  DW_TAG_formal_parameter
    2870                            .dwattr $C$DW$147, DW_AT_type(*$C$DW$T$613)
    2871                    
    2872                    $C$DW$148       .dwtag  DW_TAG_formal_parameter
    2873                            .dwattr $C$DW$148, DW_AT_type(*$C$DW$T$359)
    2874                    
    2875                    $C$DW$149       .dwtag  DW_TAG_formal_parameter
    2876                            .dwattr $C$DW$149, DW_AT_type(*$C$DW$T$136)
    2877                    
    2878                    $C$DW$150       .dwtag  DW_TAG_formal_parameter
    2879                            .dwattr $C$DW$150, DW_AT_type(*$C$DW$T$136)
    2880                    
    2881                    $C$DW$151       .dwtag  DW_TAG_formal_parameter
    2882                            .dwattr $C$DW$151, DW_AT_type(*$C$DW$T$136)
    2883                    
    2884                    $C$DW$152       .dwtag  DW_TAG_formal_parameter
    2885                            .dwattr $C$DW$152, DW_AT_type(*$C$DW$T$136)
    2886                    
    2887                            .dwendtag $C$DW$T$677
    2888                    
    2889                    $C$DW$T$678     .dwtag  DW_TAG_pointer_type
    2890                            .dwattr $C$DW$T$678, DW_AT_type(*$C$DW$T$677)
    2891                            .dwattr $C$DW$T$678, DW_AT_address_class(0x20)
    2892                    
    2893                    $C$DW$T$679     .dwtag  DW_TAG_typedef
    2894                            .dwattr $C$DW$T$679, DW_AT_name("xdc_runtime_Types_LoggerFxn4")
    2895                            .dwattr $C$DW$T$679, DW_AT_type(*$C$DW$T$678)
    2896                            .dwattr $C$DW$T$679, DW_AT_language(DW_LANG_C)
    2897                            .dwattr $C$DW$T$679, DW_AT_decl_file("C:/ti/xdctools_3_50_04_43_core/packages/xdc/runtime/Type
    2898                            .dwattr $C$DW$T$679, DW_AT_decl_line(0x9d)
    2899                            .dwattr $C$DW$T$679, DW_AT_decl_column(0x14)
    2900                    
    2901                    $C$DW$T$680     .dwtag  DW_TAG_typedef
    2902                            .dwattr $C$DW$T$680, DW_AT_name("CT__ti_sysbios_knl_Clock_Module__loggerFxn4")
    2903                            .dwattr $C$DW$T$680, DW_AT_type(*$C$DW$T$679)
    2904                            .dwattr $C$DW$T$680, DW_AT_language(DW_LANG_C)
    2905                            .dwattr $C$DW$T$680, DW_AT_decl_file("C:/ti/simplelink_cc13x0_sdk_2_30_00_20/kernel/tirtos/pac
    2906                            .dwattr $C$DW$T$680, DW_AT_decl_line(0xd4)
    2907                            .dwattr $C$DW$T$680, DW_AT_decl_column(0x26)
    2908                    
    2909                    $C$DW$T$681     .dwtag  DW_TAG_typedef
    2910                            .dwattr $C$DW$T$681, DW_AT_name("CT__ti_sysbios_knl_Clock_TimerProxy_Module__loggerFxn4")
    2911                            .dwattr $C$DW$T$681, DW_AT_type(*$C$DW$T$679)
    2912                            .dwattr $C$DW$T$681, DW_AT_language(DW_LANG_C)
    2913                            .dwattr $C$DW$T$681, DW_AT_decl_file("C:/ti/simplelink_cc13x0_sdk_2_30_00_20/kernel/tirtos/pac
    2914                            .dwattr $C$DW$T$681, DW_AT_decl_line(0xc8)
    2915                            .dwattr $C$DW$T$681, DW_AT_decl_column(0x26)
TI ARM Assembler PC v16.9.8 Thu Nov 22 09:24:49 2018

Tools Copyright (c) 1996-2017 Texas Instruments Incorporated
C:\Users\Einstein\AppData\Local\Temp\{748D889B-CC6C-4ECD-A5B9-3576FF08DC06} PAGE   54

    2916                    
    2917                    $C$DW$T$682     .dwtag  DW_TAG_typedef
    2918                            .dwattr $C$DW$T$682, DW_AT_name("CT__ti_sysbios_knl_Event_Module__loggerFxn4")
    2919                            .dwattr $C$DW$T$682, DW_AT_type(*$C$DW$T$679)
    2920                            .dwattr $C$DW$T$682, DW_AT_language(DW_LANG_C)
    2921                            .dwattr $C$DW$T$682, DW_AT_decl_file("C:/ti/simplelink_cc13x0_sdk_2_30_00_20/kernel/tirtos/pac
    2922                            .dwattr $C$DW$T$682, DW_AT_decl_line(0x12b)
    2923                            .dwattr $C$DW$T$682, DW_AT_decl_column(0x26)
    2924                    
    2925                    $C$DW$T$683     .dwtag  DW_TAG_typedef
    2926                            .dwattr $C$DW$T$683, DW_AT_name("CT__ti_sysbios_knl_Queue_Module__loggerFxn4")
    2927                            .dwattr $C$DW$T$683, DW_AT_type(*$C$DW$T$679)
    2928                            .dwattr $C$DW$T$683, DW_AT_language(DW_LANG_C)
    2929                            .dwattr $C$DW$T$683, DW_AT_decl_file("C:/ti/simplelink_cc13x0_sdk_2_30_00_20/kernel/tirtos/pac
    2930                            .dwattr $C$DW$T$683, DW_AT_decl_line(0xb5)
    2931                            .dwattr $C$DW$T$683, DW_AT_decl_column(0x26)
    2932                    
    2933                    $C$DW$T$684     .dwtag  DW_TAG_typedef
    2934                            .dwattr $C$DW$T$684, DW_AT_name("CT__ti_sysbios_knl_Semaphore_Module__loggerFxn4")
    2935                            .dwattr $C$DW$T$684, DW_AT_type(*$C$DW$T$679)
    2936                            .dwattr $C$DW$T$684, DW_AT_language(DW_LANG_C)
    2937                            .dwattr $C$DW$T$684, DW_AT_decl_file("C:/ti/simplelink_cc13x0_sdk_2_30_00_20/kernel/tirtos/pac
    2938                            .dwattr $C$DW$T$684, DW_AT_decl_line(0xd9)
    2939                            .dwattr $C$DW$T$684, DW_AT_decl_column(0x26)
    2940                    
    2941                    $C$DW$T$685     .dwtag  DW_TAG_typedef
    2942                            .dwattr $C$DW$T$685, DW_AT_name("CT__ti_sysbios_knl_Swi_Module__loggerFxn4")
    2943                            .dwattr $C$DW$T$685, DW_AT_type(*$C$DW$T$679)
    2944                            .dwattr $C$DW$T$685, DW_AT_language(DW_LANG_C)
    2945                            .dwattr $C$DW$T$685, DW_AT_decl_file("C:/ti/simplelink_cc13x0_sdk_2_30_00_20/kernel/tirtos/pac
    2946                            .dwattr $C$DW$T$685, DW_AT_decl_line(0xf4)
    2947                            .dwattr $C$DW$T$685, DW_AT_decl_column(0x26)
    2948                    
    2949                    $C$DW$T$686     .dwtag  DW_TAG_typedef
    2950                            .dwattr $C$DW$T$686, DW_AT_name("CT__ti_sysbios_knl_Task_Module__loggerFxn4")
    2951                            .dwattr $C$DW$T$686, DW_AT_type(*$C$DW$T$679)
    2952                            .dwattr $C$DW$T$686, DW_AT_language(DW_LANG_C)
    2953                            .dwattr $C$DW$T$686, DW_AT_decl_file("C:/ti/simplelink_cc13x0_sdk_2_30_00_20/kernel/tirtos/pac
    2954                            .dwattr $C$DW$T$686, DW_AT_decl_line(0x139)
    2955                            .dwattr $C$DW$T$686, DW_AT_decl_column(0x26)
    2956                    
    2957                    $C$DW$T$687     .dwtag  DW_TAG_typedef
    2958                            .dwattr $C$DW$T$687, DW_AT_name("CT__ti_sysbios_knl_Task_SupportProxy_Module__loggerFxn4")
    2959                            .dwattr $C$DW$T$687, DW_AT_type(*$C$DW$T$679)
    2960                            .dwattr $C$DW$T$687, DW_AT_language(DW_LANG_C)
    2961                            .dwattr $C$DW$T$687, DW_AT_decl_file("C:/ti/simplelink_cc13x0_sdk_2_30_00_20/kernel/tirtos/pac
    2962                            .dwattr $C$DW$T$687, DW_AT_decl_line(0xab)
    2963                            .dwattr $C$DW$T$687, DW_AT_decl_column(0x26)
    2964                    
    2965                    $C$DW$T$688     .dwtag  DW_TAG_typedef
    2966                            .dwattr $C$DW$T$688, DW_AT_name("CT__xdc_runtime_Assert_Module__loggerFxn4")
    2967                            .dwattr $C$DW$T$688, DW_AT_type(*$C$DW$T$679)
    2968                            .dwattr $C$DW$T$688, DW_AT_language(DW_LANG_C)
    2969                            .dwattr $C$DW$T$688, DW_AT_decl_file("C:/ti/xdctools_3_50_04_43_core/packages/xdc/runtime/Asse
    2970                            .dwattr $C$DW$T$688, DW_AT_decl_line(0xb3)
TI ARM Assembler PC v16.9.8 Thu Nov 22 09:24:49 2018

Tools Copyright (c) 1996-2017 Texas Instruments Incorporated
C:\Users\Einstein\AppData\Local\Temp\{748D889B-CC6C-4ECD-A5B9-3576FF08DC06} PAGE   55

    2971                            .dwattr $C$DW$T$688, DW_AT_decl_column(0x26)
    2972                    
    2973                    $C$DW$T$689     .dwtag  DW_TAG_typedef
    2974                            .dwattr $C$DW$T$689, DW_AT_name("CT__xdc_runtime_Diags_Module__loggerFxn4")
    2975                            .dwattr $C$DW$T$689, DW_AT_type(*$C$DW$T$679)
    2976                            .dwattr $C$DW$T$689, DW_AT_language(DW_LANG_C)
    2977                            .dwattr $C$DW$T$689, DW_AT_decl_file("C:/ti/xdctools_3_50_04_43_core/packages/xdc/runtime/Diag
    2978                            .dwattr $C$DW$T$689, DW_AT_decl_line(0x106)
    2979                            .dwattr $C$DW$T$689, DW_AT_decl_column(0x26)
    2980                    
    2981                    $C$DW$T$690     .dwtag  DW_TAG_typedef
    2982                            .dwattr $C$DW$T$690, DW_AT_name("CT__xdc_runtime_Error_Module__loggerFxn4")
    2983                            .dwattr $C$DW$T$690, DW_AT_type(*$C$DW$T$679)
    2984                            .dwattr $C$DW$T$690, DW_AT_language(DW_LANG_C)
    2985                            .dwattr $C$DW$T$690, DW_AT_decl_file("C:/ti/xdctools_3_50_04_43_core/packages/xdc/runtime/Erro
    2986                            .dwattr $C$DW$T$690, DW_AT_decl_line(0xd7)
    2987                            .dwattr $C$DW$T$690, DW_AT_decl_column(0x26)
    2988                    
    2989                    $C$DW$T$691     .dwtag  DW_TAG_typedef
    2990                            .dwattr $C$DW$T$691, DW_AT_name("CT__xdc_runtime_Log_Module__loggerFxn4")
    2991                            .dwattr $C$DW$T$691, DW_AT_type(*$C$DW$T$679)
    2992                            .dwattr $C$DW$T$691, DW_AT_language(DW_LANG_C)
    2993                            .dwattr $C$DW$T$691, DW_AT_decl_file("C:/ti/xdctools_3_50_04_43_core/packages/xdc/runtime/Log.
    2994                            .dwattr $C$DW$T$691, DW_AT_decl_line(0xc8)
    2995                            .dwattr $C$DW$T$691, DW_AT_decl_column(0x26)
    2996                    
    2997                    $C$DW$T$692     .dwtag  DW_TAG_typedef
    2998                            .dwattr $C$DW$T$692, DW_AT_name("CT__xdc_runtime_Main_Module_GateProxy_Module__loggerFxn4")
    2999                            .dwattr $C$DW$T$692, DW_AT_type(*$C$DW$T$679)
    3000                            .dwattr $C$DW$T$692, DW_AT_language(DW_LANG_C)
    3001                            .dwattr $C$DW$T$692, DW_AT_decl_file("C:/ti/xdctools_3_50_04_43_core/packages/xdc/runtime/pack
    3002                            .dwattr $C$DW$T$692, DW_AT_decl_line(0xb0)
    3003                            .dwattr $C$DW$T$692, DW_AT_decl_column(0x26)
    3004                    
    3005                    $C$DW$T$693     .dwtag  DW_TAG_typedef
    3006                            .dwattr $C$DW$T$693, DW_AT_name("CT__xdc_runtime_Main_Module__loggerFxn4")
    3007                            .dwattr $C$DW$T$693, DW_AT_type(*$C$DW$T$679)
    3008                            .dwattr $C$DW$T$693, DW_AT_language(DW_LANG_C)
    3009                            .dwattr $C$DW$T$693, DW_AT_decl_file("C:/ti/xdctools_3_50_04_43_core/packages/xdc/runtime/Main
    3010                            .dwattr $C$DW$T$693, DW_AT_decl_line(0xaf)
    3011                            .dwattr $C$DW$T$693, DW_AT_decl_column(0x26)
    3012                    
    3013                    $C$DW$T$694     .dwtag  DW_TAG_typedef
    3014                            .dwattr $C$DW$T$694, DW_AT_name("CT__xdc_runtime_Memory_HeapProxy_Module__loggerFxn4")
    3015                            .dwattr $C$DW$T$694, DW_AT_type(*$C$DW$T$679)
    3016                            .dwattr $C$DW$T$694, DW_AT_language(DW_LANG_C)
    3017                            .dwattr $C$DW$T$694, DW_AT_decl_file("C:/ti/xdctools_3_50_04_43_core/packages/xdc/runtime/pack
    3018                            .dwattr $C$DW$T$694, DW_AT_decl_line(0xaa)
    3019                            .dwattr $C$DW$T$694, DW_AT_decl_column(0x26)
    3020                    
    3021                    $C$DW$T$695     .dwtag  DW_TAG_typedef
    3022                            .dwattr $C$DW$T$695, DW_AT_name("CT__xdc_runtime_Memory_Module__loggerFxn4")
    3023                            .dwattr $C$DW$T$695, DW_AT_type(*$C$DW$T$679)
    3024                            .dwattr $C$DW$T$695, DW_AT_language(DW_LANG_C)
    3025                            .dwattr $C$DW$T$695, DW_AT_decl_file("C:/ti/xdctools_3_50_04_43_core/packages/xdc/runtime/Memo
TI ARM Assembler PC v16.9.8 Thu Nov 22 09:24:49 2018

Tools Copyright (c) 1996-2017 Texas Instruments Incorporated
C:\Users\Einstein\AppData\Local\Temp\{748D889B-CC6C-4ECD-A5B9-3576FF08DC06} PAGE   56

    3026                            .dwattr $C$DW$T$695, DW_AT_decl_line(0xbd)
    3027                            .dwattr $C$DW$T$695, DW_AT_decl_column(0x26)
    3028                    
    3029                    $C$DW$T$696     .dwtag  DW_TAG_typedef
    3030                            .dwattr $C$DW$T$696, DW_AT_name("CT__xdc_runtime_Text_Module__loggerFxn4")
    3031                            .dwattr $C$DW$T$696, DW_AT_type(*$C$DW$T$679)
    3032                            .dwattr $C$DW$T$696, DW_AT_language(DW_LANG_C)
    3033                            .dwattr $C$DW$T$696, DW_AT_decl_file("C:/ti/xdctools_3_50_04_43_core/packages/xdc/runtime/Text
    3034                            .dwattr $C$DW$T$696, DW_AT_decl_line(0xd4)
    3035                            .dwattr $C$DW$T$696, DW_AT_decl_column(0x26)
    3036                    
    3037                    $C$DW$T$697     .dwtag  DW_TAG_typedef
    3038                            .dwattr $C$DW$T$697, DW_AT_name("CT__xdc_runtime_Types_Module__loggerFxn4")
    3039                            .dwattr $C$DW$T$697, DW_AT_type(*$C$DW$T$679)
    3040                            .dwattr $C$DW$T$697, DW_AT_language(DW_LANG_C)
    3041                            .dwattr $C$DW$T$697, DW_AT_decl_file("C:/ti/xdctools_3_50_04_43_core/packages/xdc/runtime/Type
    3042                            .dwattr $C$DW$T$697, DW_AT_decl_line(0x131)
    3043                            .dwattr $C$DW$T$697, DW_AT_decl_column(0x26)
    3044                    
    3045                    
    3046                    $C$DW$T$698     .dwtag  DW_TAG_subroutine_type
    3047                            .dwattr $C$DW$T$698, DW_AT_language(DW_LANG_C)
    3048                    $C$DW$153       .dwtag  DW_TAG_formal_parameter
    3049                            .dwattr $C$DW$153, DW_AT_type(*$C$DW$T$154)
    3050                    
    3051                    $C$DW$154       .dwtag  DW_TAG_formal_parameter
    3052                            .dwattr $C$DW$154, DW_AT_type(*$C$DW$T$613)
    3053                    
    3054                    $C$DW$155       .dwtag  DW_TAG_formal_parameter
    3055                            .dwattr $C$DW$155, DW_AT_type(*$C$DW$T$359)
    3056                    
    3057                    $C$DW$156       .dwtag  DW_TAG_formal_parameter
    3058                            .dwattr $C$DW$156, DW_AT_type(*$C$DW$T$136)
    3059                    
    3060                    $C$DW$157       .dwtag  DW_TAG_formal_parameter
    3061                            .dwattr $C$DW$157, DW_AT_type(*$C$DW$T$136)
    3062                    
    3063                    $C$DW$158       .dwtag  DW_TAG_formal_parameter
    3064                            .dwattr $C$DW$158, DW_AT_type(*$C$DW$T$136)
    3065                    
    3066                    $C$DW$159       .dwtag  DW_TAG_formal_parameter
    3067                            .dwattr $C$DW$159, DW_AT_type(*$C$DW$T$136)
    3068                    
    3069                    $C$DW$160       .dwtag  DW_TAG_formal_parameter
    3070                            .dwattr $C$DW$160, DW_AT_type(*$C$DW$T$136)
    3071                    
    3072                    $C$DW$161       .dwtag  DW_TAG_formal_parameter
    3073                            .dwattr $C$DW$161, DW_AT_type(*$C$DW$T$136)
    3074                    
    3075                    $C$DW$162       .dwtag  DW_TAG_formal_parameter
    3076                            .dwattr $C$DW$162, DW_AT_type(*$C$DW$T$136)
    3077                    
    3078                    $C$DW$163       .dwtag  DW_TAG_formal_parameter
    3079                            .dwattr $C$DW$163, DW_AT_type(*$C$DW$T$136)
    3080                    
TI ARM Assembler PC v16.9.8 Thu Nov 22 09:24:49 2018

Tools Copyright (c) 1996-2017 Texas Instruments Incorporated
C:\Users\Einstein\AppData\Local\Temp\{748D889B-CC6C-4ECD-A5B9-3576FF08DC06} PAGE   57

    3081                            .dwendtag $C$DW$T$698
    3082                    
    3083                    $C$DW$T$699     .dwtag  DW_TAG_pointer_type
    3084                            .dwattr $C$DW$T$699, DW_AT_type(*$C$DW$T$698)
    3085                            .dwattr $C$DW$T$699, DW_AT_address_class(0x20)
    3086                    
    3087                    $C$DW$T$700     .dwtag  DW_TAG_typedef
    3088                            .dwattr $C$DW$T$700, DW_AT_name("xdc_runtime_Types_LoggerFxn8")
    3089                            .dwattr $C$DW$T$700, DW_AT_type(*$C$DW$T$699)
    3090                            .dwattr $C$DW$T$700, DW_AT_language(DW_LANG_C)
    3091                            .dwattr $C$DW$T$700, DW_AT_decl_file("C:/ti/xdctools_3_50_04_43_core/packages/xdc/runtime/Type
    3092                            .dwattr $C$DW$T$700, DW_AT_decl_line(0xa0)
    3093                            .dwattr $C$DW$T$700, DW_AT_decl_column(0x14)
    3094                    
    3095                    $C$DW$T$701     .dwtag  DW_TAG_typedef
    3096                            .dwattr $C$DW$T$701, DW_AT_name("CT__ti_sysbios_knl_Clock_Module__loggerFxn8")
    3097                            .dwattr $C$DW$T$701, DW_AT_type(*$C$DW$T$700)
    3098                            .dwattr $C$DW$T$701, DW_AT_language(DW_LANG_C)
